
du2:     file format elf64-x86-64


Disassembly of section .init:

0000000000401e68 <.init>:
  401e68:	48 83 ec 08          	sub    $0x8,%rsp
  401e6c:	48 8b 05 85 81 21 00 	mov    0x218185(%rip),%rax        # 619ff8 <fts_children+0x20a638>
  401e73:	48 85 c0             	test   %rax,%rax
  401e76:	74 05                	je     401e7d <__ctype_toupper_loc@plt-0x23>
  401e78:	e8 a3 03 00 00       	callq  402220 <__gmon_start__@plt>
  401e7d:	48 83 c4 08          	add    $0x8,%rsp
  401e81:	c3                   	retq   

Disassembly of section .plt:

0000000000401e90 <__ctype_toupper_loc@plt-0x10>:
  401e90:	ff 35 72 81 21 00    	pushq  0x218172(%rip)        # 61a008 <fts_children+0x20a648>
  401e96:	ff 25 74 81 21 00    	jmpq   *0x218174(%rip)        # 61a010 <fts_children+0x20a650>
  401e9c:	0f 1f 40 00          	nopl   0x0(%rax)

0000000000401ea0 <__ctype_toupper_loc@plt>:
  401ea0:	ff 25 72 81 21 00    	jmpq   *0x218172(%rip)        # 61a018 <fts_children+0x20a658>
  401ea6:	68 00 00 00 00       	pushq  $0x0
  401eab:	e9 e0 ff ff ff       	jmpq   401e90 <__ctype_toupper_loc@plt-0x10>

0000000000401eb0 <__uflow@plt>:
  401eb0:	ff 25 6a 81 21 00    	jmpq   *0x21816a(%rip)        # 61a020 <fts_children+0x20a660>
  401eb6:	68 01 00 00 00       	pushq  $0x1
  401ebb:	e9 d0 ff ff ff       	jmpq   401e90 <__ctype_toupper_loc@plt-0x10>

0000000000401ec0 <getenv@plt>:
  401ec0:	ff 25 62 81 21 00    	jmpq   *0x218162(%rip)        # 61a028 <fts_children+0x20a668>
  401ec6:	68 02 00 00 00       	pushq  $0x2
  401ecb:	e9 c0 ff ff ff       	jmpq   401e90 <__ctype_toupper_loc@plt-0x10>

0000000000401ed0 <free@plt>:
  401ed0:	ff 25 5a 81 21 00    	jmpq   *0x21815a(%rip)        # 61a030 <fts_children+0x20a670>
  401ed6:	68 03 00 00 00       	pushq  $0x3
  401edb:	e9 b0 ff ff ff       	jmpq   401e90 <__ctype_toupper_loc@plt-0x10>

0000000000401ee0 <endmntent@plt>:
  401ee0:	ff 25 52 81 21 00    	jmpq   *0x218152(%rip)        # 61a038 <fts_children+0x20a678>
  401ee6:	68 04 00 00 00       	pushq  $0x4
  401eeb:	e9 a0 ff ff ff       	jmpq   401e90 <__ctype_toupper_loc@plt-0x10>

0000000000401ef0 <localtime@plt>:
  401ef0:	ff 25 4a 81 21 00    	jmpq   *0x21814a(%rip)        # 61a040 <fts_children+0x20a680>
  401ef6:	68 05 00 00 00       	pushq  $0x5
  401efb:	e9 90 ff ff ff       	jmpq   401e90 <__ctype_toupper_loc@plt-0x10>

0000000000401f00 <abort@plt>:
  401f00:	ff 25 42 81 21 00    	jmpq   *0x218142(%rip)        # 61a048 <fts_children+0x20a688>
  401f06:	68 06 00 00 00       	pushq  $0x6
  401f0b:	e9 80 ff ff ff       	jmpq   401e90 <__ctype_toupper_loc@plt-0x10>

0000000000401f10 <__errno_location@plt>:
  401f10:	ff 25 3a 81 21 00    	jmpq   *0x21813a(%rip)        # 61a050 <fts_children+0x20a690>
  401f16:	68 07 00 00 00       	pushq  $0x7
  401f1b:	e9 70 ff ff ff       	jmpq   401e90 <__ctype_toupper_loc@plt-0x10>

0000000000401f20 <strncmp@plt>:
  401f20:	ff 25 32 81 21 00    	jmpq   *0x218132(%rip)        # 61a058 <fts_children+0x20a698>
  401f26:	68 08 00 00 00       	pushq  $0x8
  401f2b:	e9 60 ff ff ff       	jmpq   401e90 <__ctype_toupper_loc@plt-0x10>

0000000000401f30 <_exit@plt>:
  401f30:	ff 25 2a 81 21 00    	jmpq   *0x21812a(%rip)        # 61a060 <fts_children+0x20a6a0>
  401f36:	68 09 00 00 00       	pushq  $0x9
  401f3b:	e9 50 ff ff ff       	jmpq   401e90 <__ctype_toupper_loc@plt-0x10>

0000000000401f40 <strcpy@plt>:
  401f40:	ff 25 22 81 21 00    	jmpq   *0x218122(%rip)        # 61a068 <fts_children+0x20a6a8>
  401f46:	68 0a 00 00 00       	pushq  $0xa
  401f4b:	e9 40 ff ff ff       	jmpq   401e90 <__ctype_toupper_loc@plt-0x10>

0000000000401f50 <__fpending@plt>:
  401f50:	ff 25 1a 81 21 00    	jmpq   *0x21811a(%rip)        # 61a070 <fts_children+0x20a6b0>
  401f56:	68 0b 00 00 00       	pushq  $0xb
  401f5b:	e9 30 ff ff ff       	jmpq   401e90 <__ctype_toupper_loc@plt-0x10>

0000000000401f60 <iconv@plt>:
  401f60:	ff 25 12 81 21 00    	jmpq   *0x218112(%rip)        # 61a078 <fts_children+0x20a6b8>
  401f66:	68 0c 00 00 00       	pushq  $0xc
  401f6b:	e9 20 ff ff ff       	jmpq   401e90 <__ctype_toupper_loc@plt-0x10>

0000000000401f70 <qsort@plt>:
  401f70:	ff 25 0a 81 21 00    	jmpq   *0x21810a(%rip)        # 61a080 <fts_children+0x20a6c0>
  401f76:	68 0d 00 00 00       	pushq  $0xd
  401f7b:	e9 10 ff ff ff       	jmpq   401e90 <__ctype_toupper_loc@plt-0x10>

0000000000401f80 <iswcntrl@plt>:
  401f80:	ff 25 02 81 21 00    	jmpq   *0x218102(%rip)        # 61a088 <fts_children+0x20a6c8>
  401f86:	68 0e 00 00 00       	pushq  $0xe
  401f8b:	e9 00 ff ff ff       	jmpq   401e90 <__ctype_toupper_loc@plt-0x10>

0000000000401f90 <localeconv@plt>:
  401f90:	ff 25 fa 80 21 00    	jmpq   *0x2180fa(%rip)        # 61a090 <fts_children+0x20a6d0>
  401f96:	68 0f 00 00 00       	pushq  $0xf
  401f9b:	e9 f0 fe ff ff       	jmpq   401e90 <__ctype_toupper_loc@plt-0x10>

0000000000401fa0 <fcntl@plt>:
  401fa0:	ff 25 f2 80 21 00    	jmpq   *0x2180f2(%rip)        # 61a098 <fts_children+0x20a6d8>
  401fa6:	68 10 00 00 00       	pushq  $0x10
  401fab:	e9 e0 fe ff ff       	jmpq   401e90 <__ctype_toupper_loc@plt-0x10>

0000000000401fb0 <textdomain@plt>:
  401fb0:	ff 25 ea 80 21 00    	jmpq   *0x2180ea(%rip)        # 61a0a0 <fts_children+0x20a6e0>
  401fb6:	68 11 00 00 00       	pushq  $0x11
  401fbb:	e9 d0 fe ff ff       	jmpq   401e90 <__ctype_toupper_loc@plt-0x10>

0000000000401fc0 <__strtol_internal@plt>:
  401fc0:	ff 25 e2 80 21 00    	jmpq   *0x2180e2(%rip)        # 61a0a8 <fts_children+0x20a6e8>
  401fc6:	68 12 00 00 00       	pushq  $0x12
  401fcb:	e9 c0 fe ff ff       	jmpq   401e90 <__ctype_toupper_loc@plt-0x10>

0000000000401fd0 <fclose@plt>:
  401fd0:	ff 25 da 80 21 00    	jmpq   *0x2180da(%rip)        # 61a0b0 <fts_children+0x20a6f0>
  401fd6:	68 13 00 00 00       	pushq  $0x13
  401fdb:	e9 b0 fe ff ff       	jmpq   401e90 <__ctype_toupper_loc@plt-0x10>

0000000000401fe0 <bindtextdomain@plt>:
  401fe0:	ff 25 d2 80 21 00    	jmpq   *0x2180d2(%rip)        # 61a0b8 <fts_children+0x20a6f8>
  401fe6:	68 14 00 00 00       	pushq  $0x14
  401feb:	e9 a0 fe ff ff       	jmpq   401e90 <__ctype_toupper_loc@plt-0x10>

0000000000401ff0 <dcgettext@plt>:
  401ff0:	ff 25 ca 80 21 00    	jmpq   *0x2180ca(%rip)        # 61a0c0 <fts_children+0x20a700>
  401ff6:	68 15 00 00 00       	pushq  $0x15
  401ffb:	e9 90 fe ff ff       	jmpq   401e90 <__ctype_toupper_loc@plt-0x10>

0000000000402000 <__ctype_get_mb_cur_max@plt>:
  402000:	ff 25 c2 80 21 00    	jmpq   *0x2180c2(%rip)        # 61a0c8 <fts_children+0x20a708>
  402006:	68 16 00 00 00       	pushq  $0x16
  40200b:	e9 80 fe ff ff       	jmpq   401e90 <__ctype_toupper_loc@plt-0x10>

0000000000402010 <strlen@plt>:
  402010:	ff 25 ba 80 21 00    	jmpq   *0x2180ba(%rip)        # 61a0d0 <fts_children+0x20a710>
  402016:	68 17 00 00 00       	pushq  $0x17
  40201b:	e9 70 fe ff ff       	jmpq   401e90 <__ctype_toupper_loc@plt-0x10>

0000000000402020 <__lxstat@plt>:
  402020:	ff 25 b2 80 21 00    	jmpq   *0x2180b2(%rip)        # 61a0d8 <fts_children+0x20a718>
  402026:	68 18 00 00 00       	pushq  $0x18
  40202b:	e9 60 fe ff ff       	jmpq   401e90 <__ctype_toupper_loc@plt-0x10>

0000000000402030 <openat@plt>:
  402030:	ff 25 aa 80 21 00    	jmpq   *0x2180aa(%rip)        # 61a0e0 <fts_children+0x20a720>
  402036:	68 19 00 00 00       	pushq  $0x19
  40203b:	e9 50 fe ff ff       	jmpq   401e90 <__ctype_toupper_loc@plt-0x10>

0000000000402040 <__stack_chk_fail@plt>:
  402040:	ff 25 a2 80 21 00    	jmpq   *0x2180a2(%rip)        # 61a0e8 <fts_children+0x20a728>
  402046:	68 1a 00 00 00       	pushq  $0x1a
  40204b:	e9 40 fe ff ff       	jmpq   401e90 <__ctype_toupper_loc@plt-0x10>

0000000000402050 <getopt_long@plt>:
  402050:	ff 25 9a 80 21 00    	jmpq   *0x21809a(%rip)        # 61a0f0 <fts_children+0x20a730>
  402056:	68 1b 00 00 00       	pushq  $0x1b
  40205b:	e9 30 fe ff ff       	jmpq   401e90 <__ctype_toupper_loc@plt-0x10>

0000000000402060 <mbrtowc@plt>:
  402060:	ff 25 92 80 21 00    	jmpq   *0x218092(%rip)        # 61a0f8 <fts_children+0x20a738>
  402066:	68 1c 00 00 00       	pushq  $0x1c
  40206b:	e9 20 fe ff ff       	jmpq   401e90 <__ctype_toupper_loc@plt-0x10>

0000000000402070 <dup2@plt>:
  402070:	ff 25 8a 80 21 00    	jmpq   *0x21808a(%rip)        # 61a100 <fts_children+0x20a740>
  402076:	68 1d 00 00 00       	pushq  $0x1d
  40207b:	e9 10 fe ff ff       	jmpq   401e90 <__ctype_toupper_loc@plt-0x10>

0000000000402080 <strchr@plt>:
  402080:	ff 25 82 80 21 00    	jmpq   *0x218082(%rip)        # 61a108 <fts_children+0x20a748>
  402086:	68 1e 00 00 00       	pushq  $0x1e
  40208b:	e9 00 fe ff ff       	jmpq   401e90 <__ctype_toupper_loc@plt-0x10>

0000000000402090 <__fxstatat@plt>:
  402090:	ff 25 7a 80 21 00    	jmpq   *0x21807a(%rip)        # 61a110 <fts_children+0x20a750>
  402096:	68 1f 00 00 00       	pushq  $0x1f
  40209b:	e9 f0 fd ff ff       	jmpq   401e90 <__ctype_toupper_loc@plt-0x10>

00000000004020a0 <__overflow@plt>:
  4020a0:	ff 25 72 80 21 00    	jmpq   *0x218072(%rip)        # 61a118 <fts_children+0x20a758>
  4020a6:	68 20 00 00 00       	pushq  $0x20
  4020ab:	e9 e0 fd ff ff       	jmpq   401e90 <__ctype_toupper_loc@plt-0x10>

00000000004020b0 <strrchr@plt>:
  4020b0:	ff 25 6a 80 21 00    	jmpq   *0x21806a(%rip)        # 61a120 <fts_children+0x20a760>
  4020b6:	68 21 00 00 00       	pushq  $0x21
  4020bb:	e9 d0 fd ff ff       	jmpq   401e90 <__ctype_toupper_loc@plt-0x10>

00000000004020c0 <lseek@plt>:
  4020c0:	ff 25 62 80 21 00    	jmpq   *0x218062(%rip)        # 61a128 <fts_children+0x20a768>
  4020c6:	68 22 00 00 00       	pushq  $0x22
  4020cb:	e9 c0 fd ff ff       	jmpq   401e90 <__ctype_toupper_loc@plt-0x10>

00000000004020d0 <__assert_fail@plt>:
  4020d0:	ff 25 5a 80 21 00    	jmpq   *0x21805a(%rip)        # 61a130 <fts_children+0x20a770>
  4020d6:	68 23 00 00 00       	pushq  $0x23
  4020db:	e9 b0 fd ff ff       	jmpq   401e90 <__ctype_toupper_loc@plt-0x10>

00000000004020e0 <__strtoul_internal@plt>:
  4020e0:	ff 25 52 80 21 00    	jmpq   *0x218052(%rip)        # 61a138 <fts_children+0x20a778>
  4020e6:	68 24 00 00 00       	pushq  $0x24
  4020eb:	e9 a0 fd ff ff       	jmpq   401e90 <__ctype_toupper_loc@plt-0x10>

00000000004020f0 <fnmatch@plt>:
  4020f0:	ff 25 4a 80 21 00    	jmpq   *0x21804a(%rip)        # 61a140 <fts_children+0x20a780>
  4020f6:	68 25 00 00 00       	pushq  $0x25
  4020fb:	e9 90 fd ff ff       	jmpq   401e90 <__ctype_toupper_loc@plt-0x10>

0000000000402100 <memset@plt>:
  402100:	ff 25 42 80 21 00    	jmpq   *0x218042(%rip)        # 61a148 <fts_children+0x20a788>
  402106:	68 26 00 00 00       	pushq  $0x26
  40210b:	e9 80 fd ff ff       	jmpq   401e90 <__ctype_toupper_loc@plt-0x10>

0000000000402110 <freopen@plt>:
  402110:	ff 25 3a 80 21 00    	jmpq   *0x21803a(%rip)        # 61a150 <fts_children+0x20a790>
  402116:	68 27 00 00 00       	pushq  $0x27
  40211b:	e9 70 fd ff ff       	jmpq   401e90 <__ctype_toupper_loc@plt-0x10>

0000000000402120 <fscanf@plt>:
  402120:	ff 25 32 80 21 00    	jmpq   *0x218032(%rip)        # 61a158 <fts_children+0x20a798>
  402126:	68 28 00 00 00       	pushq  $0x28
  40212b:	e9 60 fd ff ff       	jmpq   401e90 <__ctype_toupper_loc@plt-0x10>

0000000000402130 <strnlen@plt>:
  402130:	ff 25 2a 80 21 00    	jmpq   *0x21802a(%rip)        # 61a160 <fts_children+0x20a7a0>
  402136:	68 29 00 00 00       	pushq  $0x29
  40213b:	e9 50 fd ff ff       	jmpq   401e90 <__ctype_toupper_loc@plt-0x10>

0000000000402140 <close@plt>:
  402140:	ff 25 22 80 21 00    	jmpq   *0x218022(%rip)        # 61a168 <fts_children+0x20a7a8>
  402146:	68 2a 00 00 00       	pushq  $0x2a
  40214b:	e9 40 fd ff ff       	jmpq   401e90 <__ctype_toupper_loc@plt-0x10>

0000000000402150 <closedir@plt>:
  402150:	ff 25 1a 80 21 00    	jmpq   *0x21801a(%rip)        # 61a170 <fts_children+0x20a7b0>
  402156:	68 2b 00 00 00       	pushq  $0x2b
  40215b:	e9 30 fd ff ff       	jmpq   401e90 <__ctype_toupper_loc@plt-0x10>

0000000000402160 <fputc@plt>:
  402160:	ff 25 12 80 21 00    	jmpq   *0x218012(%rip)        # 61a178 <fts_children+0x20a7b8>
  402166:	68 2c 00 00 00       	pushq  $0x2c
  40216b:	e9 20 fd ff ff       	jmpq   401e90 <__ctype_toupper_loc@plt-0x10>

0000000000402170 <__strdup@plt>:
  402170:	ff 25 0a 80 21 00    	jmpq   *0x21800a(%rip)        # 61a180 <fts_children+0x20a7c0>
  402176:	68 2d 00 00 00       	pushq  $0x2d
  40217b:	e9 10 fd ff ff       	jmpq   401e90 <__ctype_toupper_loc@plt-0x10>

0000000000402180 <memchr@plt>:
  402180:	ff 25 02 80 21 00    	jmpq   *0x218002(%rip)        # 61a188 <fts_children+0x20a7c8>
  402186:	68 2e 00 00 00       	pushq  $0x2e
  40218b:	e9 00 fd ff ff       	jmpq   401e90 <__ctype_toupper_loc@plt-0x10>

0000000000402190 <__libc_start_main@plt>:
  402190:	ff 25 fa 7f 21 00    	jmpq   *0x217ffa(%rip)        # 61a190 <fts_children+0x20a7d0>
  402196:	68 2f 00 00 00       	pushq  $0x2f
  40219b:	e9 f0 fc ff ff       	jmpq   401e90 <__ctype_toupper_loc@plt-0x10>

00000000004021a0 <memcmp@plt>:
  4021a0:	ff 25 f2 7f 21 00    	jmpq   *0x217ff2(%rip)        # 61a198 <fts_children+0x20a7d8>
  4021a6:	68 30 00 00 00       	pushq  $0x30
  4021ab:	e9 e0 fc ff ff       	jmpq   401e90 <__ctype_toupper_loc@plt-0x10>

00000000004021b0 <fputs_unlocked@plt>:
  4021b0:	ff 25 ea 7f 21 00    	jmpq   *0x217fea(%rip)        # 61a1a0 <fts_children+0x20a7e0>
  4021b6:	68 31 00 00 00       	pushq  $0x31
  4021bb:	e9 d0 fc ff ff       	jmpq   401e90 <__ctype_toupper_loc@plt-0x10>

00000000004021c0 <calloc@plt>:
  4021c0:	ff 25 e2 7f 21 00    	jmpq   *0x217fe2(%rip)        # 61a1a8 <fts_children+0x20a7e8>
  4021c6:	68 32 00 00 00       	pushq  $0x32
  4021cb:	e9 c0 fc ff ff       	jmpq   401e90 <__ctype_toupper_loc@plt-0x10>

00000000004021d0 <__getdelim@plt>:
  4021d0:	ff 25 da 7f 21 00    	jmpq   *0x217fda(%rip)        # 61a1b0 <fts_children+0x20a7f0>
  4021d6:	68 33 00 00 00       	pushq  $0x33
  4021db:	e9 b0 fc ff ff       	jmpq   401e90 <__ctype_toupper_loc@plt-0x10>

00000000004021e0 <strcmp@plt>:
  4021e0:	ff 25 d2 7f 21 00    	jmpq   *0x217fd2(%rip)        # 61a1b8 <fts_children+0x20a7f8>
  4021e6:	68 34 00 00 00       	pushq  $0x34
  4021eb:	e9 a0 fc ff ff       	jmpq   401e90 <__ctype_toupper_loc@plt-0x10>

00000000004021f0 <dirfd@plt>:
  4021f0:	ff 25 ca 7f 21 00    	jmpq   *0x217fca(%rip)        # 61a1c0 <fts_children+0x20a800>
  4021f6:	68 35 00 00 00       	pushq  $0x35
  4021fb:	e9 90 fc ff ff       	jmpq   401e90 <__ctype_toupper_loc@plt-0x10>

0000000000402200 <__memcpy_chk@plt>:
  402200:	ff 25 c2 7f 21 00    	jmpq   *0x217fc2(%rip)        # 61a1c8 <fts_children+0x20a808>
  402206:	68 36 00 00 00       	pushq  $0x36
  40220b:	e9 80 fc ff ff       	jmpq   401e90 <__ctype_toupper_loc@plt-0x10>

0000000000402210 <feof@plt>:
  402210:	ff 25 ba 7f 21 00    	jmpq   *0x217fba(%rip)        # 61a1d0 <fts_children+0x20a810>
  402216:	68 37 00 00 00       	pushq  $0x37
  40221b:	e9 70 fc ff ff       	jmpq   401e90 <__ctype_toupper_loc@plt-0x10>

0000000000402220 <__gmon_start__@plt>:
  402220:	ff 25 b2 7f 21 00    	jmpq   *0x217fb2(%rip)        # 61a1d8 <fts_children+0x20a818>
  402226:	68 38 00 00 00       	pushq  $0x38
  40222b:	e9 60 fc ff ff       	jmpq   401e90 <__ctype_toupper_loc@plt-0x10>

0000000000402230 <memcpy@plt>:
  402230:	ff 25 aa 7f 21 00    	jmpq   *0x217faa(%rip)        # 61a1e0 <fts_children+0x20a820>
  402236:	68 39 00 00 00       	pushq  $0x39
  40223b:	e9 50 fc ff ff       	jmpq   401e90 <__ctype_toupper_loc@plt-0x10>

0000000000402240 <fileno@plt>:
  402240:	ff 25 a2 7f 21 00    	jmpq   *0x217fa2(%rip)        # 61a1e8 <fts_children+0x20a828>
  402246:	68 3a 00 00 00       	pushq  $0x3a
  40224b:	e9 40 fc ff ff       	jmpq   401e90 <__ctype_toupper_loc@plt-0x10>

0000000000402250 <__xstat@plt>:
  402250:	ff 25 9a 7f 21 00    	jmpq   *0x217f9a(%rip)        # 61a1f0 <fts_children+0x20a830>
  402256:	68 3b 00 00 00       	pushq  $0x3b
  40225b:	e9 30 fc ff ff       	jmpq   401e90 <__ctype_toupper_loc@plt-0x10>

0000000000402260 <readdir@plt>:
  402260:	ff 25 92 7f 21 00    	jmpq   *0x217f92(%rip)        # 61a1f8 <fts_children+0x20a838>
  402266:	68 3c 00 00 00       	pushq  $0x3c
  40226b:	e9 20 fc ff ff       	jmpq   401e90 <__ctype_toupper_loc@plt-0x10>

0000000000402270 <wcwidth@plt>:
  402270:	ff 25 8a 7f 21 00    	jmpq   *0x217f8a(%rip)        # 61a200 <fts_children+0x20a840>
  402276:	68 3d 00 00 00       	pushq  $0x3d
  40227b:	e9 10 fc ff ff       	jmpq   401e90 <__ctype_toupper_loc@plt-0x10>

0000000000402280 <iswalnum@plt>:
  402280:	ff 25 82 7f 21 00    	jmpq   *0x217f82(%rip)        # 61a208 <fts_children+0x20a848>
  402286:	68 3e 00 00 00       	pushq  $0x3e
  40228b:	e9 00 fc ff ff       	jmpq   401e90 <__ctype_toupper_loc@plt-0x10>

0000000000402290 <malloc@plt>:
  402290:	ff 25 7a 7f 21 00    	jmpq   *0x217f7a(%rip)        # 61a210 <fts_children+0x20a850>
  402296:	68 3f 00 00 00       	pushq  $0x3f
  40229b:	e9 f0 fb ff ff       	jmpq   401e90 <__ctype_toupper_loc@plt-0x10>

00000000004022a0 <fflush@plt>:
  4022a0:	ff 25 72 7f 21 00    	jmpq   *0x217f72(%rip)        # 61a218 <fts_children+0x20a858>
  4022a6:	68 40 00 00 00       	pushq  $0x40
  4022ab:	e9 e0 fb ff ff       	jmpq   401e90 <__ctype_toupper_loc@plt-0x10>

00000000004022b0 <getmntent@plt>:
  4022b0:	ff 25 6a 7f 21 00    	jmpq   *0x217f6a(%rip)        # 61a220 <fts_children+0x20a860>
  4022b6:	68 41 00 00 00       	pushq  $0x41
  4022bb:	e9 d0 fb ff ff       	jmpq   401e90 <__ctype_toupper_loc@plt-0x10>

00000000004022c0 <setmntent@plt>:
  4022c0:	ff 25 62 7f 21 00    	jmpq   *0x217f62(%rip)        # 61a228 <fts_children+0x20a868>
  4022c6:	68 42 00 00 00       	pushq  $0x42
  4022cb:	e9 c0 fb ff ff       	jmpq   401e90 <__ctype_toupper_loc@plt-0x10>

00000000004022d0 <nl_langinfo@plt>:
  4022d0:	ff 25 5a 7f 21 00    	jmpq   *0x217f5a(%rip)        # 61a230 <fts_children+0x20a870>
  4022d6:	68 43 00 00 00       	pushq  $0x43
  4022db:	e9 b0 fb ff ff       	jmpq   401e90 <__ctype_toupper_loc@plt-0x10>

00000000004022e0 <ungetc@plt>:
  4022e0:	ff 25 52 7f 21 00    	jmpq   *0x217f52(%rip)        # 61a238 <fts_children+0x20a878>
  4022e6:	68 44 00 00 00       	pushq  $0x44
  4022eb:	e9 a0 fb ff ff       	jmpq   401e90 <__ctype_toupper_loc@plt-0x10>

00000000004022f0 <__fxstat@plt>:
  4022f0:	ff 25 4a 7f 21 00    	jmpq   *0x217f4a(%rip)        # 61a240 <fts_children+0x20a880>
  4022f6:	68 45 00 00 00       	pushq  $0x45
  4022fb:	e9 90 fb ff ff       	jmpq   401e90 <__ctype_toupper_loc@plt-0x10>

0000000000402300 <sscanf@plt>:
  402300:	ff 25 42 7f 21 00    	jmpq   *0x217f42(%rip)        # 61a248 <fts_children+0x20a888>
  402306:	68 46 00 00 00       	pushq  $0x46
  40230b:	e9 80 fb ff ff       	jmpq   401e90 <__ctype_toupper_loc@plt-0x10>

0000000000402310 <mktime@plt>:
  402310:	ff 25 3a 7f 21 00    	jmpq   *0x217f3a(%rip)        # 61a250 <fts_children+0x20a890>
  402316:	68 47 00 00 00       	pushq  $0x47
  40231b:	e9 70 fb ff ff       	jmpq   401e90 <__ctype_toupper_loc@plt-0x10>

0000000000402320 <__freading@plt>:
  402320:	ff 25 32 7f 21 00    	jmpq   *0x217f32(%rip)        # 61a258 <fts_children+0x20a898>
  402326:	68 48 00 00 00       	pushq  $0x48
  40232b:	e9 60 fb ff ff       	jmpq   401e90 <__ctype_toupper_loc@plt-0x10>

0000000000402330 <fchdir@plt>:
  402330:	ff 25 2a 7f 21 00    	jmpq   *0x217f2a(%rip)        # 61a260 <fts_children+0x20a8a0>
  402336:	68 49 00 00 00       	pushq  $0x49
  40233b:	e9 50 fb ff ff       	jmpq   401e90 <__ctype_toupper_loc@plt-0x10>

0000000000402340 <realloc@plt>:
  402340:	ff 25 22 7f 21 00    	jmpq   *0x217f22(%rip)        # 61a268 <fts_children+0x20a8a8>
  402346:	68 4a 00 00 00       	pushq  $0x4a
  40234b:	e9 40 fb ff ff       	jmpq   401e90 <__ctype_toupper_loc@plt-0x10>

0000000000402350 <fdopen@plt>:
  402350:	ff 25 1a 7f 21 00    	jmpq   *0x217f1a(%rip)        # 61a270 <fts_children+0x20a8b0>
  402356:	68 4b 00 00 00       	pushq  $0x4b
  40235b:	e9 30 fb ff ff       	jmpq   401e90 <__ctype_toupper_loc@plt-0x10>

0000000000402360 <setlocale@plt>:
  402360:	ff 25 12 7f 21 00    	jmpq   *0x217f12(%rip)        # 61a278 <fts_children+0x20a8b8>
  402366:	68 4c 00 00 00       	pushq  $0x4c
  40236b:	e9 20 fb ff ff       	jmpq   401e90 <__ctype_toupper_loc@plt-0x10>

0000000000402370 <__printf_chk@plt>:
  402370:	ff 25 0a 7f 21 00    	jmpq   *0x217f0a(%rip)        # 61a280 <fts_children+0x20a8c0>
  402376:	68 4d 00 00 00       	pushq  $0x4d
  40237b:	e9 10 fb ff ff       	jmpq   401e90 <__ctype_toupper_loc@plt-0x10>

0000000000402380 <iconv_close@plt>:
  402380:	ff 25 02 7f 21 00    	jmpq   *0x217f02(%rip)        # 61a288 <fts_children+0x20a8c8>
  402386:	68 4e 00 00 00       	pushq  $0x4e
  40238b:	e9 00 fb ff ff       	jmpq   401e90 <__ctype_toupper_loc@plt-0x10>

0000000000402390 <iswspace@plt>:
  402390:	ff 25 fa 7e 21 00    	jmpq   *0x217efa(%rip)        # 61a290 <fts_children+0x20a8d0>
  402396:	68 4f 00 00 00       	pushq  $0x4f
  40239b:	e9 f0 fa ff ff       	jmpq   401e90 <__ctype_toupper_loc@plt-0x10>

00000000004023a0 <strftime@plt>:
  4023a0:	ff 25 f2 7e 21 00    	jmpq   *0x217ef2(%rip)        # 61a298 <fts_children+0x20a8d8>
  4023a6:	68 50 00 00 00       	pushq  $0x50
  4023ab:	e9 e0 fa ff ff       	jmpq   401e90 <__ctype_toupper_loc@plt-0x10>

00000000004023b0 <memmove@plt>:
  4023b0:	ff 25 ea 7e 21 00    	jmpq   *0x217eea(%rip)        # 61a2a0 <fts_children+0x20a8e0>
  4023b6:	68 51 00 00 00       	pushq  $0x51
  4023bb:	e9 d0 fa ff ff       	jmpq   401e90 <__ctype_toupper_loc@plt-0x10>

00000000004023c0 <error@plt>:
  4023c0:	ff 25 e2 7e 21 00    	jmpq   *0x217ee2(%rip)        # 61a2a8 <fts_children+0x20a8e8>
  4023c6:	68 52 00 00 00       	pushq  $0x52
  4023cb:	e9 c0 fa ff ff       	jmpq   401e90 <__ctype_toupper_loc@plt-0x10>

00000000004023d0 <open@plt>:
  4023d0:	ff 25 da 7e 21 00    	jmpq   *0x217eda(%rip)        # 61a2b0 <fts_children+0x20a8f0>
  4023d6:	68 53 00 00 00       	pushq  $0x53
  4023db:	e9 b0 fa ff ff       	jmpq   401e90 <__ctype_toupper_loc@plt-0x10>

00000000004023e0 <fseeko@plt>:
  4023e0:	ff 25 d2 7e 21 00    	jmpq   *0x217ed2(%rip)        # 61a2b8 <fts_children+0x20a8f8>
  4023e6:	68 54 00 00 00       	pushq  $0x54
  4023eb:	e9 a0 fa ff ff       	jmpq   401e90 <__ctype_toupper_loc@plt-0x10>

00000000004023f0 <fopen@plt>:
  4023f0:	ff 25 ca 7e 21 00    	jmpq   *0x217eca(%rip)        # 61a2c0 <fts_children+0x20a900>
  4023f6:	68 55 00 00 00       	pushq  $0x55
  4023fb:	e9 90 fa ff ff       	jmpq   401e90 <__ctype_toupper_loc@plt-0x10>

0000000000402400 <towlower@plt>:
  402400:	ff 25 c2 7e 21 00    	jmpq   *0x217ec2(%rip)        # 61a2c8 <fts_children+0x20a908>
  402406:	68 56 00 00 00       	pushq  $0x56
  40240b:	e9 80 fa ff ff       	jmpq   401e90 <__ctype_toupper_loc@plt-0x10>

0000000000402410 <fdopendir@plt>:
  402410:	ff 25 ba 7e 21 00    	jmpq   *0x217eba(%rip)        # 61a2d0 <fts_children+0x20a910>
  402416:	68 57 00 00 00       	pushq  $0x57
  40241b:	e9 70 fa ff ff       	jmpq   401e90 <__ctype_toupper_loc@plt-0x10>

0000000000402420 <strtoul@plt>:
  402420:	ff 25 b2 7e 21 00    	jmpq   *0x217eb2(%rip)        # 61a2d8 <fts_children+0x20a918>
  402426:	68 58 00 00 00       	pushq  $0x58
  40242b:	e9 60 fa ff ff       	jmpq   401e90 <__ctype_toupper_loc@plt-0x10>

0000000000402430 <fstatfs@plt>:
  402430:	ff 25 aa 7e 21 00    	jmpq   *0x217eaa(%rip)        # 61a2e0 <fts_children+0x20a920>
  402436:	68 59 00 00 00       	pushq  $0x59
  40243b:	e9 50 fa ff ff       	jmpq   401e90 <__ctype_toupper_loc@plt-0x10>

0000000000402440 <__cxa_atexit@plt>:
  402440:	ff 25 a2 7e 21 00    	jmpq   *0x217ea2(%rip)        # 61a2e8 <fts_children+0x20a928>
  402446:	68 5a 00 00 00       	pushq  $0x5a
  40244b:	e9 40 fa ff ff       	jmpq   401e90 <__ctype_toupper_loc@plt-0x10>

0000000000402450 <exit@plt>:
  402450:	ff 25 9a 7e 21 00    	jmpq   *0x217e9a(%rip)        # 61a2f0 <fts_children+0x20a930>
  402456:	68 5b 00 00 00       	pushq  $0x5b
  40245b:	e9 30 fa ff ff       	jmpq   401e90 <__ctype_toupper_loc@plt-0x10>

0000000000402460 <fwrite@plt>:
  402460:	ff 25 92 7e 21 00    	jmpq   *0x217e92(%rip)        # 61a2f8 <fts_children+0x20a938>
  402466:	68 5c 00 00 00       	pushq  $0x5c
  40246b:	e9 20 fa ff ff       	jmpq   401e90 <__ctype_toupper_loc@plt-0x10>

0000000000402470 <__fprintf_chk@plt>:
  402470:	ff 25 8a 7e 21 00    	jmpq   *0x217e8a(%rip)        # 61a300 <fts_children+0x20a940>
  402476:	68 5d 00 00 00       	pushq  $0x5d
  40247b:	e9 10 fa ff ff       	jmpq   401e90 <__ctype_toupper_loc@plt-0x10>

0000000000402480 <fflush_unlocked@plt>:
  402480:	ff 25 82 7e 21 00    	jmpq   *0x217e82(%rip)        # 61a308 <fts_children+0x20a948>
  402486:	68 5e 00 00 00       	pushq  $0x5e
  40248b:	e9 00 fa ff ff       	jmpq   401e90 <__ctype_toupper_loc@plt-0x10>

0000000000402490 <mbsinit@plt>:
  402490:	ff 25 7a 7e 21 00    	jmpq   *0x217e7a(%rip)        # 61a310 <fts_children+0x20a950>
  402496:	68 5f 00 00 00       	pushq  $0x5f
  40249b:	e9 f0 f9 ff ff       	jmpq   401e90 <__ctype_toupper_loc@plt-0x10>

00000000004024a0 <iswprint@plt>:
  4024a0:	ff 25 72 7e 21 00    	jmpq   *0x217e72(%rip)        # 61a318 <fts_children+0x20a958>
  4024a6:	68 60 00 00 00       	pushq  $0x60
  4024ab:	e9 e0 f9 ff ff       	jmpq   401e90 <__ctype_toupper_loc@plt-0x10>

00000000004024b0 <getdelim@plt>:
  4024b0:	ff 25 6a 7e 21 00    	jmpq   *0x217e6a(%rip)        # 61a320 <fts_children+0x20a960>
  4024b6:	68 61 00 00 00       	pushq  $0x61
  4024bb:	e9 d0 f9 ff ff       	jmpq   401e90 <__ctype_toupper_loc@plt-0x10>

00000000004024c0 <strstr@plt>:
  4024c0:	ff 25 62 7e 21 00    	jmpq   *0x217e62(%rip)        # 61a328 <fts_children+0x20a968>
  4024c6:	68 62 00 00 00       	pushq  $0x62
  4024cb:	e9 c0 f9 ff ff       	jmpq   401e90 <__ctype_toupper_loc@plt-0x10>

00000000004024d0 <__ctype_tolower_loc@plt>:
  4024d0:	ff 25 5a 7e 21 00    	jmpq   *0x217e5a(%rip)        # 61a330 <fts_children+0x20a970>
  4024d6:	68 63 00 00 00       	pushq  $0x63
  4024db:	e9 b0 f9 ff ff       	jmpq   401e90 <__ctype_toupper_loc@plt-0x10>

00000000004024e0 <__ctype_b_loc@plt>:
  4024e0:	ff 25 52 7e 21 00    	jmpq   *0x217e52(%rip)        # 61a338 <fts_children+0x20a978>
  4024e6:	68 64 00 00 00       	pushq  $0x64
  4024eb:	e9 a0 f9 ff ff       	jmpq   401e90 <__ctype_toupper_loc@plt-0x10>

00000000004024f0 <iconv_open@plt>:
  4024f0:	ff 25 4a 7e 21 00    	jmpq   *0x217e4a(%rip)        # 61a340 <fts_children+0x20a980>
  4024f6:	68 65 00 00 00       	pushq  $0x65
  4024fb:	e9 90 f9 ff ff       	jmpq   401e90 <__ctype_toupper_loc@plt-0x10>

0000000000402500 <__sprintf_chk@plt>:
  402500:	ff 25 42 7e 21 00    	jmpq   *0x217e42(%rip)        # 61a348 <fts_children+0x20a988>
  402506:	68 66 00 00 00       	pushq  $0x66
  40250b:	e9 80 f9 ff ff       	jmpq   401e90 <__ctype_toupper_loc@plt-0x10>

Disassembly of section .text:

0000000000402510 <fts_open-0xc6b0>:
  402510:	41 57                	push   %r15
  402512:	45 31 ff             	xor    %r15d,%r15d
  402515:	41 56                	push   %r14
  402517:	41 be 08 00 00 00    	mov    $0x8,%r14d
  40251d:	41 55                	push   %r13
  40251f:	45 31 ed             	xor    %r13d,%r13d
  402522:	41 54                	push   %r12
  402524:	41 bc 10 00 00 00    	mov    $0x10,%r12d
  40252a:	55                   	push   %rbp
  40252b:	89 fd                	mov    %edi,%ebp
  40252d:	53                   	push   %rbx
  40252e:	48 89 f3             	mov    %rsi,%rbx
  402531:	48 81 ec 28 01 00 00 	sub    $0x128,%rsp
  402538:	48 8b 3e             	mov    (%rsi),%rdi
  40253b:	48 c7 44 24 60 84 66 	movq   $0x416684,0x60(%rsp)
  402542:	41 00 
  402544:	48 c7 44 24 68 00 00 	movq   $0x0,0x68(%rsp)
  40254b:	00 00 
  40254d:	e8 0e 70 00 00       	callq  409560 <__sprintf_chk@plt+0x7060>
  402552:	be ab 5d 41 00       	mov    $0x415dab,%esi
  402557:	bf 06 00 00 00       	mov    $0x6,%edi
  40255c:	e8 ff fd ff ff       	callq  402360 <setlocale@plt>
  402561:	be 41 31 41 00       	mov    $0x413141,%esi
  402566:	bf 33 31 41 00       	mov    $0x413133,%edi
  40256b:	e8 70 fa ff ff       	callq  401fe0 <bindtextdomain@plt>
  402570:	bf 33 31 41 00       	mov    $0x413133,%edi
  402575:	e8 36 fa ff ff       	callq  401fb0 <textdomain@plt>
  40257a:	bf 10 43 40 00       	mov    $0x404310,%edi
  40257f:	e8 fc 0a 01 00       	callq  413080 <fts_children+0x36c0>
  402584:	e8 07 26 00 00       	callq  404b90 <__sprintf_chk@plt+0x2690>
  402589:	bf 53 31 41 00       	mov    $0x413153,%edi
  40258e:	48 89 05 03 7f 21 00 	mov    %rax,0x217f03(%rip)        # 61a498 <stderr+0x48>
  402595:	e8 26 f9 ff ff       	callq  401ec0 <getenv@plt>
  40259a:	ba a0 a4 61 00       	mov    $0x61a4a0,%edx
  40259f:	be c0 a4 61 00       	mov    $0x61a4c0,%esi
  4025a4:	48 89 c7             	mov    %rax,%rdi
  4025a7:	e8 54 64 00 00       	callq  408a00 <__sprintf_chk@plt+0x6500>
  4025ac:	c6 44 24 18 01       	movb   $0x1,0x18(%rsp)
  4025b1:	c6 44 24 20 00       	movb   $0x0,0x20(%rsp)
  4025b6:	66 2e 0f 1f 84 00 00 	nopw   %cs:0x0(%rax,%rax,1)
  4025bd:	00 00 00 
  4025c0:	4c 8d 44 24 70       	lea    0x70(%rsp),%r8
  4025c5:	b9 60 4e 41 00       	mov    $0x414e60,%ecx
  4025ca:	ba 61 31 41 00       	mov    $0x413161,%edx
  4025cf:	48 89 de             	mov    %rbx,%rsi
  4025d2:	89 ef                	mov    %ebp,%edi
  4025d4:	c7 44 24 70 ff ff ff 	movl   $0xffffffff,0x70(%rsp)
  4025db:	ff 
  4025dc:	e8 6f fa ff ff       	callq  402050 <getopt_long@plt>
  4025e1:	83 f8 ff             	cmp    $0xffffffff,%eax
  4025e4:	0f 84 45 03 00 00    	je     40292f <__sprintf_chk@plt+0x42f>
  4025ea:	05 83 00 00 00       	add    $0x83,%eax
  4025ef:	3d 09 01 00 00       	cmp    $0x109,%eax
  4025f4:	0f 87 2b 03 00 00    	ja     402925 <__sprintf_chk@plt+0x425>
  4025fa:	ff 24 c5 60 45 41 00 	jmpq   *0x414560(,%rax,8)
  402601:	41 be 48 00 00 00    	mov    $0x48,%r14d
  402607:	eb b7                	jmp    4025c0 <__sprintf_chk@plt+0xc0>
  402609:	48 8b 3d 30 7e 21 00 	mov    0x217e30(%rip),%rdi        # 61a440 <optarg>
  402610:	31 d2                	xor    %edx,%edx
  402612:	31 f6                	xor    %esi,%esi
  402614:	41 b8 92 31 41 00    	mov    $0x413192,%r8d
  40261a:	b9 c8 a4 61 00       	mov    $0x61a4c8,%ecx
  40261f:	e8 ac a0 00 00       	callq  40c6d0 <__sprintf_chk@plt+0xa1d0>
  402624:	85 c0                	test   %eax,%eax
  402626:	0f 85 54 10 00 00    	jne    403680 <__sprintf_chk@plt+0x1180>
  40262c:	48 83 3d 94 7e 21 00 	cmpq   $0x0,0x217e94(%rip)        # 61a4c8 <stderr+0x78>
  402633:	00 
  402634:	75 8a                	jne    4025c0 <__sprintf_chk@plt+0xc0>
  402636:	48 8b 05 03 7e 21 00 	mov    0x217e03(%rip),%rax        # 61a440 <optarg>
  40263d:	80 38 2d             	cmpb   $0x2d,(%rax)
  402640:	0f 85 7a ff ff ff    	jne    4025c0 <__sprintf_chk@plt+0xc0>
  402646:	31 ff                	xor    %edi,%edi
  402648:	ba 05 00 00 00       	mov    $0x5,%edx
  40264d:	be f8 42 41 00       	mov    $0x4142f8,%esi
  402652:	e8 99 f9 ff ff       	callq  401ff0 <dcgettext@plt>
  402657:	31 f6                	xor    %esi,%esi
  402659:	48 89 c2             	mov    %rax,%rdx
  40265c:	bf 01 00 00 00       	mov    $0x1,%edi
  402661:	31 c0                	xor    %eax,%eax
  402663:	e8 58 fd ff ff       	callq  4023c0 <error@plt>
  402668:	e9 53 ff ff ff       	jmpq   4025c0 <__sprintf_chk@plt+0xc0>
  40266d:	41 bd 01 00 00 00    	mov    $0x1,%r13d
  402673:	e9 48 ff ff ff       	jmpq   4025c0 <__sprintf_chk@plt+0xc0>
  402678:	c7 05 3e 7e 21 00 00 	movl   $0x0,0x217e3e(%rip)        # 61a4c0 <stderr+0x70>
  40267f:	00 00 00 
  402682:	48 c7 05 13 7e 21 00 	movq   $0x100000,0x217e13(%rip)        # 61a4a0 <stderr+0x50>
  402689:	00 00 10 00 
  40268d:	e9 2e ff ff ff       	jmpq   4025c0 <__sprintf_chk@plt+0xc0>
  402692:	c6 05 3b 7e 21 00 01 	movb   $0x1,0x217e3b(%rip)        # 61a4d4 <stderr+0x84>
  402699:	e9 22 ff ff ff       	jmpq   4025c0 <__sprintf_chk@plt+0xc0>
  40269e:	c7 05 18 7e 21 00 00 	movl   $0x0,0x217e18(%rip)        # 61a4c0 <stderr+0x70>
  4026a5:	00 00 00 
  4026a8:	48 c7 05 ed 7d 21 00 	movq   $0x400,0x217ded(%rip)        # 61a4a0 <stderr+0x50>
  4026af:	00 04 00 00 
  4026b3:	e9 08 ff ff ff       	jmpq   4025c0 <__sprintf_chk@plt+0xc0>
  4026b8:	c7 05 fe 7d 21 00 b0 	movl   $0xb0,0x217dfe(%rip)        # 61a4c0 <stderr+0x70>
  4026bf:	00 00 00 
  4026c2:	48 c7 05 d3 7d 21 00 	movq   $0x1,0x217dd3(%rip)        # 61a4a0 <stderr+0x50>
  4026c9:	01 00 00 00 
  4026cd:	e9 ee fe ff ff       	jmpq   4025c0 <__sprintf_chk@plt+0xc0>
  4026d2:	48 8b 3d 67 7d 21 00 	mov    0x217d67(%rip),%rdi        # 61a440 <optarg>
  4026d9:	48 8d 8c 24 90 00 00 	lea    0x90(%rsp),%rcx
  4026e0:	00 
  4026e1:	45 31 c0             	xor    %r8d,%r8d
  4026e4:	31 d2                	xor    %edx,%edx
  4026e6:	31 f6                	xor    %esi,%esi
  4026e8:	e8 e3 a6 00 00       	callq  40cdd0 <__sprintf_chk@plt+0xa8d0>
  4026ed:	85 c0                	test   %eax,%eax
  4026ef:	0f 85 3c 04 00 00    	jne    402b31 <__sprintf_chk@plt+0x631>
  4026f5:	48 8b 84 24 90 00 00 	mov    0x90(%rsp),%rax
  4026fc:	00 
  4026fd:	c6 44 24 20 01       	movb   $0x1,0x20(%rsp)
  402702:	48 89 05 67 7c 21 00 	mov    %rax,0x217c67(%rip)        # 61a370 <fts_children+0x20a9b0>
  402709:	e9 b2 fe ff ff       	jmpq   4025c0 <__sprintf_chk@plt+0xc0>
  40270e:	c6 05 bc 7d 21 00 01 	movb   $0x1,0x217dbc(%rip)        # 61a4d1 <stderr+0x81>
  402715:	e9 a6 fe ff ff       	jmpq   4025c0 <__sprintf_chk@plt+0xc0>
  40271a:	c6 05 b4 7d 21 00 01 	movb   $0x1,0x217db4(%rip)        # 61a4d5 <stderr+0x85>
  402721:	c7 05 95 7d 21 00 00 	movl   $0x0,0x217d95(%rip)        # 61a4c0 <stderr+0x70>
  402728:	00 00 00 
  40272b:	48 c7 05 6a 7d 21 00 	movq   $0x1,0x217d6a(%rip)        # 61a4a0 <stderr+0x50>
  402732:	01 00 00 00 
  402736:	e9 85 fe ff ff       	jmpq   4025c0 <__sprintf_chk@plt+0xc0>
  40273b:	c6 05 94 7d 21 00 01 	movb   $0x1,0x217d94(%rip)        # 61a4d6 <stderr+0x86>
  402742:	e9 79 fe ff ff       	jmpq   4025c0 <__sprintf_chk@plt+0xc0>
  402747:	48 8b 15 f2 7c 21 00 	mov    0x217cf2(%rip),%rdx        # 61a440 <optarg>
  40274e:	48 8b 35 43 7d 21 00 	mov    0x217d43(%rip),%rsi        # 61a498 <stderr+0x48>
  402755:	41 b8 0a 00 00 00    	mov    $0xa,%r8d
  40275b:	b9 00 00 00 10       	mov    $0x10000000,%ecx
  402760:	bf 30 4e 40 00       	mov    $0x404e30,%edi
  402765:	e8 c6 28 00 00       	callq  405030 <__sprintf_chk@plt+0x2b30>
  40276a:	85 c0                	test   %eax,%eax
  40276c:	0f 84 4e fe ff ff    	je     4025c0 <__sprintf_chk@plt+0xc0>
  402772:	48 8b 3d c7 7c 21 00 	mov    0x217cc7(%rip),%rdi        # 61a440 <optarg>
  402779:	e8 82 8e 00 00       	callq  40b600 <__sprintf_chk@plt+0x9100>
  40277e:	48 89 44 24 18       	mov    %rax,0x18(%rsp)
  402783:	e8 88 f7 ff ff       	callq  401f10 <__errno_location@plt>
  402788:	48 8b 4c 24 18       	mov    0x18(%rsp),%rcx
  40278d:	8b 30                	mov    (%rax),%esi
  40278f:	ba dc 51 41 00       	mov    $0x4151dc,%edx
  402794:	31 ff                	xor    %edi,%edi
  402796:	31 c0                	xor    %eax,%eax
  402798:	e8 23 fc ff ff       	callq  4023c0 <error@plt>
  40279d:	c6 44 24 18 00       	movb   $0x0,0x18(%rsp)
  4027a2:	e9 19 fe ff ff       	jmpq   4025c0 <__sprintf_chk@plt+0xc0>
  4027a7:	c6 05 22 7d 21 00 01 	movb   $0x1,0x217d22(%rip)        # 61a4d0 <stderr+0x80>
  4027ae:	e9 0d fe ff ff       	jmpq   4025c0 <__sprintf_chk@plt+0xc0>
  4027b3:	41 bc 10 00 00 00    	mov    $0x10,%r12d
  4027b9:	e9 02 fe ff ff       	jmpq   4025c0 <__sprintf_chk@plt+0xc0>
  4027be:	41 bc 02 00 00 00    	mov    $0x2,%r12d
  4027c4:	e9 f7 fd ff ff       	jmpq   4025c0 <__sprintf_chk@plt+0xc0>
  4027c9:	41 bc 11 00 00 00    	mov    $0x11,%r12d
  4027cf:	e9 ec fd ff ff       	jmpq   4025c0 <__sprintf_chk@plt+0xc0>
  4027d4:	48 8b 3d 65 7c 21 00 	mov    0x217c65(%rip),%rdi        # 61a440 <optarg>
  4027db:	ba a0 a4 61 00       	mov    $0x61a4a0,%edx
  4027e0:	be c0 a4 61 00       	mov    $0x61a4c0,%esi
  4027e5:	e8 16 62 00 00       	callq  408a00 <__sprintf_chk@plt+0x6500>
  4027ea:	85 c0                	test   %eax,%eax
  4027ec:	0f 84 ce fd ff ff    	je     4025c0 <__sprintf_chk@plt+0xc0>
  4027f2:	4c 8b 05 47 7c 21 00 	mov    0x217c47(%rip),%r8        # 61a440 <optarg>
  4027f9:	8b 74 24 70          	mov    0x70(%rsp),%esi
  4027fd:	b9 60 4e 41 00       	mov    $0x414e60,%ecx
  402802:	ba 42 00 00 00       	mov    $0x42,%edx
  402807:	89 c7                	mov    %eax,%edi
  402809:	e8 02 aa 00 00       	callq  40d210 <__sprintf_chk@plt+0xad10>
  40280e:	c6 05 bd 7c 21 00 01 	movb   $0x1,0x217cbd(%rip)        # 61a4d2 <stderr+0x82>
  402815:	e9 a6 fd ff ff       	jmpq   4025c0 <__sprintf_chk@plt+0xc0>
  40281a:	31 ff                	xor    %edi,%edi
  40281c:	e8 9f 12 00 00       	callq  403ac0 <__sprintf_chk@plt+0x15c0>
  402821:	be a5 31 41 00       	mov    $0x4131a5,%esi
  402826:	bf b8 31 41 00       	mov    $0x4131b8,%edi
  40282b:	e8 70 77 00 00       	callq  409fa0 <__sprintf_chk@plt+0x7aa0>
  402830:	48 8b 3d d9 7b 21 00 	mov    0x217bd9(%rip),%rdi        # 61a410 <stdout>
  402837:	48 8b 0d 3a 7b 21 00 	mov    0x217b3a(%rip),%rcx        # 61a378 <fts_children+0x20a9b8>
  40283e:	49 89 c0             	mov    %rax,%r8
  402841:	48 c7 44 24 10 00 00 	movq   $0x0,0x10(%rsp)
  402848:	00 00 
  40284a:	48 c7 44 24 08 dd 31 	movq   $0x4131dd,0x8(%rsp)
  402851:	41 00 
  402853:	41 b9 ca 31 41 00    	mov    $0x4131ca,%r9d
  402859:	48 c7 04 24 ea 31 41 	movq   $0x4131ea,(%rsp)
  402860:	00 
  402861:	ba 2f 31 41 00       	mov    $0x41312f,%edx
  402866:	be da 31 41 00       	mov    $0x4131da,%esi
  40286b:	31 c0                	xor    %eax,%eax
  40286d:	e8 fe 99 00 00       	callq  40c270 <__sprintf_chk@plt+0x9d70>
  402872:	31 ff                	xor    %edi,%edi
  402874:	e8 d7 fb ff ff       	callq  402450 <exit@plt>
  402879:	48 8b 05 c0 7b 21 00 	mov    0x217bc0(%rip),%rax        # 61a440 <optarg>
  402880:	48 89 05 29 7c 21 00 	mov    %rax,0x217c29(%rip)        # 61a4b0 <stderr+0x60>
  402887:	e9 34 fd ff ff       	jmpq   4025c0 <__sprintf_chk@plt+0xc0>
  40288c:	48 8b 35 ad 7b 21 00 	mov    0x217bad(%rip),%rsi        # 61a440 <optarg>
  402893:	c6 05 22 7c 21 00 01 	movb   $0x1,0x217c22(%rip)        # 61a4bc <stderr+0x6c>
  40289a:	48 85 f6             	test   %rsi,%rsi
  40289d:	0f 84 87 02 00 00    	je     402b2a <__sprintf_chk@plt+0x62a>
  4028a3:	4c 8b 0d d6 7a 21 00 	mov    0x217ad6(%rip),%r9        # 61a380 <fts_children+0x20a9c0>
  4028aa:	41 b8 04 00 00 00    	mov    $0x4,%r8d
  4028b0:	b9 00 4e 41 00       	mov    $0x414e00,%ecx
  4028b5:	ba 20 4e 41 00       	mov    $0x414e20,%edx
  4028ba:	bf 9e 31 41 00       	mov    $0x41319e,%edi
  4028bf:	e8 2c 18 00 00       	callq  4040f0 <__sprintf_chk@plt+0x1bf0>
  4028c4:	8b 04 85 00 4e 41 00 	mov    0x414e00(,%rax,4),%eax
  4028cb:	89 05 e7 7b 21 00    	mov    %eax,0x217be7(%rip)        # 61a4b8 <stderr+0x68>
  4028d1:	e9 ea fc ff ff       	jmpq   4025c0 <__sprintf_chk@plt+0xc0>
  4028d6:	c7 05 e0 7b 21 00 90 	movl   $0x90,0x217be0(%rip)        # 61a4c0 <stderr+0x70>
  4028dd:	00 00 00 
  4028e0:	48 c7 05 b5 7b 21 00 	movq   $0x1,0x217bb5(%rip)        # 61a4a0 <stderr+0x50>
  4028e7:	01 00 00 00 
  4028eb:	e9 d0 fc ff ff       	jmpq   4025c0 <__sprintf_chk@plt+0xc0>
  4028f0:	4c 8b 3d 49 7b 21 00 	mov    0x217b49(%rip),%r15        # 61a440 <optarg>
  4028f7:	e9 c4 fc ff ff       	jmpq   4025c0 <__sprintf_chk@plt+0xc0>
  4028fc:	48 8b 35 3d 7b 21 00 	mov    0x217b3d(%rip),%rsi        # 61a440 <optarg>
  402903:	48 8b 3d 8e 7b 21 00 	mov    0x217b8e(%rip),%rdi        # 61a498 <stderr+0x48>
  40290a:	ba 00 00 00 10       	mov    $0x10000000,%edx
  40290f:	e8 1c 25 00 00       	callq  404e30 <__sprintf_chk@plt+0x2930>
  402914:	e9 a7 fc ff ff       	jmpq   4025c0 <__sprintf_chk@plt+0xc0>
  402919:	c6 05 b5 7b 21 00 01 	movb   $0x1,0x217bb5(%rip)        # 61a4d5 <stderr+0x85>
  402920:	e9 9b fc ff ff       	jmpq   4025c0 <__sprintf_chk@plt+0xc0>
  402925:	c6 44 24 18 00       	movb   $0x0,0x18(%rsp)
  40292a:	e9 91 fc ff ff       	jmpq   4025c0 <__sprintf_chk@plt+0xc0>
  40292f:	80 7c 24 18 00       	cmpb   $0x0,0x18(%rsp)
  402934:	0f 84 96 01 00 00    	je     402ad0 <__sprintf_chk@plt+0x5d0>
  40293a:	80 3d 95 7b 21 00 00 	cmpb   $0x0,0x217b95(%rip)        # 61a4d6 <stderr+0x86>
  402941:	0f 84 93 01 00 00    	je     402ada <__sprintf_chk@plt+0x5da>
  402947:	45 84 ed             	test   %r13b,%r13b
  40294a:	0f 85 61 01 00 00    	jne    402ab1 <__sprintf_chk@plt+0x5b1>
  402950:	80 3d 65 7b 21 00 00 	cmpb   $0x0,0x217b65(%rip)        # 61a4bc <stderr+0x6c>
  402957:	74 6d                	je     4029c6 <__sprintf_chk@plt+0x4c6>
  402959:	48 83 3d 4f 7b 21 00 	cmpq   $0x0,0x217b4f(%rip)        # 61a4b0 <stderr+0x60>
  402960:	00 
  402961:	0f 84 9e 0d 00 00    	je     403705 <__sprintf_chk@plt+0x1205>
  402967:	4c 8b 2d 42 7b 21 00 	mov    0x217b42(%rip),%r13        # 61a4b0 <stderr+0x60>
  40296e:	41 80 7d 00 2b       	cmpb   $0x2b,0x0(%r13)
  402973:	4c 89 e8             	mov    %r13,%rax
  402976:	0f 84 90 02 00 00    	je     402c0c <__sprintf_chk@plt+0x70c>
  40297c:	4c 8b 0d fd 79 21 00 	mov    0x2179fd(%rip),%r9        # 61a380 <fts_children+0x20a9c0>
  402983:	41 b8 04 00 00 00    	mov    $0x4,%r8d
  402989:	b9 cc 4d 41 00       	mov    $0x414dcc,%ecx
  40298e:	ba e0 4d 41 00       	mov    $0x414de0,%edx
  402993:	4c 89 ee             	mov    %r13,%rsi
  402996:	bf 0a 32 41 00       	mov    $0x41320a,%edi
  40299b:	e8 50 17 00 00       	callq  4040f0 <__sprintf_chk@plt+0x1bf0>
  4029a0:	8b 04 85 cc 4d 41 00 	mov    0x414dcc(,%rax,4),%eax
  4029a7:	83 f8 01             	cmp    $0x1,%eax
  4029aa:	0f 84 fc 0c 00 00    	je     4036ac <__sprintf_chk@plt+0x11ac>
  4029b0:	0f 82 e6 0c 00 00    	jb     40369c <__sprintf_chk@plt+0x119c>
  4029b6:	83 f8 02             	cmp    $0x2,%eax
  4029b9:	75 0b                	jne    4029c6 <__sprintf_chk@plt+0x4c6>
  4029bb:	48 c7 05 e2 7a 21 00 	movq   $0x41323c,0x217ae2(%rip)        # 61a4a8 <stderr+0x58>
  4029c2:	3c 32 41 00 
  4029c6:	4d 85 ff             	test   %r15,%r15
  4029c9:	48 63 05 50 7a 21 00 	movslq 0x217a50(%rip),%rax        # 61a420 <optind>
  4029d0:	0f 84 2c 0c 00 00    	je     403602 <__sprintf_chk@plt+0x1102>
  4029d6:	39 c5                	cmp    %eax,%ebp
  4029d8:	0f 8f c0 0b 00 00    	jg     40359e <__sprintf_chk@plt+0x109e>
  4029de:	41 80 3f 2d          	cmpb   $0x2d,(%r15)
  4029e2:	0f 85 88 01 00 00    	jne    402b70 <__sprintf_chk@plt+0x670>
  4029e8:	41 80 7f 01 00       	cmpb   $0x0,0x1(%r15)
  4029ed:	0f 85 7d 01 00 00    	jne    402b70 <__sprintf_chk@plt+0x670>
  4029f3:	48 8b 3d 1e 7a 21 00 	mov    0x217a1e(%rip),%rdi        # 61a418 <stdin>
  4029fa:	e8 e1 17 00 00       	callq  4041e0 <__sprintf_chk@plt+0x1ce0>
  4029ff:	c6 05 cd 7a 21 00 01 	movb   $0x1,0x217acd(%rip)        # 61a4d3 <stderr+0x83>
  402a06:	48 89 44 24 20       	mov    %rax,0x20(%rsp)
  402a0b:	48 83 7c 24 20 00    	cmpq   $0x0,0x20(%rsp)
  402a11:	0f 84 95 00 00 00    	je     402aac <__sprintf_chk@plt+0x5ac>
  402a17:	e8 14 1b 00 00       	callq  404530 <__sprintf_chk@plt+0x2030>
  402a1c:	48 85 c0             	test   %rax,%rax
  402a1f:	48 89 05 ba 7a 21 00 	mov    %rax,0x217aba(%rip)        # 61a4e0 <stderr+0x90>
  402a26:	0f 84 80 00 00 00    	je     402aac <__sprintf_chk@plt+0x5ac>
  402a2c:	31 ff                	xor    %edi,%edi
  402a2e:	e8 ed d1 00 00       	callq  40fc20 <fts_children+0x260>
  402a33:	48 89 c5             	mov    %rax,%rbp
  402a36:	eb 2b                	jmp    402a63 <__sprintf_chk@plt+0x563>
  402a38:	48 8b 7d 00          	mov    0x0(%rbp),%rdi
  402a3c:	48 8b 5d 30          	mov    0x30(%rbp),%rbx
  402a40:	e8 8b f4 ff ff       	callq  401ed0 <free@plt>
  402a45:	48 8b 7d 08          	mov    0x8(%rbp),%rdi
  402a49:	e8 82 f4 ff ff       	callq  401ed0 <free@plt>
  402a4e:	f6 45 28 04          	testb  $0x4,0x28(%rbp)
  402a52:	0f 85 c4 01 00 00    	jne    402c1c <__sprintf_chk@plt+0x71c>
  402a58:	48 89 ef             	mov    %rbp,%rdi
  402a5b:	48 89 dd             	mov    %rbx,%rbp
  402a5e:	e8 6d f4 ff ff       	callq  401ed0 <free@plt>
  402a63:	48 85 ed             	test   %rbp,%rbp
  402a66:	0f 84 be 01 00 00    	je     402c2a <__sprintf_chk@plt+0x72a>
  402a6c:	f6 45 28 03          	testb  $0x3,0x28(%rbp)
  402a70:	75 c6                	jne    402a38 <__sprintf_chk@plt+0x538>
  402a72:	48 8b 75 08          	mov    0x8(%rbp),%rsi
  402a76:	48 8d 94 24 90 00 00 	lea    0x90(%rsp),%rdx
  402a7d:	00 
  402a7e:	bf 01 00 00 00       	mov    $0x1,%edi
  402a83:	e8 c8 f7 ff ff       	callq  402250 <__xstat@plt>
  402a88:	85 c0                	test   %eax,%eax
  402a8a:	75 ac                	jne    402a38 <__sprintf_chk@plt+0x538>
  402a8c:	48 8b 94 24 98 00 00 	mov    0x98(%rsp),%rdx
  402a93:	00 
  402a94:	48 8b b4 24 90 00 00 	mov    0x90(%rsp),%rsi
  402a9b:	00 
  402a9c:	48 8b 3d 3d 7a 21 00 	mov    0x217a3d(%rip),%rdi        # 61a4e0 <stderr+0x90>
  402aa3:	e8 28 1b 00 00       	callq  4045d0 <__sprintf_chk@plt+0x20d0>
  402aa8:	85 c0                	test   %eax,%eax
  402aaa:	79 8c                	jns    402a38 <__sprintf_chk@plt+0x538>
  402aac:	e8 df 9a 00 00       	callq  40c590 <__sprintf_chk@plt+0xa090>
  402ab1:	ba 05 00 00 00       	mov    $0x5,%edx
  402ab6:	be 20 43 41 00       	mov    $0x414320,%esi
  402abb:	31 ff                	xor    %edi,%edi
  402abd:	e8 2e f5 ff ff       	callq  401ff0 <dcgettext@plt>
  402ac2:	31 f6                	xor    %esi,%esi
  402ac4:	48 89 c2             	mov    %rax,%rdx
  402ac7:	31 ff                	xor    %edi,%edi
  402ac9:	31 c0                	xor    %eax,%eax
  402acb:	e8 f0 f8 ff ff       	callq  4023c0 <error@plt>
  402ad0:	bf 01 00 00 00       	mov    $0x1,%edi
  402ad5:	e8 e6 0f 00 00       	callq  403ac0 <__sprintf_chk@plt+0x15c0>
  402ada:	45 84 ed             	test   %r13b,%r13b
  402add:	0f 84 6d fe ff ff    	je     402950 <__sprintf_chk@plt+0x450>
  402ae3:	80 7c 24 20 00       	cmpb   $0x0,0x20(%rsp)
  402ae8:	0f 84 0b 01 00 00    	je     402bf9 <__sprintf_chk@plt+0x6f9>
  402aee:	4c 8b 2d 7b 78 21 00 	mov    0x21787b(%rip),%r13        # 61a370 <fts_children+0x20a9b0>
  402af5:	4d 85 ed             	test   %r13,%r13
  402af8:	0f 84 cc 00 00 00    	je     402bca <__sprintf_chk@plt+0x6ca>
  402afe:	ba 05 00 00 00       	mov    $0x5,%edx
  402b03:	be 88 43 41 00       	mov    $0x414388,%esi
  402b08:	31 ff                	xor    %edi,%edi
  402b0a:	e8 e1 f4 ff ff       	callq  401ff0 <dcgettext@plt>
  402b0f:	31 ff                	xor    %edi,%edi
  402b11:	48 89 c2             	mov    %rax,%rdx
  402b14:	4c 89 e9             	mov    %r13,%rcx
  402b17:	31 f6                	xor    %esi,%esi
  402b19:	31 c0                	xor    %eax,%eax
  402b1b:	e8 a0 f8 ff ff       	callq  4023c0 <error@plt>
  402b20:	bf 01 00 00 00       	mov    $0x1,%edi
  402b25:	e8 96 0f 00 00       	callq  403ac0 <__sprintf_chk@plt+0x15c0>
  402b2a:	31 c0                	xor    %eax,%eax
  402b2c:	e9 9a fd ff ff       	jmpq   4028cb <__sprintf_chk@plt+0x3cb>
  402b31:	48 8b 3d 08 79 21 00 	mov    0x217908(%rip),%rdi        # 61a440 <optarg>
  402b38:	e8 23 8c 00 00       	callq  40b760 <__sprintf_chk@plt+0x9260>
  402b3d:	ba 05 00 00 00       	mov    $0x5,%edx
  402b42:	be 79 31 41 00       	mov    $0x413179,%esi
  402b47:	31 ff                	xor    %edi,%edi
  402b49:	48 89 44 24 18       	mov    %rax,0x18(%rsp)
  402b4e:	e8 9d f4 ff ff       	callq  401ff0 <dcgettext@plt>
  402b53:	48 8b 4c 24 18       	mov    0x18(%rsp),%rcx
  402b58:	48 89 c2             	mov    %rax,%rdx
  402b5b:	31 f6                	xor    %esi,%esi
  402b5d:	31 ff                	xor    %edi,%edi
  402b5f:	31 c0                	xor    %eax,%eax
  402b61:	e8 5a f8 ff ff       	callq  4023c0 <error@plt>
  402b66:	c6 44 24 18 00       	movb   $0x0,0x18(%rsp)
  402b6b:	e9 50 fa ff ff       	jmpq   4025c0 <__sprintf_chk@plt+0xc0>
  402b70:	48 8b 15 a1 78 21 00 	mov    0x2178a1(%rip),%rdx        # 61a418 <stdin>
  402b77:	be 7e 32 41 00       	mov    $0x41327e,%esi
  402b7c:	4c 89 ff             	mov    %r15,%rdi
  402b7f:	e8 ac 40 00 00       	callq  406c30 <__sprintf_chk@plt+0x4730>
  402b84:	48 85 c0             	test   %rax,%rax
  402b87:	0f 85 66 fe ff ff    	jne    4029f3 <__sprintf_chk@plt+0x4f3>
  402b8d:	4c 89 ff             	mov    %r15,%rdi
  402b90:	e8 cb 8b 00 00       	callq  40b760 <__sprintf_chk@plt+0x9260>
  402b95:	31 ff                	xor    %edi,%edi
  402b97:	ba 05 00 00 00       	mov    $0x5,%edx
  402b9c:	be 56 32 41 00       	mov    $0x413256,%esi
  402ba1:	48 89 c5             	mov    %rax,%rbp
  402ba4:	e8 47 f4 ff ff       	callq  401ff0 <dcgettext@plt>
  402ba9:	48 89 c3             	mov    %rax,%rbx
  402bac:	e8 5f f3 ff ff       	callq  401f10 <__errno_location@plt>
  402bb1:	8b 30                	mov    (%rax),%esi
  402bb3:	48 89 e9             	mov    %rbp,%rcx
  402bb6:	48 89 da             	mov    %rbx,%rdx
  402bb9:	bf 01 00 00 00       	mov    $0x1,%edi
  402bbe:	31 c0                	xor    %eax,%eax
  402bc0:	e8 fb f7 ff ff       	callq  4023c0 <error@plt>
  402bc5:	e9 29 fe ff ff       	jmpq   4029f3 <__sprintf_chk@plt+0x4f3>
  402bca:	31 ff                	xor    %edi,%edi
  402bcc:	ba 05 00 00 00       	mov    $0x5,%edx
  402bd1:	be 50 43 41 00       	mov    $0x414350,%esi
  402bd6:	e8 15 f4 ff ff       	callq  401ff0 <dcgettext@plt>
  402bdb:	31 f6                	xor    %esi,%esi
  402bdd:	48 89 c2             	mov    %rax,%rdx
  402be0:	31 ff                	xor    %edi,%edi
  402be2:	31 c0                	xor    %eax,%eax
  402be4:	e8 d7 f7 ff ff       	callq  4023c0 <error@plt>
  402be9:	4c 8b 2d 80 77 21 00 	mov    0x217780(%rip),%r13        # 61a370 <fts_children+0x20a9b0>
  402bf0:	4d 85 ed             	test   %r13,%r13
  402bf3:	0f 85 05 ff ff ff    	jne    402afe <__sprintf_chk@plt+0x5fe>
  402bf9:	48 c7 05 6c 77 21 00 	movq   $0x0,0x21776c(%rip)        # 61a370 <fts_children+0x20a9b0>
  402c00:	00 00 00 00 
  402c04:	e9 47 fd ff ff       	jmpq   402950 <__sprintf_chk@plt+0x450>
  402c09:	4c 89 e8             	mov    %r13,%rax
  402c0c:	48 83 c0 01          	add    $0x1,%rax
  402c10:	48 89 05 91 78 21 00 	mov    %rax,0x217891(%rip)        # 61a4a8 <stderr+0x58>
  402c17:	e9 aa fd ff ff       	jmpq   4029c6 <__sprintf_chk@plt+0x4c6>
  402c1c:	48 8b 7d 18          	mov    0x18(%rbp),%rdi
  402c20:	e8 ab f2 ff ff       	callq  401ed0 <free@plt>
  402c25:	e9 2e fe ff ff       	jmpq   402a58 <__sprintf_chk@plt+0x558>
  402c2a:	e8 01 19 00 00       	callq  404530 <__sprintf_chk@plt+0x2030>
  402c2f:	48 85 c0             	test   %rax,%rax
  402c32:	48 89 05 af 78 21 00 	mov    %rax,0x2178af(%rip)        # 61a4e8 <stderr+0x98>
  402c39:	0f 84 6d fe ff ff    	je     402aac <__sprintf_chk@plt+0x5ac>
  402c3f:	80 3d 8e 78 21 00 00 	cmpb   $0x0,0x21788e(%rip)        # 61a4d4 <stderr+0x84>
  402c46:	75 09                	jne    402c51 <__sprintf_chk@plt+0x751>
  402c48:	80 3d 84 78 21 00 00 	cmpb   $0x0,0x217884(%rip)        # 61a4d3 <stderr+0x83>
  402c4f:	75 07                	jne    402c58 <__sprintf_chk@plt+0x758>
  402c51:	41 81 ce 00 01 00 00 	or     $0x100,%r14d
  402c58:	45 09 e6             	or     %r12d,%r14d
  402c5b:	44 89 74 24 4c       	mov    %r14d,0x4c(%rsp)
  402c60:	48 8b 7c 24 20       	mov    0x20(%rsp),%rdi
  402c65:	48 8d 74 24 5c       	lea    0x5c(%rsp),%rsi
  402c6a:	e8 b1 15 00 00       	callq  404220 <__sprintf_chk@plt+0x1d20>
  402c6f:	48 85 c0             	test   %rax,%rax
  402c72:	48 89 c3             	mov    %rax,%rbx
  402c75:	0f 84 48 07 00 00    	je     4033c3 <__sprintf_chk@plt+0xec3>
  402c7b:	4d 85 ff             	test   %r15,%r15
  402c7e:	0f 84 fa 0a 00 00    	je     40377e <__sprintf_chk@plt+0x127e>
  402c84:	31 c0                	xor    %eax,%eax
  402c86:	41 80 3f 2d          	cmpb   $0x2d,(%r15)
  402c8a:	0f 84 d2 03 00 00    	je     403062 <__sprintf_chk@plt+0xb62>
  402c90:	80 3b 00             	cmpb   $0x0,(%rbx)
  402c93:	75 49                	jne    402cde <__sprintf_chk@plt+0x7de>
  402c95:	48 8b 7c 24 20       	mov    0x20(%rsp),%rdi
  402c9a:	e8 11 16 00 00       	callq  4042b0 <__sprintf_chk@plt+0x1db0>
  402c9f:	ba 05 00 00 00       	mov    $0x5,%edx
  402ca4:	be 89 32 41 00       	mov    $0x413289,%esi
  402ca9:	31 ff                	xor    %edi,%edi
  402cab:	48 89 c3             	mov    %rax,%rbx
  402cae:	e8 3d f3 ff ff       	callq  401ff0 <dcgettext@plt>
  402cb3:	4c 89 ff             	mov    %r15,%rdi
  402cb6:	48 89 c5             	mov    %rax,%rbp
  402cb9:	e8 42 89 00 00       	callq  40b600 <__sprintf_chk@plt+0x9100>
  402cbe:	49 89 e9             	mov    %rbp,%r9
  402cc1:	48 89 c1             	mov    %rax,%rcx
  402cc4:	49 89 d8             	mov    %rbx,%r8
  402cc7:	ba a7 32 41 00       	mov    $0x4132a7,%edx
  402ccc:	31 f6                	xor    %esi,%esi
  402cce:	31 ff                	xor    %edi,%edi
  402cd0:	31 c0                	xor    %eax,%eax
  402cd2:	e8 e9 f6 ff ff       	callq  4023c0 <error@plt>
  402cd7:	c6 44 24 18 00       	movb   $0x0,0x18(%rsp)
  402cdc:	eb 82                	jmp    402c60 <__sprintf_chk@plt+0x760>
  402cde:	84 c0                	test   %al,%al
  402ce0:	75 f5                	jne    402cd7 <__sprintf_chk@plt+0x7d7>
  402ce2:	8b 74 24 4c          	mov    0x4c(%rsp),%esi
  402ce6:	31 d2                	xor    %edx,%edx
  402ce8:	bf 70 a4 61 00       	mov    $0x61a470,%edi
  402ced:	48 89 1d 7c 77 21 00 	mov    %rbx,0x21777c(%rip)        # 61a470 <stderr+0x20>
  402cf4:	41 bd 01 00 00 00    	mov    $0x1,%r13d
  402cfa:	e8 d1 98 00 00       	callq  40c5d0 <__sprintf_chk@plt+0xa0d0>
  402cff:	4c 89 7c 24 40       	mov    %r15,0x40(%rsp)
  402d04:	48 89 44 24 38       	mov    %rax,0x38(%rsp)
  402d09:	49 89 c7             	mov    %rax,%r15
  402d0c:	eb 6b                	jmp    402d79 <__sprintf_chk@plt+0x879>
  402d0e:	48 8b 3d 83 77 21 00 	mov    0x217783(%rip),%rdi        # 61a498 <stderr+0x48>
  402d15:	4c 89 f6             	mov    %r14,%rsi
  402d18:	e8 93 1f 00 00       	callq  404cb0 <__sprintf_chk@plt+0x27b0>
  402d1d:	84 c0                	test   %al,%al
  402d1f:	75 46                	jne    402d67 <__sprintf_chk@plt+0x867>
  402d21:	41 83 fc 0b          	cmp    $0xb,%r12d
  402d25:	0f 84 58 07 00 00    	je     403483 <__sprintf_chk@plt+0xf83>
  402d2b:	41 83 fc 0d          	cmp    $0xd,%r12d
  402d2f:	40 0f 94 c5          	sete   %bpl
  402d33:	41 83 fc 0a          	cmp    $0xa,%r12d
  402d37:	0f 94 c0             	sete   %al
  402d3a:	40 08 c5             	or     %al,%bpl
  402d3d:	0f 85 4b 06 00 00    	jne    40338e <__sprintf_chk@plt+0xe8e>
  402d43:	41 f6 47 48 40       	testb  $0x40,0x48(%r15)
  402d48:	0f 84 7f 04 00 00    	je     4031cd <__sprintf_chk@plt+0xccd>
  402d4e:	48 83 7b 58 00       	cmpq   $0x0,0x58(%rbx)
  402d53:	0f 8e 74 04 00 00    	jle    4031cd <__sprintf_chk@plt+0xccd>
  402d59:	48 8b 43 78          	mov    0x78(%rbx),%rax
  402d5d:	49 39 47 18          	cmp    %rax,0x18(%r15)
  402d61:	0f 84 66 04 00 00    	je     4031cd <__sprintf_chk@plt+0xccd>
  402d67:	41 83 ec 01          	sub    $0x1,%r12d
  402d6b:	0f 84 e3 05 00 00    	je     403354 <__sprintf_chk@plt+0xe54>
  402d71:	bd 01 00 00 00       	mov    $0x1,%ebp
  402d76:	41 21 ed             	and    %ebp,%r13d
  402d79:	4c 89 ff             	mov    %r15,%rdi
  402d7c:	e8 af c3 00 00       	callq  40f130 <fts_read>
  402d81:	48 85 c0             	test   %rax,%rax
  402d84:	48 89 c3             	mov    %rax,%rbx
  402d87:	0f 84 c8 04 00 00    	je     403255 <__sprintf_chk@plt+0xd55>
  402d8d:	44 0f b7 60 70       	movzwl 0x70(%rax),%r12d
  402d92:	4c 8b 70 38          	mov    0x38(%rax),%r14
  402d96:	41 83 fc 04          	cmp    $0x4,%r12d
  402d9a:	0f 84 f7 03 00 00    	je     403197 <__sprintf_chk@plt+0xc97>
  402da0:	41 83 fc 06          	cmp    $0x6,%r12d
  402da4:	0f 85 64 ff ff ff    	jne    402d0e <__sprintf_chk@plt+0x80e>
  402daa:	41 b8 01 00 00 00    	mov    $0x1,%r8d
  402db0:	8b 05 02 77 21 00    	mov    0x217702(%rip),%eax        # 61a4b8 <stderr+0x68>
  402db6:	85 c0                	test   %eax,%eax
  402db8:	0f 85 36 02 00 00    	jne    402ff4 <__sprintf_chk@plt+0xaf4>
  402dbe:	48 8b 93 d0 00 00 00 	mov    0xd0(%rbx),%rdx
  402dc5:	48 8b 8b d8 00 00 00 	mov    0xd8(%rbx),%rcx
  402dcc:	80 3d 02 77 21 00 00 	cmpb   $0x0,0x217702(%rip)        # 61a4d5 <stderr+0x85>
  402dd3:	0f 84 0b 02 00 00    	je     402fe4 <__sprintf_chk@plt+0xae4>
  402dd9:	48 83 bb a8 00 00 00 	cmpq   $0x0,0xa8(%rbx)
  402de0:	00 
  402de1:	bd 00 00 00 00       	mov    $0x0,%ebp
  402de6:	48 0f 49 ab a8 00 00 	cmovns 0xa8(%rbx),%rbp
  402ded:	00 
  402dee:	48 8b 35 73 76 21 00 	mov    0x217673(%rip),%rsi        # 61a468 <stderr+0x18>
  402df5:	48 8b 5b 58          	mov    0x58(%rbx),%rbx
  402df9:	48 89 6c 24 70       	mov    %rbp,0x70(%rsp)
  402dfe:	48 89 54 24 78       	mov    %rdx,0x78(%rsp)
  402e03:	48 89 8c 24 80 00 00 	mov    %rcx,0x80(%rsp)
  402e0a:	00 
  402e0b:	48 85 f6             	test   %rsi,%rsi
  402e0e:	0f 84 11 02 00 00    	je     403025 <__sprintf_chk@plt+0xb25>
  402e14:	48 8b 05 bd 76 21 00 	mov    0x2176bd(%rip),%rax        # 61a4d8 <stderr+0x88>
  402e1b:	48 39 c3             	cmp    %rax,%rbx
  402e1e:	0f 84 d1 00 00 00    	je     402ef5 <__sprintf_chk@plt+0x9f5>
  402e24:	0f 86 8d 02 00 00    	jbe    4030b7 <__sprintf_chk@plt+0xbb7>
  402e2a:	48 39 f3             	cmp    %rsi,%rbx
  402e2d:	72 5a                	jb     402e89 <__sprintf_chk@plt+0x989>
  402e2f:	48 b8 aa aa aa aa aa 	movabs $0x2aaaaaaaaaaaaaa,%rax
  402e36:	aa aa 02 
  402e39:	44 89 44 24 48       	mov    %r8d,0x48(%rsp)
  402e3e:	48 89 4c 24 30       	mov    %rcx,0x30(%rsp)
  402e43:	48 39 c3             	cmp    %rax,%rbx
  402e46:	48 89 54 24 28       	mov    %rdx,0x28(%rsp)
  402e4b:	48 8b 3d 0e 76 21 00 	mov    0x21760e(%rip),%rdi        # 61a460 <stderr+0x10>
  402e52:	0f 87 54 fc ff ff    	ja     402aac <__sprintf_chk@plt+0x5ac>
  402e58:	48 6b f3 60          	imul   $0x60,%rbx,%rsi
  402e5c:	e8 6f 95 00 00       	callq  40c3d0 <__sprintf_chk@plt+0x9ed0>
  402e61:	48 89 05 f8 75 21 00 	mov    %rax,0x2175f8(%rip)        # 61a460 <stderr+0x10>
  402e68:	48 8d 04 1b          	lea    (%rbx,%rbx,1),%rax
  402e6c:	44 8b 44 24 48       	mov    0x48(%rsp),%r8d
  402e71:	48 8b 4c 24 30       	mov    0x30(%rsp),%rcx
  402e76:	48 8b 54 24 28       	mov    0x28(%rsp),%rdx
  402e7b:	48 89 05 e6 75 21 00 	mov    %rax,0x2175e6(%rip)        # 61a468 <stderr+0x18>
  402e82:	48 8b 05 4f 76 21 00 	mov    0x21764f(%rip),%rax        # 61a4d8 <stderr+0x88>
  402e89:	48 8d 78 01          	lea    0x1(%rax),%rdi
  402e8d:	48 39 fb             	cmp    %rdi,%rbx
  402e90:	72 63                	jb     402ef5 <__sprintf_chk@plt+0x9f5>
  402e92:	4c 6b d0 30          	imul   $0x30,%rax,%r10
  402e96:	4c 8b 0d c3 75 21 00 	mov    0x2175c3(%rip),%r9        # 61a460 <stderr+0x10>
  402e9d:	48 6b c0 d0          	imul   $0xffffffffffffffd0,%rax,%rax
  402ea1:	4b 8d 34 11          	lea    (%r9,%r10,1),%rsi
  402ea5:	4f 8d 54 11 48       	lea    0x48(%r9,%r10,1),%r10
  402eaa:	4c 29 c8             	sub    %r9,%rax
  402ead:	0f 1f 00             	nopl   (%rax)
  402eb0:	4c 8d 0c 30          	lea    (%rax,%rsi,1),%r9
  402eb4:	49 bb 00 00 00 00 00 	movabs $0x8000000000000000,%r11
  402ebb:	00 00 80 
  402ebe:	48 83 c7 01          	add    $0x1,%rdi
  402ec2:	48 c7 46 30 00 00 00 	movq   $0x0,0x30(%rsi)
  402ec9:	00 
  402eca:	4c 89 5e 38          	mov    %r11,0x38(%rsi)
  402ece:	48 83 c6 30          	add    $0x30,%rsi
  402ed2:	48 c7 46 10 ff ff ff 	movq   $0xffffffffffffffff,0x10(%rsi)
  402ed9:	ff 
  402eda:	48 39 fb             	cmp    %rdi,%rbx
  402edd:	4b c7 04 11 00 00 00 	movq   $0x0,(%r9,%r10,1)
  402ee4:	00 
  402ee5:	4f 89 5c 11 08       	mov    %r11,0x8(%r9,%r10,1)
  402eea:	4b c7 44 11 10 ff ff 	movq   $0xffffffffffffffff,0x10(%r9,%r10,1)
  402ef1:	ff ff 
  402ef3:	73 bb                	jae    402eb0 <__sprintf_chk@plt+0x9b0>
  402ef5:	80 3d d4 75 21 00 00 	cmpb   $0x0,0x2175d4(%rip)        # 61a4d0 <stderr+0x80>
  402efc:	48 89 1d d5 75 21 00 	mov    %rbx,0x2175d5(%rip)        # 61a4d8 <stderr+0x88>
  402f03:	74 0b                	je     402f10 <__sprintf_chk@plt+0xa10>
  402f05:	44 89 e0             	mov    %r12d,%eax
  402f08:	83 e0 fd             	and    $0xfffffffd,%eax
  402f0b:	83 f8 04             	cmp    $0x4,%eax
  402f0e:	74 35                	je     402f45 <__sprintf_chk@plt+0xa45>
  402f10:	48 6b c3 30          	imul   $0x30,%rbx,%rax
  402f14:	48 89 ee             	mov    %rbp,%rsi
  402f17:	48 c7 c7 ff ff ff ff 	mov    $0xffffffffffffffff,%rdi
  402f1e:	48 03 05 3b 75 21 00 	add    0x21753b(%rip),%rax        # 61a460 <stderr+0x10>
  402f25:	48 03 30             	add    (%rax),%rsi
  402f28:	48 0f 42 f7          	cmovb  %rdi,%rsi
  402f2c:	48 3b 50 08          	cmp    0x8(%rax),%rdx
  402f30:	48 89 30             	mov    %rsi,(%rax)
  402f33:	48 8b 70 10          	mov    0x10(%rax),%rsi
  402f37:	0f 8e d3 00 00 00    	jle    403010 <__sprintf_chk@plt+0xb10>
  402f3d:	48 89 50 08          	mov    %rdx,0x8(%rax)
  402f41:	48 89 48 10          	mov    %rcx,0x10(%rax)
  402f45:	48 03 2d 34 75 21 00 	add    0x217534(%rip),%rbp        # 61a480 <stderr+0x30>
  402f4c:	48 c7 c0 ff ff ff ff 	mov    $0xffffffffffffffff,%rax
  402f53:	48 0f 42 e8          	cmovb  %rax,%rbp
  402f57:	48 3b 15 2a 75 21 00 	cmp    0x21752a(%rip),%rdx        # 61a488 <stderr+0x38>
  402f5e:	48 8b 05 2b 75 21 00 	mov    0x21752b(%rip),%rax        # 61a490 <stderr+0x40>
  402f65:	48 89 2d 14 75 21 00 	mov    %rbp,0x217514(%rip)        # 61a480 <stderr+0x30>
  402f6c:	7e 6d                	jle    402fdb <__sprintf_chk@plt+0xadb>
  402f6e:	48 89 15 13 75 21 00 	mov    %rdx,0x217513(%rip)        # 61a488 <stderr+0x38>
  402f75:	48 89 0d 14 75 21 00 	mov    %rcx,0x217514(%rip)        # 61a490 <stderr+0x40>
  402f7c:	41 83 e4 fd          	and    $0xfffffffd,%r12d
  402f80:	41 83 fc 04          	cmp    $0x4,%r12d
  402f84:	74 4a                	je     402fd0 <__sprintf_chk@plt+0xad0>
  402f86:	80 3d 49 75 21 00 00 	cmpb   $0x0,0x217549(%rip)        # 61a4d6 <stderr+0x86>
  402f8d:	75 41                	jne    402fd0 <__sprintf_chk@plt+0xad0>
  402f8f:	48 85 db             	test   %rbx,%rbx
  402f92:	44 89 c5             	mov    %r8d,%ebp
  402f95:	0f 85 db fd ff ff    	jne    402d76 <__sprintf_chk@plt+0x876>
  402f9b:	48 8b 05 26 75 21 00 	mov    0x217526(%rip),%rax        # 61a4c8 <stderr+0x78>
  402fa2:	48 85 c0             	test   %rax,%rax
  402fa5:	0f 88 9a 02 00 00    	js     403245 <__sprintf_chk@plt+0xd45>
  402fab:	48 39 44 24 70       	cmp    %rax,0x70(%rsp)
  402fb0:	0f 93 c0             	setae  %al
  402fb3:	84 c0                	test   %al,%al
  402fb5:	44 89 c5             	mov    %r8d,%ebp
  402fb8:	0f 84 b8 fd ff ff    	je     402d76 <__sprintf_chk@plt+0x876>
  402fbe:	48 8d 7c 24 70       	lea    0x70(%rsp),%rdi
  402fc3:	4c 89 f6             	mov    %r14,%rsi
  402fc6:	e8 b5 09 00 00       	callq  403980 <__sprintf_chk@plt+0x1480>
  402fcb:	e9 a6 fd ff ff       	jmpq   402d76 <__sprintf_chk@plt+0x876>
  402fd0:	48 3b 1d 99 73 21 00 	cmp    0x217399(%rip),%rbx        # 61a370 <fts_children+0x20a9b0>
  402fd7:	76 c2                	jbe    402f9b <__sprintf_chk@plt+0xa9b>
  402fd9:	eb b4                	jmp    402f8f <__sprintf_chk@plt+0xa8f>
  402fdb:	7c 9f                	jl     402f7c <__sprintf_chk@plt+0xa7c>
  402fdd:	39 c8                	cmp    %ecx,%eax
  402fdf:	90                   	nop
  402fe0:	79 9a                	jns    402f7c <__sprintf_chk@plt+0xa7c>
  402fe2:	eb 8a                	jmp    402f6e <__sprintf_chk@plt+0xa6e>
  402fe4:	48 8b ab b8 00 00 00 	mov    0xb8(%rbx),%rbp
  402feb:	48 c1 e5 09          	shl    $0x9,%rbp
  402fef:	e9 fa fd ff ff       	jmpq   402dee <__sprintf_chk@plt+0x8ee>
  402ff4:	83 f8 02             	cmp    $0x2,%eax
  402ff7:	0f 84 b3 02 00 00    	je     4032b0 <__sprintf_chk@plt+0xdb0>
  402ffd:	48 8b 93 e0 00 00 00 	mov    0xe0(%rbx),%rdx
  403004:	48 8b 8b e8 00 00 00 	mov    0xe8(%rbx),%rcx
  40300b:	e9 bc fd ff ff       	jmpq   402dcc <__sprintf_chk@plt+0x8cc>
  403010:	0f 8c 2f ff ff ff    	jl     402f45 <__sprintf_chk@plt+0xa45>
  403016:	39 ce                	cmp    %ecx,%esi
  403018:	0f 89 27 ff ff ff    	jns    402f45 <__sprintf_chk@plt+0xa45>
  40301e:	66 90                	xchg   %ax,%ax
  403020:	e9 18 ff ff ff       	jmpq   402f3d <__sprintf_chk@plt+0xa3d>
  403025:	48 8d 7b 0a          	lea    0xa(%rbx),%rdi
  403029:	40 b6 30             	mov    $0x30,%sil
  40302c:	44 89 44 24 48       	mov    %r8d,0x48(%rsp)
  403031:	48 89 4c 24 30       	mov    %rcx,0x30(%rsp)
  403036:	48 89 54 24 28       	mov    %rdx,0x28(%rsp)
  40303b:	48 89 3d 26 74 21 00 	mov    %rdi,0x217426(%rip)        # 61a468 <stderr+0x18>
  403042:	e8 d9 94 00 00       	callq  40c520 <__sprintf_chk@plt+0xa020>
  403047:	48 8b 54 24 28       	mov    0x28(%rsp),%rdx
  40304c:	48 89 05 0d 74 21 00 	mov    %rax,0x21740d(%rip)        # 61a460 <stderr+0x10>
  403053:	48 8b 4c 24 30       	mov    0x30(%rsp),%rcx
  403058:	44 8b 44 24 48       	mov    0x48(%rsp),%r8d
  40305d:	e9 93 fe ff ff       	jmpq   402ef5 <__sprintf_chk@plt+0x9f5>
  403062:	41 80 7f 01 00       	cmpb   $0x0,0x1(%r15)
  403067:	0f 85 23 fc ff ff    	jne    402c90 <__sprintf_chk@plt+0x790>
  40306d:	80 3b 2d             	cmpb   $0x2d,(%rbx)
  403070:	0f 85 1a fc ff ff    	jne    402c90 <__sprintf_chk@plt+0x790>
  403076:	80 7b 01 00          	cmpb   $0x0,0x1(%rbx)
  40307a:	0f 85 10 fc ff ff    	jne    402c90 <__sprintf_chk@plt+0x790>
  403080:	48 89 df             	mov    %rbx,%rdi
  403083:	e8 d8 86 00 00       	callq  40b760 <__sprintf_chk@plt+0x9260>
  403088:	ba 05 00 00 00       	mov    $0x5,%edx
  40308d:	48 89 c5             	mov    %rax,%rbp
  403090:	be 20 44 41 00       	mov    $0x414420,%esi
  403095:	31 ff                	xor    %edi,%edi
  403097:	e8 54 ef ff ff       	callq  401ff0 <dcgettext@plt>
  40309c:	48 89 e9             	mov    %rbp,%rcx
  40309f:	48 89 c2             	mov    %rax,%rdx
  4030a2:	31 f6                	xor    %esi,%esi
  4030a4:	31 c0                	xor    %eax,%eax
  4030a6:	31 ff                	xor    %edi,%edi
  4030a8:	e8 13 f3 ff ff       	callq  4023c0 <error@plt>
  4030ad:	b8 01 00 00 00       	mov    $0x1,%eax
  4030b2:	e9 d9 fb ff ff       	jmpq   402c90 <__sprintf_chk@plt+0x790>
  4030b7:	48 8d 70 ff          	lea    -0x1(%rax),%rsi
  4030bb:	48 39 f3             	cmp    %rsi,%rbx
  4030be:	0f 85 05 07 00 00    	jne    4037c9 <__sprintf_chk@plt+0x12c9>
  4030c4:	48 6b c0 30          	imul   $0x30,%rax,%rax
  4030c8:	48 8b 35 91 73 21 00 	mov    0x217391(%rip),%rsi        # 61a460 <stderr+0x10>
  4030cf:	48 89 ef             	mov    %rbp,%rdi
  4030d2:	49 c7 c2 ff ff ff ff 	mov    $0xffffffffffffffff,%r10
  4030d9:	48 01 f0             	add    %rsi,%rax
  4030dc:	48 03 38             	add    (%rax),%rdi
  4030df:	49 0f 42 fa          	cmovb  %r10,%rdi
  4030e3:	48 89 7c 24 70       	mov    %rdi,0x70(%rsp)
  4030e8:	48 3b 50 08          	cmp    0x8(%rax),%rdx
  4030ec:	4c 8b 48 10          	mov    0x10(%rax),%r9
  4030f0:	0f 8d f5 01 00 00    	jge    4032eb <__sprintf_chk@plt+0xdeb>
  4030f6:	4c 8b 48 08          	mov    0x8(%rax),%r9
  4030fa:	4c 8b 50 10          	mov    0x10(%rax),%r10
  4030fe:	4c 89 4c 24 78       	mov    %r9,0x78(%rsp)
  403103:	4c 89 94 24 80 00 00 	mov    %r10,0x80(%rsp)
  40310a:	00 
  40310b:	80 3d be 73 21 00 00 	cmpb   $0x0,0x2173be(%rip)        # 61a4d0 <stderr+0x80>
  403112:	0f 84 f3 01 00 00    	je     40330b <__sprintf_chk@plt+0xe0b>
  403118:	48 6b fb 30          	imul   $0x30,%rbx,%rdi
  40311c:	49 c7 c2 ff ff ff ff 	mov    $0xffffffffffffffff,%r10
  403123:	48 01 fe             	add    %rdi,%rsi
  403126:	48 8b 7e 18          	mov    0x18(%rsi),%rdi
  40312a:	48 03 38             	add    (%rax),%rdi
  40312d:	4c 8b 4e 20          	mov    0x20(%rsi),%r9
  403131:	49 0f 42 fa          	cmovb  %r10,%rdi
  403135:	4c 8b 56 28          	mov    0x28(%rsi),%r10
  403139:	48 89 7e 18          	mov    %rdi,0x18(%rsi)
  40313d:	4c 3b 48 08          	cmp    0x8(%rax),%r9
  403141:	4c 8b 58 10          	mov    0x10(%rax),%r11
  403145:	0f 8d 8c 01 00 00    	jge    4032d7 <__sprintf_chk@plt+0xdd7>
  40314b:	4c 8b 50 08          	mov    0x8(%rax),%r10
  40314f:	4c 8b 58 10          	mov    0x10(%rax),%r11
  403153:	4d 89 d1             	mov    %r10,%r9
  403156:	4c 89 56 20          	mov    %r10,0x20(%rsi)
  40315a:	4c 89 5e 28          	mov    %r11,0x28(%rsi)
  40315e:	4d 89 da             	mov    %r11,%r10
  403161:	48 03 78 18          	add    0x18(%rax),%rdi
  403165:	49 c7 c3 ff ff ff ff 	mov    $0xffffffffffffffff,%r11
  40316c:	49 0f 42 fb          	cmovb  %r11,%rdi
  403170:	48 89 7e 18          	mov    %rdi,0x18(%rsi)
  403174:	4c 3b 48 20          	cmp    0x20(%rax),%r9
  403178:	48 8b 78 28          	mov    0x28(%rax),%rdi
  40317c:	0f 8d 41 01 00 00    	jge    4032c3 <__sprintf_chk@plt+0xdc3>
  403182:	4c 8b 48 20          	mov    0x20(%rax),%r9
  403186:	4c 8b 50 28          	mov    0x28(%rax),%r10
  40318a:	4c 89 4e 20          	mov    %r9,0x20(%rsi)
  40318e:	4c 89 56 28          	mov    %r10,0x28(%rsi)
  403192:	e9 5e fd ff ff       	jmpq   402ef5 <__sprintf_chk@plt+0x9f5>
  403197:	4c 89 f7             	mov    %r14,%rdi
  40319a:	e8 c1 85 00 00       	callq  40b760 <__sprintf_chk@plt+0x9260>
  40319f:	ba 05 00 00 00       	mov    $0x5,%edx
  4031a4:	be c6 32 41 00       	mov    $0x4132c6,%esi
  4031a9:	31 ff                	xor    %edi,%edi
  4031ab:	48 89 c5             	mov    %rax,%rbp
  4031ae:	e8 3d ee ff ff       	callq  401ff0 <dcgettext@plt>
  4031b3:	8b 73 40             	mov    0x40(%rbx),%esi
  4031b6:	48 89 c2             	mov    %rax,%rdx
  4031b9:	48 89 e9             	mov    %rbp,%rcx
  4031bc:	31 ff                	xor    %edi,%edi
  4031be:	31 c0                	xor    %eax,%eax
  4031c0:	e8 fb f1 ff ff       	callq  4023c0 <error@plt>
  4031c5:	45 31 c0             	xor    %r8d,%r8d
  4031c8:	e9 e3 fb ff ff       	jmpq   402db0 <__sprintf_chk@plt+0x8b0>
  4031cd:	80 3d 00 73 21 00 00 	cmpb   $0x0,0x217300(%rip)        # 61a4d4 <stderr+0x84>
  4031d4:	75 4a                	jne    403220 <__sprintf_chk@plt+0xd20>
  4031d6:	80 3d f6 72 21 00 00 	cmpb   $0x0,0x2172f6(%rip)        # 61a4d3 <stderr+0x83>
  4031dd:	75 1c                	jne    4031fb <__sprintf_chk@plt+0xcfb>
  4031df:	8b 83 90 00 00 00    	mov    0x90(%rbx),%eax
  4031e5:	25 00 f0 00 00       	and    $0xf000,%eax
  4031ea:	3d 00 40 00 00       	cmp    $0x4000,%eax
  4031ef:	74 2f                	je     403220 <__sprintf_chk@plt+0xd20>
  4031f1:	48 83 bb 88 00 00 00 	cmpq   $0x1,0x88(%rbx)
  4031f8:	01 
  4031f9:	76 25                	jbe    403220 <__sprintf_chk@plt+0xd20>
  4031fb:	48 8b 93 80 00 00 00 	mov    0x80(%rbx),%rdx
  403202:	48 8b 73 78          	mov    0x78(%rbx),%rsi
  403206:	48 8b 3d db 72 21 00 	mov    0x2172db(%rip),%rdi        # 61a4e8 <stderr+0x98>
  40320d:	e8 be 13 00 00       	callq  4045d0 <__sprintf_chk@plt+0x20d0>
  403212:	85 c0                	test   %eax,%eax
  403214:	0f 88 92 f8 ff ff    	js     402aac <__sprintf_chk@plt+0x5ac>
  40321a:	0f 84 47 fb ff ff    	je     402d67 <__sprintf_chk@plt+0x867>
  403220:	41 83 fc 02          	cmp    $0x2,%r12d
  403224:	0f 84 f5 01 00 00    	je     40341f <__sprintf_chk@plt+0xf1f>
  40322a:	41 83 fc 07          	cmp    $0x7,%r12d
  40322e:	66 90                	xchg   %ax,%ax
  403230:	0f 84 c5 01 00 00    	je     4033fb <__sprintf_chk@plt+0xefb>
  403236:	41 83 fc 01          	cmp    $0x1,%r12d
  40323a:	0f 85 6a fb ff ff    	jne    402daa <__sprintf_chk@plt+0x8aa>
  403240:	e9 2c fb ff ff       	jmpq   402d71 <__sprintf_chk@plt+0x871>
  403245:	48 f7 d8             	neg    %rax
  403248:	48 39 44 24 70       	cmp    %rax,0x70(%rsp)
  40324d:	0f 96 c0             	setbe  %al
  403250:	e9 5e fd ff ff       	jmpq   402fb3 <__sprintf_chk@plt+0xab3>
  403255:	e8 b6 ec ff ff       	callq  401f10 <__errno_location@plt>
  40325a:	83 38 00             	cmpl   $0x0,(%rax)
  40325d:	4c 8b 7c 24 40       	mov    0x40(%rsp),%r15
  403262:	48 89 c3             	mov    %rax,%rbx
  403265:	0f 85 43 02 00 00    	jne    4034ae <__sprintf_chk@plt+0xfae>
  40326b:	48 8b 7c 24 38       	mov    0x38(%rsp),%rdi
  403270:	48 c7 05 5d 72 21 00 	movq   $0x0,0x21725d(%rip)        # 61a4d8 <stderr+0x88>
  403277:	00 00 00 00 
  40327b:	e8 30 bd 00 00       	callq  40efb0 <fts_close>
  403280:	85 c0                	test   %eax,%eax
  403282:	74 22                	je     4032a6 <__sprintf_chk@plt+0xda6>
  403284:	ba 05 00 00 00       	mov    $0x5,%edx
  403289:	be 11 33 41 00       	mov    $0x413311,%esi
  40328e:	31 ff                	xor    %edi,%edi
  403290:	e8 5b ed ff ff       	callq  401ff0 <dcgettext@plt>
  403295:	8b 33                	mov    (%rbx),%esi
  403297:	48 89 c2             	mov    %rax,%rdx
  40329a:	31 ff                	xor    %edi,%edi
  40329c:	31 c0                	xor    %eax,%eax
  40329e:	45 31 ed             	xor    %r13d,%r13d
  4032a1:	e8 1a f1 ff ff       	callq  4023c0 <error@plt>
  4032a6:	44 20 6c 24 18       	and    %r13b,0x18(%rsp)
  4032ab:	e9 b0 f9 ff ff       	jmpq   402c60 <__sprintf_chk@plt+0x760>
  4032b0:	48 8b 93 c0 00 00 00 	mov    0xc0(%rbx),%rdx
  4032b7:	48 8b 8b c8 00 00 00 	mov    0xc8(%rbx),%rcx
  4032be:	e9 09 fb ff ff       	jmpq   402dcc <__sprintf_chk@plt+0x8cc>
  4032c3:	0f 8f 2c fc ff ff    	jg     402ef5 <__sprintf_chk@plt+0x9f5>
  4032c9:	41 39 fa             	cmp    %edi,%r10d
  4032cc:	0f 89 23 fc ff ff    	jns    402ef5 <__sprintf_chk@plt+0x9f5>
  4032d2:	e9 ab fe ff ff       	jmpq   403182 <__sprintf_chk@plt+0xc82>
  4032d7:	0f 8f 84 fe ff ff    	jg     403161 <__sprintf_chk@plt+0xc61>
  4032dd:	45 39 da             	cmp    %r11d,%r10d
  4032e0:	0f 89 7b fe ff ff    	jns    403161 <__sprintf_chk@plt+0xc61>
  4032e6:	e9 60 fe ff ff       	jmpq   40314b <__sprintf_chk@plt+0xc4b>
  4032eb:	0f 1f 44 00 00       	nopl   0x0(%rax,%rax,1)
  4032f0:	0f 8f 15 fe ff ff    	jg     40310b <__sprintf_chk@plt+0xc0b>
  4032f6:	44 39 c9             	cmp    %r9d,%ecx
  4032f9:	0f 1f 80 00 00 00 00 	nopl   0x0(%rax)
  403300:	0f 89 05 fe ff ff    	jns    40310b <__sprintf_chk@plt+0xc0b>
  403306:	e9 eb fd ff ff       	jmpq   4030f6 <__sprintf_chk@plt+0xbf6>
  40330b:	48 03 78 18          	add    0x18(%rax),%rdi
  40330f:	49 c7 c2 ff ff ff ff 	mov    $0xffffffffffffffff,%r10
  403316:	4c 8b 8c 24 80 00 00 	mov    0x80(%rsp),%r9
  40331d:	00 
  40331e:	49 0f 42 fa          	cmovb  %r10,%rdi
  403322:	48 89 7c 24 70       	mov    %rdi,0x70(%rsp)
  403327:	4c 8b 50 20          	mov    0x20(%rax),%r10
  40332b:	4c 39 54 24 78       	cmp    %r10,0x78(%rsp)
  403330:	48 8b 78 28          	mov    0x28(%rax),%rdi
  403334:	0f 8d af 01 00 00    	jge    4034e9 <__sprintf_chk@plt+0xfe9>
  40333a:	4c 8b 48 20          	mov    0x20(%rax),%r9
  40333e:	4c 8b 50 28          	mov    0x28(%rax),%r10
  403342:	4c 89 4c 24 78       	mov    %r9,0x78(%rsp)
  403347:	4c 89 94 24 80 00 00 	mov    %r10,0x80(%rsp)
  40334e:	00 
  40334f:	e9 c4 fd ff ff       	jmpq   403118 <__sprintf_chk@plt+0xc18>
  403354:	ba 04 00 00 00       	mov    $0x4,%edx
  403359:	48 89 de             	mov    %rbx,%rsi
  40335c:	4c 89 ff             	mov    %r15,%rdi
  40335f:	e8 2c c6 00 00       	callq  40f990 <fts_set>
  403364:	4c 89 ff             	mov    %r15,%rdi
  403367:	e8 c4 bd 00 00       	callq  40f130 <fts_read>
  40336c:	48 39 c3             	cmp    %rax,%rbx
  40336f:	0f 84 fc f9 ff ff    	je     402d71 <__sprintf_chk@plt+0x871>
  403375:	b9 b0 4d 41 00       	mov    $0x414db0,%ecx
  40337a:	ba e4 01 00 00       	mov    $0x1e4,%edx
  40337f:	be 80 32 41 00       	mov    $0x413280,%esi
  403384:	bf df 32 41 00       	mov    $0x4132df,%edi
  403389:	e8 42 ed ff ff       	callq  4020d0 <__assert_fail@plt>
  40338e:	4c 89 f7             	mov    %r14,%rdi
  403391:	e8 ca 83 00 00       	callq  40b760 <__sprintf_chk@plt+0x9260>
  403396:	ba 05 00 00 00       	mov    $0x5,%edx
  40339b:	be e8 32 41 00       	mov    $0x4132e8,%esi
  4033a0:	31 ff                	xor    %edi,%edi
  4033a2:	48 89 c5             	mov    %rax,%rbp
  4033a5:	e8 46 ec ff ff       	callq  401ff0 <dcgettext@plt>
  4033aa:	8b 73 40             	mov    0x40(%rbx),%esi
  4033ad:	48 89 e9             	mov    %rbp,%rcx
  4033b0:	48 89 c2             	mov    %rax,%rdx
  4033b3:	31 ff                	xor    %edi,%edi
  4033b5:	31 c0                	xor    %eax,%eax
  4033b7:	31 ed                	xor    %ebp,%ebp
  4033b9:	e8 02 f0 ff ff       	callq  4023c0 <error@plt>
  4033be:	e9 b3 f9 ff ff       	jmpq   402d76 <__sprintf_chk@plt+0x876>
  4033c3:	8b 44 24 5c          	mov    0x5c(%rsp),%eax
  4033c7:	83 f8 03             	cmp    $0x3,%eax
  4033ca:	0f 84 dc f6 ff ff    	je     402aac <__sprintf_chk@plt+0x5ac>
  4033d0:	83 f8 04             	cmp    $0x4,%eax
  4033d3:	0f 84 2c 01 00 00    	je     403505 <__sprintf_chk@plt+0x1005>
  4033d9:	83 f8 02             	cmp    $0x2,%eax
  4033dc:	0f 84 5d 01 00 00    	je     40353f <__sprintf_chk@plt+0x103f>
  4033e2:	b9 bd 4d 41 00       	mov    $0x414dbd,%ecx
  4033e7:	ba 09 04 00 00       	mov    $0x409,%edx
  4033ec:	be 80 32 41 00       	mov    $0x413280,%esi
  4033f1:	bf f8 43 41 00       	mov    $0x4143f8,%edi
  4033f6:	e8 d5 ec ff ff       	callq  4020d0 <__assert_fail@plt>
  4033fb:	4c 89 f7             	mov    %r14,%rdi
  4033fe:	e8 5d 83 00 00       	callq  40b760 <__sprintf_chk@plt+0x9260>
  403403:	8b 73 40             	mov    0x40(%rbx),%esi
  403406:	48 89 c1             	mov    %rax,%rcx
  403409:	ba dc 51 41 00       	mov    $0x4151dc,%edx
  40340e:	31 ff                	xor    %edi,%edi
  403410:	31 c0                	xor    %eax,%eax
  403412:	e8 a9 ef ff ff       	callq  4023c0 <error@plt>
  403417:	45 31 c0             	xor    %r8d,%r8d
  40341a:	e9 91 f9 ff ff       	jmpq   402db0 <__sprintf_chk@plt+0x8b0>
  40341f:	48 89 de             	mov    %rbx,%rsi
  403422:	4c 89 ff             	mov    %r15,%rdi
  403425:	e8 f6 91 00 00       	callq  40c620 <__sprintf_chk@plt+0xa120>
  40342a:	84 c0                	test   %al,%al
  40342c:	0f 84 3f f9 ff ff    	je     402d71 <__sprintf_chk@plt+0x871>
  403432:	48 8b 3d a7 70 21 00 	mov    0x2170a7(%rip),%rdi        # 61a4e0 <stderr+0x90>
  403439:	48 8b 93 80 00 00 00 	mov    0x80(%rbx),%rdx
  403440:	48 8b 73 78          	mov    0x78(%rbx),%rsi
  403444:	e8 e7 11 00 00       	callq  404630 <__sprintf_chk@plt+0x2130>
  403449:	85 c0                	test   %eax,%eax
  40344b:	4c 89 f7             	mov    %r14,%rdi
  40344e:	0f 84 f2 01 00 00    	je     403646 <__sprintf_chk@plt+0x1146>
  403454:	e8 07 83 00 00       	callq  40b760 <__sprintf_chk@plt+0x9260>
  403459:	ba 05 00 00 00       	mov    $0x5,%edx
  40345e:	48 89 c3             	mov    %rax,%rbx
  403461:	be 60 44 41 00       	mov    $0x414460,%esi
  403466:	31 ff                	xor    %edi,%edi
  403468:	e8 83 eb ff ff       	callq  401ff0 <dcgettext@plt>
  40346d:	48 89 d9             	mov    %rbx,%rcx
  403470:	48 89 c2             	mov    %rax,%rdx
  403473:	31 f6                	xor    %esi,%esi
  403475:	31 ff                	xor    %edi,%edi
  403477:	31 c0                	xor    %eax,%eax
  403479:	e8 42 ef ff ff       	callq  4023c0 <error@plt>
  40347e:	e9 f3 f8 ff ff       	jmpq   402d76 <__sprintf_chk@plt+0x876>
  403483:	ba 01 00 00 00       	mov    $0x1,%edx
  403488:	48 89 de             	mov    %rbx,%rsi
  40348b:	4c 89 ff             	mov    %r15,%rdi
  40348e:	e8 fd c4 00 00       	callq  40f990 <fts_set>
  403493:	4c 89 ff             	mov    %r15,%rdi
  403496:	e8 95 bc 00 00       	callq  40f130 <fts_read>
  40349b:	48 39 c3             	cmp    %rax,%rbx
  40349e:	0f 85 0c 03 00 00    	jne    4037b0 <__sprintf_chk@plt+0x12b0>
  4034a4:	44 0f b7 63 70       	movzwl 0x70(%rbx),%r12d
  4034a9:	e9 7d f8 ff ff       	jmpq   402d2b <__sprintf_chk@plt+0x82b>
  4034ae:	48 8b 44 24 38       	mov    0x38(%rsp),%rax
  4034b3:	45 31 ed             	xor    %r13d,%r13d
  4034b6:	48 8b 78 20          	mov    0x20(%rax),%rdi
  4034ba:	e8 41 81 00 00       	callq  40b600 <__sprintf_chk@plt+0x9100>
  4034bf:	ba 05 00 00 00       	mov    $0x5,%edx
  4034c4:	be b2 32 41 00       	mov    $0x4132b2,%esi
  4034c9:	31 ff                	xor    %edi,%edi
  4034cb:	48 89 c5             	mov    %rax,%rbp
  4034ce:	e8 1d eb ff ff       	callq  401ff0 <dcgettext@plt>
  4034d3:	8b 33                	mov    (%rbx),%esi
  4034d5:	48 89 c2             	mov    %rax,%rdx
  4034d8:	48 89 e9             	mov    %rbp,%rcx
  4034db:	31 ff                	xor    %edi,%edi
  4034dd:	31 c0                	xor    %eax,%eax
  4034df:	e8 dc ee ff ff       	callq  4023c0 <error@plt>
  4034e4:	e9 82 fd ff ff       	jmpq   40326b <__sprintf_chk@plt+0xd6b>
  4034e9:	0f 8f 29 fc ff ff    	jg     403118 <__sprintf_chk@plt+0xc18>
  4034ef:	41 39 f9             	cmp    %edi,%r9d
  4034f2:	0f 89 20 fc ff ff    	jns    403118 <__sprintf_chk@plt+0xc18>
  4034f8:	0f 1f 84 00 00 00 00 	nopl   0x0(%rax,%rax,1)
  4034ff:	00 
  403500:	e9 35 fe ff ff       	jmpq   40333a <__sprintf_chk@plt+0xe3a>
  403505:	4c 89 ff             	mov    %r15,%rdi
  403508:	e8 f3 80 00 00       	callq  40b600 <__sprintf_chk@plt+0x9100>
  40350d:	ba 05 00 00 00       	mov    $0x5,%edx
  403512:	be 71 32 41 00       	mov    $0x413271,%esi
  403517:	31 ff                	xor    %edi,%edi
  403519:	48 89 c5             	mov    %rax,%rbp
  40351c:	e8 cf ea ff ff       	callq  401ff0 <dcgettext@plt>
  403521:	48 89 c3             	mov    %rax,%rbx
  403524:	e8 e7 e9 ff ff       	callq  401f10 <__errno_location@plt>
  403529:	8b 30                	mov    (%rax),%esi
  40352b:	48 89 e9             	mov    %rbp,%rcx
  40352e:	48 89 da             	mov    %rbx,%rdx
  403531:	31 ff                	xor    %edi,%edi
  403533:	31 c0                	xor    %eax,%eax
  403535:	e8 86 ee ff ff       	callq  4023c0 <error@plt>
  40353a:	c6 44 24 18 00       	movb   $0x0,0x18(%rsp)
  40353f:	48 8b 7c 24 20       	mov    0x20(%rsp),%rdi
  403544:	e8 87 0d 00 00       	callq  4042d0 <__sprintf_chk@plt+0x1dd0>
  403549:	48 8b 3d 98 6f 21 00 	mov    0x216f98(%rip),%rdi        # 61a4e8 <stderr+0x98>
  403550:	e8 4b 10 00 00       	callq  4045a0 <__sprintf_chk@plt+0x20a0>
  403555:	48 8b 3d 84 6f 21 00 	mov    0x216f84(%rip),%rdi        # 61a4e0 <stderr+0x90>
  40355c:	e8 3f 10 00 00       	callq  4045a0 <__sprintf_chk@plt+0x20a0>
  403561:	4d 85 ff             	test   %r15,%r15
  403564:	74 1b                	je     403581 <__sprintf_chk@plt+0x1081>
  403566:	48 8b 3d ab 6e 21 00 	mov    0x216eab(%rip),%rdi        # 61a418 <stdin>
  40356d:	f6 07 20             	testb  $0x20,(%rdi)
  403570:	0f 84 7b 01 00 00    	je     4036f1 <__sprintf_chk@plt+0x11f1>
  403576:	80 7c 24 18 00       	cmpb   $0x0,0x18(%rsp)
  40357b:	0f 85 3b 01 00 00    	jne    4036bc <__sprintf_chk@plt+0x11bc>
  403581:	80 3d 49 6f 21 00 00 	cmpb   $0x0,0x216f49(%rip)        # 61a4d1 <stderr+0x81>
  403588:	0f 85 cf 00 00 00    	jne    40365d <__sprintf_chk@plt+0x115d>
  40358e:	31 ff                	xor    %edi,%edi
  403590:	80 7c 24 18 00       	cmpb   $0x0,0x18(%rsp)
  403595:	40 0f 94 c7          	sete   %dil
  403599:	e8 b2 ee ff ff       	callq  402450 <exit@plt>
  40359e:	48 8b 3c c3          	mov    (%rbx,%rax,8),%rdi
  4035a2:	e8 b9 81 00 00       	callq  40b760 <__sprintf_chk@plt+0x9260>
  4035a7:	ba 05 00 00 00       	mov    $0x5,%edx
  4035ac:	48 89 c3             	mov    %rax,%rbx
  4035af:	be 45 32 41 00       	mov    $0x413245,%esi
  4035b4:	31 ff                	xor    %edi,%edi
  4035b6:	e8 35 ea ff ff       	callq  401ff0 <dcgettext@plt>
  4035bb:	48 89 d9             	mov    %rbx,%rcx
  4035be:	48 89 c2             	mov    %rax,%rdx
  4035c1:	31 f6                	xor    %esi,%esi
  4035c3:	31 ff                	xor    %edi,%edi
  4035c5:	31 c0                	xor    %eax,%eax
  4035c7:	e8 f4 ed ff ff       	callq  4023c0 <error@plt>
  4035cc:	ba 05 00 00 00       	mov    $0x5,%edx
  4035d1:	be c0 43 41 00       	mov    $0x4143c0,%esi
  4035d6:	31 ff                	xor    %edi,%edi
  4035d8:	e8 13 ea ff ff       	callq  401ff0 <dcgettext@plt>
  4035dd:	48 8b 3d 6c 6e 21 00 	mov    0x216e6c(%rip),%rdi        # 61a450 <stderr>
  4035e4:	48 89 c1             	mov    %rax,%rcx
  4035e7:	ba 5a 5d 41 00       	mov    $0x415d5a,%edx
  4035ec:	be 01 00 00 00       	mov    $0x1,%esi
  4035f1:	31 c0                	xor    %eax,%eax
  4035f3:	e8 78 ee ff ff       	callq  402470 <__fprintf_chk@plt>
  4035f8:	bf 01 00 00 00       	mov    $0x1,%edi
  4035fd:	e8 be 04 00 00       	callq  403ac0 <__sprintf_chk@plt+0x15c0>
  403602:	39 c5                	cmp    %eax,%ebp
  403604:	48 8d 7c 24 60       	lea    0x60(%rsp),%rdi
  403609:	7e 04                	jle    40360f <__sprintf_chk@plt+0x110f>
  40360b:	48 8d 3c c3          	lea    (%rbx,%rax,8),%rdi
  40360f:	e8 9c 0b 00 00       	callq  4041b0 <__sprintf_chk@plt+0x1cb0>
  403614:	48 89 44 24 20       	mov    %rax,0x20(%rsp)
  403619:	8b 05 01 6e 21 00    	mov    0x216e01(%rip),%eax        # 61a420 <optind>
  40361f:	8d 50 01             	lea    0x1(%rax),%edx
  403622:	b8 01 00 00 00       	mov    $0x1,%eax
  403627:	39 d5                	cmp    %edx,%ebp
  403629:	7f 09                	jg     403634 <__sprintf_chk@plt+0x1134>
  40362b:	31 c0                	xor    %eax,%eax
  40362d:	41 83 fc 02          	cmp    $0x2,%r12d
  403631:	0f 94 c0             	sete   %al
  403634:	88 05 99 6e 21 00    	mov    %al,0x216e99(%rip)        # 61a4d3 <stderr+0x83>
  40363a:	80 25 92 6e 21 00 01 	andb   $0x1,0x216e92(%rip)        # 61a4d3 <stderr+0x83>
  403641:	e9 c5 f3 ff ff       	jmpq   402a0b <__sprintf_chk@plt+0x50b>
  403646:	e8 15 81 00 00       	callq  40b760 <__sprintf_chk@plt+0x9260>
  40364b:	ba 05 00 00 00       	mov    $0x5,%edx
  403650:	48 89 c3             	mov    %rax,%rbx
  403653:	be 88 44 41 00       	mov    $0x414488,%esi
  403658:	e9 09 fe ff ff       	jmpq   403466 <__sprintf_chk@plt+0xf66>
  40365d:	31 ff                	xor    %edi,%edi
  40365f:	ba 05 00 00 00       	mov    $0x5,%edx
  403664:	be 33 33 41 00       	mov    $0x413333,%esi
  403669:	e8 82 e9 ff ff       	callq  401ff0 <dcgettext@plt>
  40366e:	bf 80 a4 61 00       	mov    $0x61a480,%edi
  403673:	48 89 c6             	mov    %rax,%rsi
  403676:	e8 05 03 00 00       	callq  403980 <__sprintf_chk@plt+0x1480>
  40367b:	e9 0e ff ff ff       	jmpq   40358e <__sprintf_chk@plt+0x108e>
  403680:	4c 8b 05 b9 6d 21 00 	mov    0x216db9(%rip),%r8        # 61a440 <optarg>
  403687:	8b 74 24 70          	mov    0x70(%rsp),%esi
  40368b:	b9 60 4e 41 00       	mov    $0x414e60,%ecx
  403690:	ba 74 00 00 00       	mov    $0x74,%edx
  403695:	89 c7                	mov    %eax,%edi
  403697:	e8 74 9b 00 00       	callq  40d210 <__sprintf_chk@plt+0xad10>
  40369c:	48 c7 05 01 6e 21 00 	movq   $0x413215,0x216e01(%rip)        # 61a4a8 <stderr+0x58>
  4036a3:	15 32 41 00 
  4036a7:	e9 1a f3 ff ff       	jmpq   4029c6 <__sprintf_chk@plt+0x4c6>
  4036ac:	48 c7 05 f1 6d 21 00 	movq   $0x41322d,0x216df1(%rip)        # 61a4a8 <stderr+0x58>
  4036b3:	2d 32 41 00 
  4036b7:	e9 0a f3 ff ff       	jmpq   4029c6 <__sprintf_chk@plt+0x4c6>
  4036bc:	4c 89 ff             	mov    %r15,%rdi
  4036bf:	e8 9c 80 00 00       	callq  40b760 <__sprintf_chk@plt+0x9260>
  4036c4:	31 ff                	xor    %edi,%edi
  4036c6:	48 89 c3             	mov    %rax,%rbx
  4036c9:	ba 05 00 00 00       	mov    $0x5,%edx
  4036ce:	be 22 33 41 00       	mov    $0x413322,%esi
  4036d3:	e8 18 e9 ff ff       	callq  401ff0 <dcgettext@plt>
  4036d8:	48 89 d9             	mov    %rbx,%rcx
  4036db:	48 89 c2             	mov    %rax,%rdx
  4036de:	31 f6                	xor    %esi,%esi
  4036e0:	bf 01 00 00 00       	mov    $0x1,%edi
  4036e5:	31 c0                	xor    %eax,%eax
  4036e7:	e8 d4 ec ff ff       	callq  4023c0 <error@plt>
  4036ec:	e9 90 fe ff ff       	jmpq   403581 <__sprintf_chk@plt+0x1081>
  4036f1:	e8 fa 9f 00 00       	callq  40d6f0 <__sprintf_chk@plt+0xb1f0>
  4036f6:	85 c0                	test   %eax,%eax
  4036f8:	0f 85 78 fe ff ff    	jne    403576 <__sprintf_chk@plt+0x1076>
  4036fe:	66 90                	xchg   %ax,%ax
  403700:	e9 7c fe ff ff       	jmpq   403581 <__sprintf_chk@plt+0x1081>
  403705:	bf f6 31 41 00       	mov    $0x4131f6,%edi
  40370a:	e8 b1 e7 ff ff       	callq  401ec0 <getenv@plt>
  40370f:	48 85 c0             	test   %rax,%rax
  403712:	49 89 c5             	mov    %rax,%r13
  403715:	48 89 05 94 6d 21 00 	mov    %rax,0x216d94(%rip)        # 61a4b0 <stderr+0x60>
  40371c:	74 4a                	je     403768 <__sprintf_chk@plt+0x1268>
  40371e:	be 4c 31 41 00       	mov    $0x41314c,%esi
  403723:	48 89 c7             	mov    %rax,%rdi
  403726:	e8 b5 ea ff ff       	callq  4021e0 <strcmp@plt>
  40372b:	85 c0                	test   %eax,%eax
  40372d:	74 39                	je     403768 <__sprintf_chk@plt+0x1268>
  40372f:	41 80 7d 00 2b       	cmpb   $0x2b,0x0(%r13)
  403734:	75 10                	jne    403746 <__sprintf_chk@plt+0x1246>
  403736:	e9 a7 00 00 00       	jmpq   4037e2 <__sprintf_chk@plt+0x12e2>
  40373b:	49 83 c5 06          	add    $0x6,%r13
  40373f:	4c 89 2d 6a 6d 21 00 	mov    %r13,0x216d6a(%rip)        # 61a4b0 <stderr+0x60>
  403746:	4c 8b 2d 63 6d 21 00 	mov    0x216d63(%rip),%r13        # 61a4b0 <stderr+0x60>
  40374d:	ba 06 00 00 00       	mov    $0x6,%edx
  403752:	be c2 4d 41 00       	mov    $0x414dc2,%esi
  403757:	4c 89 ef             	mov    %r13,%rdi
  40375a:	e8 c1 e7 ff ff       	callq  401f20 <strncmp@plt>
  40375f:	85 c0                	test   %eax,%eax
  403761:	74 d8                	je     40373b <__sprintf_chk@plt+0x123b>
  403763:	e9 06 f2 ff ff       	jmpq   40296e <__sprintf_chk@plt+0x46e>
  403768:	48 c7 05 3d 6d 21 00 	movq   $0x413201,0x216d3d(%rip)        # 61a4b0 <stderr+0x60>
  40376f:	01 32 41 00 
  403773:	41 bd 01 32 41 00    	mov    $0x413201,%r13d
  403779:	e9 f0 f1 ff ff       	jmpq   40296e <__sprintf_chk@plt+0x46e>
  40377e:	80 38 00             	cmpb   $0x0,(%rax)
  403781:	0f 85 5b f5 ff ff    	jne    402ce2 <__sprintf_chk@plt+0x7e2>
  403787:	31 ff                	xor    %edi,%edi
  403789:	ba 05 00 00 00       	mov    $0x5,%edx
  40378e:	be 89 32 41 00       	mov    $0x413289,%esi
  403793:	e8 58 e8 ff ff       	callq  401ff0 <dcgettext@plt>
  403798:	ba dc 51 41 00       	mov    $0x4151dc,%edx
  40379d:	48 89 c1             	mov    %rax,%rcx
  4037a0:	31 f6                	xor    %esi,%esi
  4037a2:	31 ff                	xor    %edi,%edi
  4037a4:	31 c0                	xor    %eax,%eax
  4037a6:	e8 15 ec ff ff       	callq  4023c0 <error@plt>
  4037ab:	e9 27 f5 ff ff       	jmpq   402cd7 <__sprintf_chk@plt+0x7d7>
  4037b0:	b9 b0 4d 41 00       	mov    $0x414db0,%ecx
  4037b5:	ba c3 01 00 00       	mov    $0x1c3,%edx
  4037ba:	be 80 32 41 00       	mov    $0x413280,%esi
  4037bf:	bf df 32 41 00       	mov    $0x4132df,%edi
  4037c4:	e8 07 e9 ff ff       	callq  4020d0 <__assert_fail@plt>
  4037c9:	b9 b0 4d 41 00       	mov    $0x414db0,%ecx
  4037ce:	ba 37 02 00 00       	mov    $0x237,%edx
  4037d3:	be 80 32 41 00       	mov    $0x413280,%esi
  4037d8:	bf f9 32 41 00       	mov    $0x4132f9,%edi
  4037dd:	e8 ee e8 ff ff       	callq  4020d0 <__assert_fail@plt>
  4037e2:	be 0a 00 00 00       	mov    $0xa,%esi
  4037e7:	4c 89 ef             	mov    %r13,%rdi
  4037ea:	e8 91 e8 ff ff       	callq  402080 <strchr@plt>
  4037ef:	48 85 c0             	test   %rax,%rax
  4037f2:	0f 84 11 f4 ff ff    	je     402c09 <__sprintf_chk@plt+0x709>
  4037f8:	c6 00 00             	movb   $0x0,(%rax)
  4037fb:	e9 6e f1 ff ff       	jmpq   40296e <__sprintf_chk@plt+0x46e>
  403800:	31 ed                	xor    %ebp,%ebp
  403802:	49 89 d1             	mov    %rdx,%r9
  403805:	5e                   	pop    %rsi
  403806:	48 89 e2             	mov    %rsp,%rdx
  403809:	48 83 e4 f0          	and    $0xfffffffffffffff0,%rsp
  40380d:	50                   	push   %rax
  40380e:	54                   	push   %rsp
  40380f:	49 c7 c0 70 30 41 00 	mov    $0x413070,%r8
  403816:	48 c7 c1 00 30 41 00 	mov    $0x413000,%rcx
  40381d:	48 c7 c7 10 25 40 00 	mov    $0x402510,%rdi
  403824:	e8 67 e9 ff ff       	callq  402190 <__libc_start_main@plt>
  403829:	f4                   	hlt    
  40382a:	66 0f 1f 44 00 00    	nopw   0x0(%rax,%rax,1)
  403830:	b8 ff a3 61 00       	mov    $0x61a3ff,%eax
  403835:	55                   	push   %rbp
  403836:	48 2d f8 a3 61 00    	sub    $0x61a3f8,%rax
  40383c:	48 83 f8 0e          	cmp    $0xe,%rax
  403840:	48 89 e5             	mov    %rsp,%rbp
  403843:	77 02                	ja     403847 <__sprintf_chk@plt+0x1347>
  403845:	5d                   	pop    %rbp
  403846:	c3                   	retq   
  403847:	b8 00 00 00 00       	mov    $0x0,%eax
  40384c:	48 85 c0             	test   %rax,%rax
  40384f:	74 f4                	je     403845 <__sprintf_chk@plt+0x1345>
  403851:	5d                   	pop    %rbp
  403852:	bf f8 a3 61 00       	mov    $0x61a3f8,%edi
  403857:	ff e0                	jmpq   *%rax
  403859:	0f 1f 80 00 00 00 00 	nopl   0x0(%rax)
  403860:	b8 f8 a3 61 00       	mov    $0x61a3f8,%eax
  403865:	55                   	push   %rbp
  403866:	48 2d f8 a3 61 00    	sub    $0x61a3f8,%rax
  40386c:	48 c1 f8 03          	sar    $0x3,%rax
  403870:	48 89 e5             	mov    %rsp,%rbp
  403873:	48 89 c2             	mov    %rax,%rdx
  403876:	48 c1 ea 3f          	shr    $0x3f,%rdx
  40387a:	48 01 d0             	add    %rdx,%rax
  40387d:	48 d1 f8             	sar    %rax
  403880:	75 02                	jne    403884 <__sprintf_chk@plt+0x1384>
  403882:	5d                   	pop    %rbp
  403883:	c3                   	retq   
  403884:	ba 00 00 00 00       	mov    $0x0,%edx
  403889:	48 85 d2             	test   %rdx,%rdx
  40388c:	74 f4                	je     403882 <__sprintf_chk@plt+0x1382>
  40388e:	5d                   	pop    %rbp
  40388f:	48 89 c6             	mov    %rax,%rsi
  403892:	bf f8 a3 61 00       	mov    $0x61a3f8,%edi
  403897:	ff e2                	jmpq   *%rdx
  403899:	0f 1f 80 00 00 00 00 	nopl   0x0(%rax)
  4038a0:	80 3d b1 6b 21 00 00 	cmpb   $0x0,0x216bb1(%rip)        # 61a458 <stderr+0x8>
  4038a7:	75 11                	jne    4038ba <__sprintf_chk@plt+0x13ba>
  4038a9:	55                   	push   %rbp
  4038aa:	48 89 e5             	mov    %rsp,%rbp
  4038ad:	e8 7e ff ff ff       	callq  403830 <__sprintf_chk@plt+0x1330>
  4038b2:	5d                   	pop    %rbp
  4038b3:	c6 05 9e 6b 21 00 01 	movb   $0x1,0x216b9e(%rip)        # 61a458 <stderr+0x8>
  4038ba:	f3 c3                	repz retq 
  4038bc:	0f 1f 40 00          	nopl   0x0(%rax)
  4038c0:	48 83 3d 58 65 21 00 	cmpq   $0x0,0x216558(%rip)        # 619e20 <fts_children+0x20a460>
  4038c7:	00 
  4038c8:	74 1e                	je     4038e8 <__sprintf_chk@plt+0x13e8>
  4038ca:	b8 00 00 00 00       	mov    $0x0,%eax
  4038cf:	48 85 c0             	test   %rax,%rax
  4038d2:	74 14                	je     4038e8 <__sprintf_chk@plt+0x13e8>
  4038d4:	55                   	push   %rbp
  4038d5:	bf 20 9e 61 00       	mov    $0x619e20,%edi
  4038da:	48 89 e5             	mov    %rsp,%rbp
  4038dd:	ff d0                	callq  *%rax
  4038df:	5d                   	pop    %rbp
  4038e0:	e9 7b ff ff ff       	jmpq   403860 <__sprintf_chk@plt+0x1360>
  4038e5:	0f 1f 00             	nopl   (%rax)
  4038e8:	e9 73 ff ff ff       	jmpq   403860 <__sprintf_chk@plt+0x1360>
  4038ed:	0f 1f 00             	nopl   (%rax)
  4038f0:	53                   	push   %rbx
  4038f1:	48 81 ec a0 02 00 00 	sub    $0x2a0,%rsp
  4038f8:	48 8b 1d 11 6b 21 00 	mov    0x216b11(%rip),%rbx        # 61a410 <stdout>
  4038ff:	64 48 8b 04 25 28 00 	mov    %fs:0x28,%rax
  403906:	00 00 
  403908:	48 89 84 24 98 02 00 	mov    %rax,0x298(%rsp)
  40390f:	00 
  403910:	31 c0                	xor    %eax,%eax
  403912:	48 83 ff ff          	cmp    $0xffffffffffffffff,%rdi
  403916:	74 48                	je     403960 <__sprintf_chk@plt+0x1460>
  403918:	4c 8b 05 81 6b 21 00 	mov    0x216b81(%rip),%r8        # 61a4a0 <stderr+0x50>
  40391f:	8b 15 9b 6b 21 00    	mov    0x216b9b(%rip),%edx        # 61a4c0 <stderr+0x70>
  403925:	b9 01 00 00 00       	mov    $0x1,%ecx
  40392a:	48 89 e6             	mov    %rsp,%rsi
  40392d:	e8 2e 46 00 00       	callq  407f60 <__sprintf_chk@plt+0x5a60>
  403932:	48 89 c7             	mov    %rax,%rdi
  403935:	48 89 de             	mov    %rbx,%rsi
  403938:	e8 73 e8 ff ff       	callq  4021b0 <fputs_unlocked@plt>
  40393d:	48 8b 84 24 98 02 00 	mov    0x298(%rsp),%rax
  403944:	00 
  403945:	64 48 33 04 25 28 00 	xor    %fs:0x28,%rax
  40394c:	00 00 
  40394e:	75 26                	jne    403976 <__sprintf_chk@plt+0x1476>
  403950:	48 81 c4 a0 02 00 00 	add    $0x2a0,%rsp
  403957:	5b                   	pop    %rbx
  403958:	c3                   	retq   
  403959:	0f 1f 80 00 00 00 00 	nopl   0x0(%rax)
  403960:	31 ff                	xor    %edi,%edi
  403962:	ba 05 00 00 00       	mov    $0x5,%edx
  403967:	be c4 30 41 00       	mov    $0x4130c4,%esi
  40396c:	e8 7f e6 ff ff       	callq  401ff0 <dcgettext@plt>
  403971:	48 89 c7             	mov    %rax,%rdi
  403974:	eb bf                	jmp    403935 <__sprintf_chk@plt+0x1435>
  403976:	e8 c5 e6 ff ff       	callq  402040 <__stack_chk_fail@plt>
  40397b:	0f 1f 44 00 00       	nopl   0x0(%rax,%rax,1)
  403980:	41 54                	push   %r12
  403982:	55                   	push   %rbp
  403983:	48 89 f5             	mov    %rsi,%rbp
  403986:	53                   	push   %rbx
  403987:	48 89 fb             	mov    %rdi,%rbx
  40398a:	48 83 ec 30          	sub    $0x30,%rsp
  40398e:	48 8b 3f             	mov    (%rdi),%rdi
  403991:	64 48 8b 04 25 28 00 	mov    %fs:0x28,%rax
  403998:	00 00 
  40399a:	48 89 44 24 28       	mov    %rax,0x28(%rsp)
  40399f:	31 c0                	xor    %eax,%eax
  4039a1:	e8 4a ff ff ff       	callq  4038f0 <__sprintf_chk@plt+0x13f0>
  4039a6:	80 3d 0f 6b 21 00 00 	cmpb   $0x0,0x216b0f(%rip)        # 61a4bc <stderr+0x6c>
  4039ad:	74 5e                	je     403a0d <__sprintf_chk@plt+0x150d>
  4039af:	48 8b 3d 5a 6a 21 00 	mov    0x216a5a(%rip),%rdi        # 61a410 <stdout>
  4039b6:	48 8b 47 28          	mov    0x28(%rdi),%rax
  4039ba:	48 3b 47 30          	cmp    0x30(%rdi),%rax
  4039be:	0f 83 db 00 00 00    	jae    403a9f <__sprintf_chk@plt+0x159f>
  4039c4:	48 8d 50 01          	lea    0x1(%rax),%rdx
  4039c8:	48 89 57 28          	mov    %rdx,0x28(%rdi)
  4039cc:	c6 00 09             	movb   $0x9,(%rax)
  4039cf:	48 8b 43 08          	mov    0x8(%rbx),%rax
  4039d3:	48 8b 53 10          	mov    0x10(%rbx),%rdx
  4039d7:	48 89 e7             	mov    %rsp,%rdi
  4039da:	4c 8b 25 c7 6a 21 00 	mov    0x216ac7(%rip),%r12        # 61a4a8 <stderr+0x58>
  4039e1:	48 89 04 24          	mov    %rax,(%rsp)
  4039e5:	48 89 54 24 08       	mov    %rdx,0x8(%rsp)
  4039ea:	e8 01 e5 ff ff       	callq  401ef0 <localtime@plt>
  4039ef:	48 85 c0             	test   %rax,%rax
  4039f2:	74 64                	je     403a58 <__sprintf_chk@plt+0x1558>
  4039f4:	44 8b 44 24 08       	mov    0x8(%rsp),%r8d
  4039f9:	48 8b 3d 10 6a 21 00 	mov    0x216a10(%rip),%rdi        # 61a410 <stdout>
  403a00:	31 c9                	xor    %ecx,%ecx
  403a02:	48 89 c2             	mov    %rax,%rdx
  403a05:	4c 89 e6             	mov    %r12,%rsi
  403a08:	e8 b3 31 00 00       	callq  406bc0 <__sprintf_chk@plt+0x46c0>
  403a0d:	80 3d be 6a 21 00 01 	cmpb   $0x1,0x216abe(%rip)        # 61a4d2 <stderr+0x82>
  403a14:	48 89 ea             	mov    %rbp,%rdx
  403a17:	be e5 30 41 00       	mov    $0x4130e5,%esi
  403a1c:	bf 01 00 00 00       	mov    $0x1,%edi
  403a21:	19 c9                	sbb    %ecx,%ecx
  403a23:	31 c0                	xor    %eax,%eax
  403a25:	83 e1 0a             	and    $0xa,%ecx
  403a28:	e8 43 e9 ff ff       	callq  402370 <__printf_chk@plt>
  403a2d:	48 8b 3d dc 69 21 00 	mov    0x2169dc(%rip),%rdi        # 61a410 <stdout>
  403a34:	e8 47 ea ff ff       	callq  402480 <fflush_unlocked@plt>
  403a39:	48 8b 44 24 28       	mov    0x28(%rsp),%rax
  403a3e:	64 48 33 04 25 28 00 	xor    %fs:0x28,%rax
  403a45:	00 00 
  403a47:	75 65                	jne    403aae <__sprintf_chk@plt+0x15ae>
  403a49:	48 83 c4 30          	add    $0x30,%rsp
  403a4d:	5b                   	pop    %rbx
  403a4e:	5d                   	pop    %rbp
  403a4f:	41 5c                	pop    %r12
  403a51:	c3                   	retq   
  403a52:	66 0f 1f 44 00 00    	nopw   0x0(%rax,%rax,1)
  403a58:	48 8b 3c 24          	mov    (%rsp),%rdi
  403a5c:	48 8d 74 24 10       	lea    0x10(%rsp),%rsi
  403a61:	e8 7a 52 00 00       	callq  408ce0 <__sprintf_chk@plt+0x67e0>
  403a66:	31 ff                	xor    %edi,%edi
  403a68:	48 89 c3             	mov    %rax,%rbx
  403a6b:	ba 05 00 00 00       	mov    $0x5,%edx
  403a70:	be cd 30 41 00       	mov    $0x4130cd,%esi
  403a75:	e8 76 e5 ff ff       	callq  401ff0 <dcgettext@plt>
  403a7a:	31 f6                	xor    %esi,%esi
  403a7c:	48 89 c2             	mov    %rax,%rdx
  403a7f:	31 ff                	xor    %edi,%edi
  403a81:	48 89 d9             	mov    %rbx,%rcx
  403a84:	31 c0                	xor    %eax,%eax
  403a86:	e8 35 e9 ff ff       	callq  4023c0 <error@plt>
  403a8b:	48 8b 35 7e 69 21 00 	mov    0x21697e(%rip),%rsi        # 61a410 <stdout>
  403a92:	48 89 df             	mov    %rbx,%rdi
  403a95:	e8 16 e7 ff ff       	callq  4021b0 <fputs_unlocked@plt>
  403a9a:	e9 6e ff ff ff       	jmpq   403a0d <__sprintf_chk@plt+0x150d>
  403a9f:	be 09 00 00 00       	mov    $0x9,%esi
  403aa4:	e8 f7 e5 ff ff       	callq  4020a0 <__overflow@plt>
  403aa9:	e9 21 ff ff ff       	jmpq   4039cf <__sprintf_chk@plt+0x14cf>
  403aae:	e8 8d e5 ff ff       	callq  402040 <__stack_chk_fail@plt>
  403ab3:	66 66 66 66 2e 0f 1f 	data32 data32 data32 nopw %cs:0x0(%rax,%rax,1)
  403aba:	84 00 00 00 00 00 
  403ac0:	55                   	push   %rbp
  403ac1:	ba 05 00 00 00       	mov    $0x5,%edx
  403ac6:	53                   	push   %rbx
  403ac7:	89 fb                	mov    %edi,%ebx
  403ac9:	48 83 ec 08          	sub    $0x8,%rsp
  403acd:	85 ff                	test   %edi,%edi
  403acf:	48 8b 2d 2a 6a 21 00 	mov    0x216a2a(%rip),%rbp        # 61a500 <stderr+0xb0>
  403ad6:	74 2c                	je     403b04 <__sprintf_chk@plt+0x1604>
  403ad8:	be 38 34 41 00       	mov    $0x413438,%esi
  403add:	31 ff                	xor    %edi,%edi
  403adf:	e8 0c e5 ff ff       	callq  401ff0 <dcgettext@plt>
  403ae4:	48 8b 3d 65 69 21 00 	mov    0x216965(%rip),%rdi        # 61a450 <stderr>
  403aeb:	48 89 c2             	mov    %rax,%rdx
  403aee:	48 89 e9             	mov    %rbp,%rcx
  403af1:	be 01 00 00 00       	mov    $0x1,%esi
  403af6:	31 c0                	xor    %eax,%eax
  403af8:	e8 73 e9 ff ff       	callq  402470 <__fprintf_chk@plt>
  403afd:	89 df                	mov    %ebx,%edi
  403aff:	e8 4c e9 ff ff       	callq  402450 <exit@plt>
  403b04:	31 ff                	xor    %edi,%edi
  403b06:	be 60 34 41 00       	mov    $0x413460,%esi
  403b0b:	e8 e0 e4 ff ff       	callq  401ff0 <dcgettext@plt>
  403b10:	48 89 e9             	mov    %rbp,%rcx
  403b13:	48 89 ea             	mov    %rbp,%rdx
  403b16:	48 89 c6             	mov    %rax,%rsi
  403b19:	bf 01 00 00 00       	mov    $0x1,%edi
  403b1e:	31 c0                	xor    %eax,%eax
  403b20:	e8 4b e8 ff ff       	callq  402370 <__printf_chk@plt>
  403b25:	48 8b 2d e4 68 21 00 	mov    0x2168e4(%rip),%rbp        # 61a410 <stdout>
  403b2c:	ba 05 00 00 00       	mov    $0x5,%edx
  403b31:	31 ff                	xor    %edi,%edi
  403b33:	be a8 34 41 00       	mov    $0x4134a8,%esi
  403b38:	e8 b3 e4 ff ff       	callq  401ff0 <dcgettext@plt>
  403b3d:	48 89 ee             	mov    %rbp,%rsi
  403b40:	48 89 c7             	mov    %rax,%rdi
  403b43:	e8 68 e6 ff ff       	callq  4021b0 <fputs_unlocked@plt>
  403b48:	48 8b 2d c1 68 21 00 	mov    0x2168c1(%rip),%rbp        # 61a410 <stdout>
  403b4f:	ba 05 00 00 00       	mov    $0x5,%edx
  403b54:	31 ff                	xor    %edi,%edi
  403b56:	be f0 34 41 00       	mov    $0x4134f0,%esi
  403b5b:	e8 90 e4 ff ff       	callq  401ff0 <dcgettext@plt>
  403b60:	48 89 ee             	mov    %rbp,%rsi
  403b63:	48 89 c7             	mov    %rax,%rdi
  403b66:	e8 45 e6 ff ff       	callq  4021b0 <fputs_unlocked@plt>
  403b6b:	48 8b 2d 9e 68 21 00 	mov    0x21689e(%rip),%rbp        # 61a410 <stdout>
  403b72:	ba 05 00 00 00       	mov    $0x5,%edx
  403b77:	31 ff                	xor    %edi,%edi
  403b79:	be 40 35 41 00       	mov    $0x413540,%esi
  403b7e:	e8 6d e4 ff ff       	callq  401ff0 <dcgettext@plt>
  403b83:	48 89 ee             	mov    %rbp,%rsi
  403b86:	48 89 c7             	mov    %rax,%rdi
  403b89:	e8 22 e6 ff ff       	callq  4021b0 <fputs_unlocked@plt>
  403b8e:	48 8b 2d 7b 68 21 00 	mov    0x21687b(%rip),%rbp        # 61a410 <stdout>
  403b95:	ba 05 00 00 00       	mov    $0x5,%edx
  403b9a:	31 ff                	xor    %edi,%edi
  403b9c:	be 08 37 41 00       	mov    $0x413708,%esi
  403ba1:	e8 4a e4 ff ff       	callq  401ff0 <dcgettext@plt>
  403ba6:	48 89 ee             	mov    %rbp,%rsi
  403ba9:	48 89 c7             	mov    %rax,%rdi
  403bac:	e8 ff e5 ff ff       	callq  4021b0 <fputs_unlocked@plt>
  403bb1:	48 8b 2d 58 68 21 00 	mov    0x216858(%rip),%rbp        # 61a410 <stdout>
  403bb8:	ba 05 00 00 00       	mov    $0x5,%edx
  403bbd:	31 ff                	xor    %edi,%edi
  403bbf:	be c0 39 41 00       	mov    $0x4139c0,%esi
  403bc4:	e8 27 e4 ff ff       	callq  401ff0 <dcgettext@plt>
  403bc9:	48 89 ee             	mov    %rbp,%rsi
  403bcc:	48 89 c7             	mov    %rax,%rdi
  403bcf:	e8 dc e5 ff ff       	callq  4021b0 <fputs_unlocked@plt>
  403bd4:	48 8b 2d 35 68 21 00 	mov    0x216835(%rip),%rbp        # 61a410 <stdout>
  403bdb:	ba 05 00 00 00       	mov    $0x5,%edx
  403be0:	31 ff                	xor    %edi,%edi
  403be2:	be 18 3b 41 00       	mov    $0x413b18,%esi
  403be7:	e8 04 e4 ff ff       	callq  401ff0 <dcgettext@plt>
  403bec:	48 89 ee             	mov    %rbp,%rsi
  403bef:	48 89 c7             	mov    %rax,%rdi
  403bf2:	e8 b9 e5 ff ff       	callq  4021b0 <fputs_unlocked@plt>
  403bf7:	48 8b 2d 12 68 21 00 	mov    0x216812(%rip),%rbp        # 61a410 <stdout>
  403bfe:	ba 05 00 00 00       	mov    $0x5,%edx
  403c03:	31 ff                	xor    %edi,%edi
  403c05:	be e8 3b 41 00       	mov    $0x413be8,%esi
  403c0a:	e8 e1 e3 ff ff       	callq  401ff0 <dcgettext@plt>
  403c0f:	48 89 ee             	mov    %rbp,%rsi
  403c12:	48 89 c7             	mov    %rax,%rdi
  403c15:	e8 96 e5 ff ff       	callq  4021b0 <fputs_unlocked@plt>
  403c1a:	48 8b 2d ef 67 21 00 	mov    0x2167ef(%rip),%rbp        # 61a410 <stdout>
  403c21:	ba 05 00 00 00       	mov    $0x5,%edx
  403c26:	31 ff                	xor    %edi,%edi
  403c28:	be f8 3c 41 00       	mov    $0x413cf8,%esi
  403c2d:	e8 be e3 ff ff       	callq  401ff0 <dcgettext@plt>
  403c32:	48 89 ee             	mov    %rbp,%rsi
  403c35:	48 89 c7             	mov    %rax,%rdi
  403c38:	e8 73 e5 ff ff       	callq  4021b0 <fputs_unlocked@plt>
  403c3d:	48 8b 2d cc 67 21 00 	mov    0x2167cc(%rip),%rbp        # 61a410 <stdout>
  403c44:	ba 05 00 00 00       	mov    $0x5,%edx
  403c49:	31 ff                	xor    %edi,%edi
  403c4b:	be 48 3f 41 00       	mov    $0x413f48,%esi
  403c50:	e8 9b e3 ff ff       	callq  401ff0 <dcgettext@plt>
  403c55:	48 89 ee             	mov    %rbp,%rsi
  403c58:	48 89 c7             	mov    %rax,%rdi
  403c5b:	e8 50 e5 ff ff       	callq  4021b0 <fputs_unlocked@plt>
  403c60:	48 8b 2d a9 67 21 00 	mov    0x2167a9(%rip),%rbp        # 61a410 <stdout>
  403c67:	ba 05 00 00 00       	mov    $0x5,%edx
  403c6c:	31 ff                	xor    %edi,%edi
  403c6e:	be 18 40 41 00       	mov    $0x414018,%esi
  403c73:	e8 78 e3 ff ff       	callq  401ff0 <dcgettext@plt>
  403c78:	48 89 ee             	mov    %rbp,%rsi
  403c7b:	48 89 c7             	mov    %rax,%rdi
  403c7e:	e8 2d e5 ff ff       	callq  4021b0 <fputs_unlocked@plt>
  403c83:	48 8b 2d 86 67 21 00 	mov    0x216786(%rip),%rbp        # 61a410 <stdout>
  403c8a:	ba 05 00 00 00       	mov    $0x5,%edx
  403c8f:	31 ff                	xor    %edi,%edi
  403c91:	be 48 40 41 00       	mov    $0x414048,%esi
  403c96:	e8 55 e3 ff ff       	callq  401ff0 <dcgettext@plt>
  403c9b:	48 89 ee             	mov    %rbp,%rsi
  403c9e:	48 89 c7             	mov    %rax,%rdi
  403ca1:	e8 0a e5 ff ff       	callq  4021b0 <fputs_unlocked@plt>
  403ca6:	31 ff                	xor    %edi,%edi
  403ca8:	ba 05 00 00 00       	mov    $0x5,%edx
  403cad:	be 80 40 41 00       	mov    $0x414080,%esi
  403cb2:	e8 39 e3 ff ff       	callq  401ff0 <dcgettext@plt>
  403cb7:	ba eb 30 41 00       	mov    $0x4130eb,%edx
  403cbc:	48 89 c6             	mov    %rax,%rsi
  403cbf:	bf 01 00 00 00       	mov    $0x1,%edi
  403cc4:	31 c0                	xor    %eax,%eax
  403cc6:	e8 a5 e6 ff ff       	callq  402370 <__printf_chk@plt>
  403ccb:	48 8b 2d 3e 67 21 00 	mov    0x21673e(%rip),%rbp        # 61a410 <stdout>
  403cd2:	ba 05 00 00 00       	mov    $0x5,%edx
  403cd7:	31 ff                	xor    %edi,%edi
  403cd9:	be 60 41 41 00       	mov    $0x414160,%esi
  403cde:	e8 0d e3 ff ff       	callq  401ff0 <dcgettext@plt>
  403ce3:	48 89 ee             	mov    %rbp,%rsi
  403ce6:	48 89 c7             	mov    %rax,%rdi
  403ce9:	e8 c2 e4 ff ff       	callq  4021b0 <fputs_unlocked@plt>
  403cee:	48 8b 3d 0b 68 21 00 	mov    0x21680b(%rip),%rdi        # 61a500 <stderr+0xb0>
  403cf5:	e8 96 09 00 00       	callq  404690 <__sprintf_chk@plt+0x2190>
  403cfa:	31 ff                	xor    %edi,%edi
  403cfc:	48 89 c5             	mov    %rax,%rbp
  403cff:	ba 05 00 00 00       	mov    $0x5,%edx
  403d04:	be ee 30 41 00       	mov    $0x4130ee,%esi
  403d09:	e8 e2 e2 ff ff       	callq  401ff0 <dcgettext@plt>
  403d0e:	b9 05 31 41 00       	mov    $0x413105,%ecx
  403d13:	48 89 ea             	mov    %rbp,%rdx
  403d16:	48 89 c6             	mov    %rax,%rsi
  403d19:	bf 01 00 00 00       	mov    $0x1,%edi
  403d1e:	31 c0                	xor    %eax,%eax
  403d20:	e8 4b e6 ff ff       	callq  402370 <__printf_chk@plt>
  403d25:	31 ff                	xor    %edi,%edi
  403d27:	ba 05 00 00 00       	mov    $0x5,%edx
  403d2c:	be 1b 31 41 00       	mov    $0x41311b,%esi
  403d31:	e8 ba e2 ff ff       	callq  401ff0 <dcgettext@plt>
  403d36:	b9 00 42 41 00       	mov    $0x414200,%ecx
  403d3b:	48 89 c6             	mov    %rax,%rsi
  403d3e:	ba 2f 31 41 00       	mov    $0x41312f,%edx
  403d43:	bf 01 00 00 00       	mov    $0x1,%edi
  403d48:	31 c0                	xor    %eax,%eax
  403d4a:	e8 21 e6 ff ff       	callq  402370 <__printf_chk@plt>
  403d4f:	48 8b 2d ba 66 21 00 	mov    0x2166ba(%rip),%rbp        # 61a410 <stdout>
  403d56:	ba 05 00 00 00       	mov    $0x5,%edx
  403d5b:	31 ff                	xor    %edi,%edi
  403d5d:	be 28 42 41 00       	mov    $0x414228,%esi
  403d62:	e8 89 e2 ff ff       	callq  401ff0 <dcgettext@plt>
  403d67:	48 89 ee             	mov    %rbp,%rsi
  403d6a:	48 89 c7             	mov    %rax,%rdi
  403d6d:	e8 3e e4 ff ff       	callq  4021b0 <fputs_unlocked@plt>
  403d72:	31 f6                	xor    %esi,%esi
  403d74:	bf 05 00 00 00       	mov    $0x5,%edi
  403d79:	e8 e2 e5 ff ff       	callq  402360 <setlocale@plt>
  403d7e:	48 85 c0             	test   %rax,%rax
  403d81:	74 16                	je     403d99 <__sprintf_chk@plt+0x1899>
  403d83:	ba 03 00 00 00       	mov    $0x3,%edx
  403d88:	be 3d 31 41 00       	mov    $0x41313d,%esi
  403d8d:	48 89 c7             	mov    %rax,%rdi
  403d90:	e8 8b e1 ff ff       	callq  401f20 <strncmp@plt>
  403d95:	85 c0                	test   %eax,%eax
  403d97:	75 37                	jne    403dd0 <__sprintf_chk@plt+0x18d0>
  403d99:	48 8b 3d 60 67 21 00 	mov    0x216760(%rip),%rdi        # 61a500 <stderr+0xb0>
  403da0:	e8 eb 08 00 00       	callq  404690 <__sprintf_chk@plt+0x2190>
  403da5:	31 ff                	xor    %edi,%edi
  403da7:	48 89 c5             	mov    %rax,%rbp
  403daa:	ba 05 00 00 00       	mov    $0x5,%edx
  403daf:	be b0 42 41 00       	mov    $0x4142b0,%esi
  403db4:	e8 37 e2 ff ff       	callq  401ff0 <dcgettext@plt>
  403db9:	48 89 ea             	mov    %rbp,%rdx
  403dbc:	48 89 c6             	mov    %rax,%rsi
  403dbf:	bf 01 00 00 00       	mov    $0x1,%edi
  403dc4:	31 c0                	xor    %eax,%eax
  403dc6:	e8 a5 e5 ff ff       	callq  402370 <__printf_chk@plt>
  403dcb:	e9 2d fd ff ff       	jmpq   403afd <__sprintf_chk@plt+0x15fd>
  403dd0:	48 8b 3d 29 67 21 00 	mov    0x216729(%rip),%rdi        # 61a500 <stderr+0xb0>
  403dd7:	e8 b4 08 00 00       	callq  404690 <__sprintf_chk@plt+0x2190>
  403ddc:	31 ff                	xor    %edi,%edi
  403dde:	48 89 c5             	mov    %rax,%rbp
  403de1:	ba 05 00 00 00       	mov    $0x5,%edx
  403de6:	be 68 42 41 00       	mov    $0x414268,%esi
  403deb:	e8 00 e2 ff ff       	callq  401ff0 <dcgettext@plt>
  403df0:	48 89 ea             	mov    %rbp,%rdx
  403df3:	48 89 c6             	mov    %rax,%rsi
  403df6:	bf 01 00 00 00       	mov    $0x1,%edi
  403dfb:	31 c0                	xor    %eax,%eax
  403dfd:	e8 6e e5 ff ff       	callq  402370 <__printf_chk@plt>
  403e02:	eb 95                	jmp    403d99 <__sprintf_chk@plt+0x1899>
  403e04:	66 2e 0f 1f 84 00 00 	nopw   %cs:0x0(%rax,%rax,1)
  403e0b:	00 00 00 
  403e0e:	66 90                	xchg   %ax,%ax
  403e10:	bf 01 00 00 00       	mov    $0x1,%edi
  403e15:	e9 a6 fc ff ff       	jmpq   403ac0 <__sprintf_chk@plt+0x15c0>
  403e1a:	66 0f 1f 44 00 00    	nopw   0x0(%rax,%rax,1)
  403e20:	41 57                	push   %r15
  403e22:	49 89 f7             	mov    %rsi,%r15
  403e25:	41 56                	push   %r14
  403e27:	41 55                	push   %r13
  403e29:	41 54                	push   %r12
  403e2b:	49 89 cc             	mov    %rcx,%r12
  403e2e:	55                   	push   %rbp
  403e2f:	48 89 d5             	mov    %rdx,%rbp
  403e32:	53                   	push   %rbx
  403e33:	48 83 ec 28          	sub    $0x28,%rsp
  403e37:	48 89 3c 24          	mov    %rdi,(%rsp)
  403e3b:	48 89 54 24 18       	mov    %rdx,0x18(%rsp)
  403e40:	e8 cb e1 ff ff       	callq  402010 <strlen@plt>
  403e45:	4d 8b 37             	mov    (%r15),%r14
  403e48:	4d 85 f6             	test   %r14,%r14
  403e4b:	0f 84 f1 00 00 00    	je     403f42 <__sprintf_chk@plt+0x1a42>
  403e51:	49 89 c5             	mov    %rax,%r13
  403e54:	c6 44 24 17 00       	movb   $0x0,0x17(%rsp)
  403e59:	48 c7 44 24 08 ff ff 	movq   $0xffffffffffffffff,0x8(%rsp)
  403e60:	ff ff 
  403e62:	31 db                	xor    %ebx,%ebx
  403e64:	eb 52                	jmp    403eb8 <__sprintf_chk@plt+0x19b8>
  403e66:	66 2e 0f 1f 84 00 00 	nopw   %cs:0x0(%rax,%rax,1)
  403e6d:	00 00 00 
  403e70:	48 8b 44 24 18       	mov    0x18(%rsp),%rax
  403e75:	48 85 c0             	test   %rax,%rax
  403e78:	0f 84 a2 00 00 00    	je     403f20 <__sprintf_chk@plt+0x1a20>
  403e7e:	48 8b 7c 24 08       	mov    0x8(%rsp),%rdi
  403e83:	4c 89 e2             	mov    %r12,%rdx
  403e86:	48 89 ee             	mov    %rbp,%rsi
  403e89:	49 0f af fc          	imul   %r12,%rdi
  403e8d:	48 01 c7             	add    %rax,%rdi
  403e90:	e8 0b e3 ff ff       	callq  4021a0 <memcmp@plt>
  403e95:	0f b6 4c 24 17       	movzbl 0x17(%rsp),%ecx
  403e9a:	85 c0                	test   %eax,%eax
  403e9c:	b8 01 00 00 00       	mov    $0x1,%eax
  403ea1:	0f 45 c8             	cmovne %eax,%ecx
  403ea4:	88 4c 24 17          	mov    %cl,0x17(%rsp)
  403ea8:	48 83 c3 01          	add    $0x1,%rbx
  403eac:	4c 01 e5             	add    %r12,%rbp
  403eaf:	4d 8b 34 df          	mov    (%r15,%rbx,8),%r14
  403eb3:	4d 85 f6             	test   %r14,%r14
  403eb6:	74 40                	je     403ef8 <__sprintf_chk@plt+0x19f8>
  403eb8:	48 8b 34 24          	mov    (%rsp),%rsi
  403ebc:	4c 89 ea             	mov    %r13,%rdx
  403ebf:	4c 89 f7             	mov    %r14,%rdi
  403ec2:	e8 59 e0 ff ff       	callq  401f20 <strncmp@plt>
  403ec7:	85 c0                	test   %eax,%eax
  403ec9:	75 dd                	jne    403ea8 <__sprintf_chk@plt+0x19a8>
  403ecb:	4c 89 f7             	mov    %r14,%rdi
  403ece:	e8 3d e1 ff ff       	callq  402010 <strlen@plt>
  403ed3:	4c 39 e8             	cmp    %r13,%rax
  403ed6:	74 58                	je     403f30 <__sprintf_chk@plt+0x1a30>
  403ed8:	48 83 7c 24 08 ff    	cmpq   $0xffffffffffffffff,0x8(%rsp)
  403ede:	75 90                	jne    403e70 <__sprintf_chk@plt+0x1970>
  403ee0:	48 89 5c 24 08       	mov    %rbx,0x8(%rsp)
  403ee5:	48 83 c3 01          	add    $0x1,%rbx
  403ee9:	4c 01 e5             	add    %r12,%rbp
  403eec:	4d 8b 34 df          	mov    (%r15,%rbx,8),%r14
  403ef0:	4d 85 f6             	test   %r14,%r14
  403ef3:	75 c3                	jne    403eb8 <__sprintf_chk@plt+0x19b8>
  403ef5:	0f 1f 00             	nopl   (%rax)
  403ef8:	80 7c 24 17 00       	cmpb   $0x0,0x17(%rsp)
  403efd:	48 c7 c0 fe ff ff ff 	mov    $0xfffffffffffffffe,%rax
  403f04:	75 05                	jne    403f0b <__sprintf_chk@plt+0x1a0b>
  403f06:	48 8b 44 24 08       	mov    0x8(%rsp),%rax
  403f0b:	48 83 c4 28          	add    $0x28,%rsp
  403f0f:	5b                   	pop    %rbx
  403f10:	5d                   	pop    %rbp
  403f11:	41 5c                	pop    %r12
  403f13:	41 5d                	pop    %r13
  403f15:	41 5e                	pop    %r14
  403f17:	41 5f                	pop    %r15
  403f19:	c3                   	retq   
  403f1a:	66 0f 1f 44 00 00    	nopw   0x0(%rax,%rax,1)
  403f20:	c6 44 24 17 01       	movb   $0x1,0x17(%rsp)
  403f25:	eb 81                	jmp    403ea8 <__sprintf_chk@plt+0x19a8>
  403f27:	66 0f 1f 84 00 00 00 	nopw   0x0(%rax,%rax,1)
  403f2e:	00 00 
  403f30:	48 83 c4 28          	add    $0x28,%rsp
  403f34:	48 89 d8             	mov    %rbx,%rax
  403f37:	5b                   	pop    %rbx
  403f38:	5d                   	pop    %rbp
  403f39:	41 5c                	pop    %r12
  403f3b:	41 5d                	pop    %r13
  403f3d:	41 5e                	pop    %r14
  403f3f:	41 5f                	pop    %r15
  403f41:	c3                   	retq   
  403f42:	48 c7 44 24 08 ff ff 	movq   $0xffffffffffffffff,0x8(%rsp)
  403f49:	ff ff 
  403f4b:	eb b9                	jmp    403f06 <__sprintf_chk@plt+0x1a06>
  403f4d:	0f 1f 00             	nopl   (%rax)
  403f50:	41 54                	push   %r12
  403f52:	48 83 fa ff          	cmp    $0xffffffffffffffff,%rdx
  403f56:	ba 05 00 00 00       	mov    $0x5,%edx
  403f5b:	55                   	push   %rbp
  403f5c:	48 89 fd             	mov    %rdi,%rbp
  403f5f:	53                   	push   %rbx
  403f60:	48 89 f3             	mov    %rsi,%rbx
  403f63:	74 4b                	je     403fb0 <__sprintf_chk@plt+0x1ab0>
  403f65:	be a0 51 41 00       	mov    $0x4151a0,%esi
  403f6a:	31 ff                	xor    %edi,%edi
  403f6c:	e8 7f e0 ff ff       	callq  401ff0 <dcgettext@plt>
  403f71:	49 89 c4             	mov    %rax,%r12
  403f74:	48 89 ee             	mov    %rbp,%rsi
  403f77:	bf 01 00 00 00       	mov    $0x1,%edi
  403f7c:	e8 bf 77 00 00       	callq  40b740 <__sprintf_chk@plt+0x9240>
  403f81:	48 89 da             	mov    %rbx,%rdx
  403f84:	be 06 00 00 00       	mov    $0x6,%esi
  403f89:	31 ff                	xor    %edi,%edi
  403f8b:	48 89 c5             	mov    %rax,%rbp
  403f8e:	e8 2d 75 00 00       	callq  40b4c0 <__sprintf_chk@plt+0x8fc0>
  403f93:	5b                   	pop    %rbx
  403f94:	49 89 e8             	mov    %rbp,%r8
  403f97:	4c 89 e2             	mov    %r12,%rdx
  403f9a:	48 89 c1             	mov    %rax,%rcx
  403f9d:	5d                   	pop    %rbp
  403f9e:	41 5c                	pop    %r12
  403fa0:	31 f6                	xor    %esi,%esi
  403fa2:	31 ff                	xor    %edi,%edi
  403fa4:	31 c0                	xor    %eax,%eax
  403fa6:	e9 15 e4 ff ff       	jmpq   4023c0 <error@plt>
  403fab:	0f 1f 44 00 00       	nopl   0x0(%rax,%rax,1)
  403fb0:	be 85 51 41 00       	mov    $0x415185,%esi
  403fb5:	31 ff                	xor    %edi,%edi
  403fb7:	e8 34 e0 ff ff       	callq  401ff0 <dcgettext@plt>
  403fbc:	49 89 c4             	mov    %rax,%r12
  403fbf:	eb b3                	jmp    403f74 <__sprintf_chk@plt+0x1a74>
  403fc1:	66 66 66 66 66 66 2e 	data32 data32 data32 data32 data32 nopw %cs:0x0(%rax,%rax,1)
  403fc8:	0f 1f 84 00 00 00 00 
  403fcf:	00 
  403fd0:	41 57                	push   %r15
  403fd2:	49 89 ff             	mov    %rdi,%r15
  403fd5:	31 ff                	xor    %edi,%edi
  403fd7:	41 56                	push   %r14
  403fd9:	45 31 f6             	xor    %r14d,%r14d
  403fdc:	41 55                	push   %r13
  403fde:	49 89 d5             	mov    %rdx,%r13
  403fe1:	ba 05 00 00 00       	mov    $0x5,%edx
  403fe6:	41 54                	push   %r12
  403fe8:	55                   	push   %rbp
  403fe9:	48 89 f5             	mov    %rsi,%rbp
  403fec:	be bd 51 41 00       	mov    $0x4151bd,%esi
  403ff1:	53                   	push   %rbx
  403ff2:	48 83 ec 08          	sub    $0x8,%rsp
  403ff6:	48 8b 1d 53 64 21 00 	mov    0x216453(%rip),%rbx        # 61a450 <stderr>
  403ffd:	e8 ee df ff ff       	callq  401ff0 <dcgettext@plt>
  404002:	48 89 c7             	mov    %rax,%rdi
  404005:	48 89 de             	mov    %rbx,%rsi
  404008:	31 db                	xor    %ebx,%ebx
  40400a:	e8 a1 e1 ff ff       	callq  4021b0 <fputs_unlocked@plt>
  40400f:	4d 8b 27             	mov    (%r15),%r12
  404012:	4d 85 e4             	test   %r12,%r12
  404015:	75 3f                	jne    404056 <__sprintf_chk@plt+0x1b56>
  404017:	e9 84 00 00 00       	jmpq   4040a0 <__sprintf_chk@plt+0x1ba0>
  40401c:	0f 1f 40 00          	nopl   0x0(%rax)
  404020:	4c 89 e7             	mov    %r12,%rdi
  404023:	48 83 c3 01          	add    $0x1,%rbx
  404027:	49 89 ee             	mov    %rbp,%r14
  40402a:	e8 31 77 00 00       	callq  40b760 <__sprintf_chk@plt+0x9260>
  40402f:	48 8b 3d 1a 64 21 00 	mov    0x21641a(%rip),%rdi        # 61a450 <stderr>
  404036:	48 89 c1             	mov    %rax,%rcx
  404039:	ba d2 51 41 00       	mov    $0x4151d2,%edx
  40403e:	31 c0                	xor    %eax,%eax
  404040:	be 01 00 00 00       	mov    $0x1,%esi
  404045:	4c 01 ed             	add    %r13,%rbp
  404048:	e8 23 e4 ff ff       	callq  402470 <__fprintf_chk@plt>
  40404d:	4d 8b 24 df          	mov    (%r15,%rbx,8),%r12
  404051:	4d 85 e4             	test   %r12,%r12
  404054:	74 4a                	je     4040a0 <__sprintf_chk@plt+0x1ba0>
  404056:	48 85 db             	test   %rbx,%rbx
  404059:	74 c5                	je     404020 <__sprintf_chk@plt+0x1b20>
  40405b:	4c 89 ea             	mov    %r13,%rdx
  40405e:	48 89 ee             	mov    %rbp,%rsi
  404061:	4c 89 f7             	mov    %r14,%rdi
  404064:	e8 37 e1 ff ff       	callq  4021a0 <memcmp@plt>
  404069:	85 c0                	test   %eax,%eax
  40406b:	75 b3                	jne    404020 <__sprintf_chk@plt+0x1b20>
  40406d:	4c 89 e7             	mov    %r12,%rdi
  404070:	48 83 c3 01          	add    $0x1,%rbx
  404074:	4c 01 ed             	add    %r13,%rbp
  404077:	e8 e4 76 00 00       	callq  40b760 <__sprintf_chk@plt+0x9260>
  40407c:	48 8b 3d cd 63 21 00 	mov    0x2163cd(%rip),%rdi        # 61a450 <stderr>
  404083:	48 89 c1             	mov    %rax,%rcx
  404086:	ba da 51 41 00       	mov    $0x4151da,%edx
  40408b:	31 c0                	xor    %eax,%eax
  40408d:	be 01 00 00 00       	mov    $0x1,%esi
  404092:	e8 d9 e3 ff ff       	callq  402470 <__fprintf_chk@plt>
  404097:	4d 8b 24 df          	mov    (%r15,%rbx,8),%r12
  40409b:	4d 85 e4             	test   %r12,%r12
  40409e:	75 b6                	jne    404056 <__sprintf_chk@plt+0x1b56>
  4040a0:	48 8b 3d a9 63 21 00 	mov    0x2163a9(%rip),%rdi        # 61a450 <stderr>
  4040a7:	48 8b 47 28          	mov    0x28(%rdi),%rax
  4040ab:	48 3b 47 30          	cmp    0x30(%rdi),%rax
  4040af:	73 1a                	jae    4040cb <__sprintf_chk@plt+0x1bcb>
  4040b1:	48 8d 50 01          	lea    0x1(%rax),%rdx
  4040b5:	48 89 57 28          	mov    %rdx,0x28(%rdi)
  4040b9:	c6 00 0a             	movb   $0xa,(%rax)
  4040bc:	48 83 c4 08          	add    $0x8,%rsp
  4040c0:	5b                   	pop    %rbx
  4040c1:	5d                   	pop    %rbp
  4040c2:	41 5c                	pop    %r12
  4040c4:	41 5d                	pop    %r13
  4040c6:	41 5e                	pop    %r14
  4040c8:	41 5f                	pop    %r15
  4040ca:	c3                   	retq   
  4040cb:	48 83 c4 08          	add    $0x8,%rsp
  4040cf:	be 0a 00 00 00       	mov    $0xa,%esi
  4040d4:	5b                   	pop    %rbx
  4040d5:	5d                   	pop    %rbp
  4040d6:	41 5c                	pop    %r12
  4040d8:	41 5d                	pop    %r13
  4040da:	41 5e                	pop    %r14
  4040dc:	41 5f                	pop    %r15
  4040de:	e9 bd df ff ff       	jmpq   4020a0 <__overflow@plt>
  4040e3:	66 66 66 66 2e 0f 1f 	data32 data32 data32 nopw %cs:0x0(%rax,%rax,1)
  4040ea:	84 00 00 00 00 00 
  4040f0:	41 57                	push   %r15
  4040f2:	4d 89 c7             	mov    %r8,%r15
  4040f5:	41 56                	push   %r14
  4040f7:	49 89 fe             	mov    %rdi,%r14
  4040fa:	41 55                	push   %r13
  4040fc:	4d 89 cd             	mov    %r9,%r13
  4040ff:	41 54                	push   %r12
  404101:	49 89 f4             	mov    %rsi,%r12
  404104:	4c 89 e7             	mov    %r12,%rdi
  404107:	55                   	push   %rbp
  404108:	48 89 cd             	mov    %rcx,%rbp
  40410b:	4c 89 c1             	mov    %r8,%rcx
  40410e:	53                   	push   %rbx
  40410f:	48 89 d3             	mov    %rdx,%rbx
  404112:	48 89 ea             	mov    %rbp,%rdx
  404115:	48 89 de             	mov    %rbx,%rsi
  404118:	48 83 ec 08          	sub    $0x8,%rsp
  40411c:	e8 ff fc ff ff       	callq  403e20 <__sprintf_chk@plt+0x1920>
  404121:	48 85 c0             	test   %rax,%rax
  404124:	78 0f                	js     404135 <__sprintf_chk@plt+0x1c35>
  404126:	48 83 c4 08          	add    $0x8,%rsp
  40412a:	5b                   	pop    %rbx
  40412b:	5d                   	pop    %rbp
  40412c:	41 5c                	pop    %r12
  40412e:	41 5d                	pop    %r13
  404130:	41 5e                	pop    %r14
  404132:	41 5f                	pop    %r15
  404134:	c3                   	retq   
  404135:	48 89 c2             	mov    %rax,%rdx
  404138:	4c 89 e6             	mov    %r12,%rsi
  40413b:	4c 89 f7             	mov    %r14,%rdi
  40413e:	e8 0d fe ff ff       	callq  403f50 <__sprintf_chk@plt+0x1a50>
  404143:	4c 89 fa             	mov    %r15,%rdx
  404146:	48 89 ee             	mov    %rbp,%rsi
  404149:	48 89 df             	mov    %rbx,%rdi
  40414c:	e8 7f fe ff ff       	callq  403fd0 <__sprintf_chk@plt+0x1ad0>
  404151:	41 ff d5             	callq  *%r13
  404154:	48 c7 c0 ff ff ff ff 	mov    $0xffffffffffffffff,%rax
  40415b:	eb c9                	jmp    404126 <__sprintf_chk@plt+0x1c26>
  40415d:	0f 1f 00             	nopl   (%rax)
  404160:	41 56                	push   %r14
  404162:	41 55                	push   %r13
  404164:	41 54                	push   %r12
  404166:	55                   	push   %rbp
  404167:	53                   	push   %rbx
  404168:	4c 8b 26             	mov    (%rsi),%r12
  40416b:	4d 85 e4             	test   %r12,%r12
  40416e:	74 32                	je     4041a2 <__sprintf_chk@plt+0x1ca2>
  404170:	49 89 fe             	mov    %rdi,%r14
  404173:	49 89 cd             	mov    %rcx,%r13
  404176:	48 89 d3             	mov    %rdx,%rbx
  404179:	48 8d 6e 08          	lea    0x8(%rsi),%rbp
  40417d:	eb 11                	jmp    404190 <__sprintf_chk@plt+0x1c90>
  40417f:	90                   	nop
  404180:	4c 8b 65 00          	mov    0x0(%rbp),%r12
  404184:	4c 01 eb             	add    %r13,%rbx
  404187:	48 83 c5 08          	add    $0x8,%rbp
  40418b:	4d 85 e4             	test   %r12,%r12
  40418e:	74 12                	je     4041a2 <__sprintf_chk@plt+0x1ca2>
  404190:	4c 89 ea             	mov    %r13,%rdx
  404193:	48 89 de             	mov    %rbx,%rsi
  404196:	4c 89 f7             	mov    %r14,%rdi
  404199:	e8 02 e0 ff ff       	callq  4021a0 <memcmp@plt>
  40419e:	85 c0                	test   %eax,%eax
  4041a0:	75 de                	jne    404180 <__sprintf_chk@plt+0x1c80>
  4041a2:	5b                   	pop    %rbx
  4041a3:	5d                   	pop    %rbp
  4041a4:	4c 89 e0             	mov    %r12,%rax
  4041a7:	41 5c                	pop    %r12
  4041a9:	41 5d                	pop    %r13
  4041ab:	41 5e                	pop    %r14
  4041ad:	c3                   	retq   
  4041ae:	66 90                	xchg   %ax,%ax
  4041b0:	53                   	push   %rbx
  4041b1:	48 89 fb             	mov    %rdi,%rbx
  4041b4:	bf 30 00 00 00       	mov    $0x30,%edi
  4041b9:	e8 d2 e0 ff ff       	callq  402290 <malloc@plt>
  4041be:	48 85 c0             	test   %rax,%rax
  4041c1:	74 0f                	je     4041d2 <__sprintf_chk@plt+0x1cd2>
  4041c3:	48 c7 00 00 00 00 00 	movq   $0x0,(%rax)
  4041ca:	48 89 58 20          	mov    %rbx,0x20(%rax)
  4041ce:	48 89 58 28          	mov    %rbx,0x28(%rax)
  4041d2:	5b                   	pop    %rbx
  4041d3:	c3                   	retq   
  4041d4:	66 66 66 2e 0f 1f 84 	data32 data32 nopw %cs:0x0(%rax,%rax,1)
  4041db:	00 00 00 00 00 
  4041e0:	53                   	push   %rbx
  4041e1:	48 89 fb             	mov    %rdi,%rbx
  4041e4:	bf 30 00 00 00       	mov    $0x30,%edi
  4041e9:	e8 a2 e0 ff ff       	callq  402290 <malloc@plt>
  4041ee:	48 85 c0             	test   %rax,%rax
  4041f1:	74 23                	je     404216 <__sprintf_chk@plt+0x1d16>
  4041f3:	48 89 18             	mov    %rbx,(%rax)
  4041f6:	48 c7 40 10 00 00 00 	movq   $0x0,0x10(%rax)
  4041fd:	00 
  4041fe:	48 c7 40 18 00 00 00 	movq   $0x0,0x18(%rax)
  404205:	00 
  404206:	48 c7 40 08 00 00 00 	movq   $0x0,0x8(%rax)
  40420d:	00 
  40420e:	48 c7 40 20 00 00 00 	movq   $0x0,0x20(%rax)
  404215:	00 
  404216:	5b                   	pop    %rbx
  404217:	c3                   	retq   
  404218:	0f 1f 84 00 00 00 00 	nopl   0x0(%rax,%rax,1)
  40421f:	00 
  404220:	55                   	push   %rbp
  404221:	48 89 f5             	mov    %rsi,%rbp
  404224:	53                   	push   %rbx
  404225:	48 89 fb             	mov    %rdi,%rbx
  404228:	48 83 ec 08          	sub    $0x8,%rsp
  40422c:	48 8b 0f             	mov    (%rdi),%rcx
  40422f:	48 85 c9             	test   %rcx,%rcx
  404232:	74 2c                	je     404260 <__sprintf_chk@plt+0x1d60>
  404234:	48 8d 77 18          	lea    0x18(%rdi),%rsi
  404238:	48 8d 7f 10          	lea    0x10(%rdi),%rdi
  40423c:	31 d2                	xor    %edx,%edx
  40423e:	e8 6d e2 ff ff       	callq  4024b0 <getdelim@plt>
  404243:	48 85 c0             	test   %rax,%rax
  404246:	78 40                	js     404288 <__sprintf_chk@plt+0x1d88>
  404248:	c7 45 00 01 00 00 00 	movl   $0x1,0x0(%rbp)
  40424f:	48 83 43 08 01       	addq   $0x1,0x8(%rbx)
  404254:	48 8b 43 10          	mov    0x10(%rbx),%rax
  404258:	48 83 c4 08          	add    $0x8,%rsp
  40425c:	5b                   	pop    %rbx
  40425d:	5d                   	pop    %rbp
  40425e:	c3                   	retq   
  40425f:	90                   	nop
  404260:	48 8b 57 28          	mov    0x28(%rdi),%rdx
  404264:	48 8b 02             	mov    (%rdx),%rax
  404267:	48 85 c0             	test   %rax,%rax
  40426a:	74 36                	je     4042a2 <__sprintf_chk@plt+0x1da2>
  40426c:	48 8d 42 08          	lea    0x8(%rdx),%rax
  404270:	c7 06 01 00 00 00    	movl   $0x1,(%rsi)
  404276:	48 89 47 28          	mov    %rax,0x28(%rdi)
  40427a:	48 8b 02             	mov    (%rdx),%rax
  40427d:	48 83 c4 08          	add    $0x8,%rsp
  404281:	5b                   	pop    %rbx
  404282:	5d                   	pop    %rbp
  404283:	c3                   	retq   
  404284:	0f 1f 40 00          	nopl   0x0(%rax)
  404288:	48 8b 3b             	mov    (%rbx),%rdi
  40428b:	e8 80 df ff ff       	callq  402210 <feof@plt>
  404290:	83 f8 01             	cmp    $0x1,%eax
  404293:	19 c0                	sbb    %eax,%eax
  404295:	83 e0 02             	and    $0x2,%eax
  404298:	83 c0 02             	add    $0x2,%eax
  40429b:	89 45 00             	mov    %eax,0x0(%rbp)
  40429e:	31 c0                	xor    %eax,%eax
  4042a0:	eb b6                	jmp    404258 <__sprintf_chk@plt+0x1d58>
  4042a2:	c7 06 02 00 00 00    	movl   $0x2,(%rsi)
  4042a8:	eb ae                	jmp    404258 <__sprintf_chk@plt+0x1d58>
  4042aa:	66 0f 1f 44 00 00    	nopw   0x0(%rax,%rax,1)
  4042b0:	48 83 3f 00          	cmpq   $0x0,(%rdi)
  4042b4:	74 0a                	je     4042c0 <__sprintf_chk@plt+0x1dc0>
  4042b6:	48 8b 47 08          	mov    0x8(%rdi),%rax
  4042ba:	c3                   	retq   
  4042bb:	0f 1f 44 00 00       	nopl   0x0(%rax,%rax,1)
  4042c0:	48 8b 47 28          	mov    0x28(%rdi),%rax
  4042c4:	48 2b 47 20          	sub    0x20(%rdi),%rax
  4042c8:	48 c1 f8 03          	sar    $0x3,%rax
  4042cc:	c3                   	retq   
  4042cd:	0f 1f 00             	nopl   (%rax)
  4042d0:	53                   	push   %rbx
  4042d1:	48 83 3f 00          	cmpq   $0x0,(%rdi)
  4042d5:	48 89 fb             	mov    %rdi,%rbx
  4042d8:	74 09                	je     4042e3 <__sprintf_chk@plt+0x1de3>
  4042da:	48 8b 7f 10          	mov    0x10(%rdi),%rdi
  4042de:	e8 ed db ff ff       	callq  401ed0 <free@plt>
  4042e3:	48 89 df             	mov    %rbx,%rdi
  4042e6:	5b                   	pop    %rbx
  4042e7:	e9 e4 db ff ff       	jmpq   401ed0 <free@plt>
  4042ec:	0f 1f 40 00          	nopl   0x0(%rax)
  4042f0:	48 89 3d 01 62 21 00 	mov    %rdi,0x216201(%rip)        # 61a4f8 <stderr+0xa8>
  4042f7:	c3                   	retq   
  4042f8:	0f 1f 84 00 00 00 00 	nopl   0x0(%rax,%rax,1)
  4042ff:	00 
  404300:	40 88 3d e9 61 21 00 	mov    %dil,0x2161e9(%rip)        # 61a4f0 <stderr+0xa0>
  404307:	c3                   	retq   
  404308:	0f 1f 84 00 00 00 00 	nopl   0x0(%rax,%rax,1)
  40430f:	00 
  404310:	55                   	push   %rbp
  404311:	53                   	push   %rbx
  404312:	48 83 ec 08          	sub    $0x8,%rsp
  404316:	48 8b 3d f3 60 21 00 	mov    0x2160f3(%rip),%rdi        # 61a410 <stdout>
  40431d:	e8 3e c0 00 00       	callq  410360 <fts_children+0x9a0>
  404322:	85 c0                	test   %eax,%eax
  404324:	74 13                	je     404339 <__sprintf_chk@plt+0x1e39>
  404326:	80 3d c3 61 21 00 00 	cmpb   $0x0,0x2161c3(%rip)        # 61a4f0 <stderr+0xa0>
  40432d:	74 21                	je     404350 <__sprintf_chk@plt+0x1e50>
  40432f:	e8 dc db ff ff       	callq  401f10 <__errno_location@plt>
  404334:	83 38 20             	cmpl   $0x20,(%rax)
  404337:	75 17                	jne    404350 <__sprintf_chk@plt+0x1e50>
  404339:	48 8b 3d 10 61 21 00 	mov    0x216110(%rip),%rdi        # 61a450 <stderr>
  404340:	e8 1b c0 00 00       	callq  410360 <fts_children+0x9a0>
  404345:	85 c0                	test   %eax,%eax
  404347:	75 4a                	jne    404393 <__sprintf_chk@plt+0x1e93>
  404349:	48 83 c4 08          	add    $0x8,%rsp
  40434d:	5b                   	pop    %rbx
  40434e:	5d                   	pop    %rbp
  40434f:	c3                   	retq   
  404350:	31 ff                	xor    %edi,%edi
  404352:	ba 05 00 00 00       	mov    $0x5,%edx
  404357:	be df 51 41 00       	mov    $0x4151df,%esi
  40435c:	e8 8f dc ff ff       	callq  401ff0 <dcgettext@plt>
  404361:	48 8b 3d 90 61 21 00 	mov    0x216190(%rip),%rdi        # 61a4f8 <stderr+0xa8>
  404368:	48 89 c3             	mov    %rax,%rbx
  40436b:	48 85 ff             	test   %rdi,%rdi
  40436e:	74 2e                	je     40439e <__sprintf_chk@plt+0x1e9e>
  404370:	e8 8b 72 00 00       	callq  40b600 <__sprintf_chk@plt+0x9100>
  404375:	48 89 c5             	mov    %rax,%rbp
  404378:	e8 93 db ff ff       	callq  401f10 <__errno_location@plt>
  40437d:	8b 30                	mov    (%rax),%esi
  40437f:	49 89 d8             	mov    %rbx,%r8
  404382:	48 89 e9             	mov    %rbp,%rcx
  404385:	ba eb 51 41 00       	mov    $0x4151eb,%edx
  40438a:	31 ff                	xor    %edi,%edi
  40438c:	31 c0                	xor    %eax,%eax
  40438e:	e8 2d e0 ff ff       	callq  4023c0 <error@plt>
  404393:	8b 3d ef 5f 21 00    	mov    0x215fef(%rip),%edi        # 61a388 <fts_children+0x20a9c8>
  404399:	e8 92 db ff ff       	callq  401f30 <_exit@plt>
  40439e:	e8 6d db ff ff       	callq  401f10 <__errno_location@plt>
  4043a3:	8b 30                	mov    (%rax),%esi
  4043a5:	48 89 d9             	mov    %rbx,%rcx
  4043a8:	ba dc 51 41 00       	mov    $0x4151dc,%edx
  4043ad:	31 ff                	xor    %edi,%edi
  4043af:	31 c0                	xor    %eax,%eax
  4043b1:	e8 0a e0 ff ff       	callq  4023c0 <error@plt>
  4043b6:	eb db                	jmp    404393 <__sprintf_chk@plt+0x1e93>
  4043b8:	0f 1f 84 00 00 00 00 	nopl   0x0(%rax,%rax,1)
  4043bf:	00 
  4043c0:	48 8b 07             	mov    (%rdi),%rax
  4043c3:	31 d2                	xor    %edx,%edx
  4043c5:	48 f7 f6             	div    %rsi
  4043c8:	48 89 d0             	mov    %rdx,%rax
  4043cb:	c3                   	retq   
  4043cc:	0f 1f 40 00          	nopl   0x0(%rax)
  4043d0:	48 8b 06             	mov    (%rsi),%rax
  4043d3:	48 39 07             	cmp    %rax,(%rdi)
  4043d6:	0f 94 c0             	sete   %al
  4043d9:	c3                   	retq   
  4043da:	66 0f 1f 44 00 00    	nopw   0x0(%rax,%rax,1)
  4043e0:	48 89 f8             	mov    %rdi,%rax
  4043e3:	31 d2                	xor    %edx,%edx
  4043e5:	48 f7 f6             	div    %rsi
  4043e8:	48 89 d0             	mov    %rdx,%rax
  4043eb:	c3                   	retq   
  4043ec:	0f 1f 40 00          	nopl   0x0(%rax)
  4043f0:	53                   	push   %rbx
  4043f1:	48 89 fb             	mov    %rdi,%rbx
  4043f4:	48 8b 7f 08          	mov    0x8(%rdi),%rdi
  4043f8:	e8 33 34 00 00       	callq  407830 <__sprintf_chk@plt+0x5330>
  4043fd:	48 89 df             	mov    %rbx,%rdi
  404400:	5b                   	pop    %rbx
  404401:	e9 ca da ff ff       	jmpq   401ed0 <free@plt>
  404406:	66 2e 0f 1f 84 00 00 	nopw   %cs:0x0(%rax,%rax,1)
  40440d:	00 00 00 
  404410:	41 54                	push   %r12
  404412:	49 89 fc             	mov    %rdi,%r12
  404415:	55                   	push   %rbp
  404416:	48 89 f5             	mov    %rsi,%rbp
  404419:	53                   	push   %rbx
  40441a:	48 83 ec 10          	sub    $0x10,%rsp
  40441e:	48 8b 1e             	mov    (%rsi),%rbx
  404421:	48 85 db             	test   %rbx,%rbx
  404424:	74 42                	je     404468 <__sprintf_chk@plt+0x1f68>
  404426:	48 39 13             	cmp    %rdx,(%rbx)
  404429:	74 2d                	je     404458 <__sprintf_chk@plt+0x1f58>
  40442b:	48 89 13             	mov    %rdx,(%rbx)
  40442e:	48 89 de             	mov    %rbx,%rsi
  404431:	4c 89 e7             	mov    %r12,%rdi
  404434:	e8 07 39 00 00       	callq  407d40 <__sprintf_chk@plt+0x5840>
  404439:	48 85 c0             	test   %rax,%rax
  40443c:	74 52                	je     404490 <__sprintf_chk@plt+0x1f90>
  40443e:	48 39 c3             	cmp    %rax,%rbx
  404441:	74 55                	je     404498 <__sprintf_chk@plt+0x1f98>
  404443:	48 8b 40 08          	mov    0x8(%rax),%rax
  404447:	48 89 43 08          	mov    %rax,0x8(%rbx)
  40444b:	48 83 c4 10          	add    $0x10,%rsp
  40444f:	5b                   	pop    %rbx
  404450:	5d                   	pop    %rbp
  404451:	41 5c                	pop    %r12
  404453:	c3                   	retq   
  404454:	0f 1f 40 00          	nopl   0x0(%rax)
  404458:	48 8b 43 08          	mov    0x8(%rbx),%rax
  40445c:	48 83 c4 10          	add    $0x10,%rsp
  404460:	5b                   	pop    %rbx
  404461:	5d                   	pop    %rbp
  404462:	41 5c                	pop    %r12
  404464:	c3                   	retq   
  404465:	0f 1f 00             	nopl   (%rax)
  404468:	bf 10 00 00 00       	mov    $0x10,%edi
  40446d:	48 89 54 24 08       	mov    %rdx,0x8(%rsp)
  404472:	e8 19 de ff ff       	callq  402290 <malloc@plt>
  404477:	48 85 c0             	test   %rax,%rax
  40447a:	48 89 c3             	mov    %rax,%rbx
  40447d:	48 89 45 00          	mov    %rax,0x0(%rbp)
  404481:	48 8b 54 24 08       	mov    0x8(%rsp),%rdx
  404486:	75 a3                	jne    40442b <__sprintf_chk@plt+0x1f2b>
  404488:	0f 1f 84 00 00 00 00 	nopl   0x0(%rax,%rax,1)
  40448f:	00 
  404490:	31 c0                	xor    %eax,%eax
  404492:	eb b7                	jmp    40444b <__sprintf_chk@plt+0x1f4b>
  404494:	0f 1f 40 00          	nopl   0x0(%rax)
  404498:	48 c7 45 00 00 00 00 	movq   $0x0,0x0(%rbp)
  40449f:	00 
  4044a0:	45 31 c0             	xor    %r8d,%r8d
  4044a3:	31 c9                	xor    %ecx,%ecx
  4044a5:	ba e0 43 40 00       	mov    $0x4043e0,%edx
  4044aa:	31 f6                	xor    %esi,%esi
  4044ac:	bf fd 03 00 00       	mov    $0x3fd,%edi
  4044b1:	e8 3a 31 00 00       	callq  4075f0 <__sprintf_chk@plt+0x50f0>
  4044b6:	48 89 43 08          	mov    %rax,0x8(%rbx)
  4044ba:	eb 8f                	jmp    40444b <__sprintf_chk@plt+0x1f4b>
  4044bc:	0f 1f 40 00          	nopl   0x0(%rax)
  4044c0:	48 8d 56 ff          	lea    -0x1(%rsi),%rdx
  4044c4:	48 b8 fd ff ff ff ff 	movabs $0x7ffffffffffffffd,%rax
  4044cb:	ff ff 7f 
  4044ce:	48 39 c2             	cmp    %rax,%rdx
  4044d1:	76 1d                	jbe    4044f0 <__sprintf_chk@plt+0x1ff0>
  4044d3:	53                   	push   %rbx
  4044d4:	48 89 fb             	mov    %rdi,%rbx
  4044d7:	48 83 ec 10          	sub    $0x10,%rsp
  4044db:	48 8b 3f             	mov    (%rdi),%rdi
  4044de:	48 85 ff             	test   %rdi,%rdi
  4044e1:	74 15                	je     4044f8 <__sprintf_chk@plt+0x1ff8>
  4044e3:	48 83 c4 10          	add    $0x10,%rsp
  4044e7:	5b                   	pop    %rbx
  4044e8:	e9 53 47 00 00       	jmpq   408c40 <__sprintf_chk@plt+0x6740>
  4044ed:	0f 1f 00             	nopl   (%rax)
  4044f0:	48 89 f0             	mov    %rsi,%rax
  4044f3:	c3                   	retq   
  4044f4:	0f 1f 40 00          	nopl   0x0(%rax)
  4044f8:	48 bf ff ff ff ff ff 	movabs $0x7fffffffffffffff,%rdi
  4044ff:	ff ff 7f 
  404502:	48 89 74 24 08       	mov    %rsi,0x8(%rsp)
  404507:	e8 b4 46 00 00       	callq  408bc0 <__sprintf_chk@plt+0x66c0>
  40450c:	48 85 c0             	test   %rax,%rax
  40450f:	48 89 c7             	mov    %rax,%rdi
  404512:	48 89 03             	mov    %rax,(%rbx)
  404515:	48 8b 74 24 08       	mov    0x8(%rsp),%rsi
  40451a:	75 c7                	jne    4044e3 <__sprintf_chk@plt+0x1fe3>
  40451c:	48 83 c4 10          	add    $0x10,%rsp
  404520:	48 c7 c0 ff ff ff ff 	mov    $0xffffffffffffffff,%rax
  404527:	5b                   	pop    %rbx
  404528:	c3                   	retq   
  404529:	0f 1f 80 00 00 00 00 	nopl   0x0(%rax)
  404530:	55                   	push   %rbp
  404531:	bf 18 00 00 00       	mov    $0x18,%edi
  404536:	31 ed                	xor    %ebp,%ebp
  404538:	53                   	push   %rbx
  404539:	48 83 ec 08          	sub    $0x8,%rsp
  40453d:	e8 4e dd ff ff       	callq  402290 <malloc@plt>
  404542:	48 85 c0             	test   %rax,%rax
  404545:	48 89 c3             	mov    %rax,%rbx
  404548:	74 37                	je     404581 <__sprintf_chk@plt+0x2081>
  40454a:	31 f6                	xor    %esi,%esi
  40454c:	41 b8 f0 43 40 00    	mov    $0x4043f0,%r8d
  404552:	b9 d0 43 40 00       	mov    $0x4043d0,%ecx
  404557:	ba c0 43 40 00       	mov    $0x4043c0,%edx
  40455c:	bf 0b 00 00 00       	mov    $0xb,%edi
  404561:	e8 8a 30 00 00       	callq  4075f0 <__sprintf_chk@plt+0x50f0>
  404566:	48 85 c0             	test   %rax,%rax
  404569:	48 89 03             	mov    %rax,(%rbx)
  40456c:	74 1d                	je     40458b <__sprintf_chk@plt+0x208b>
  40456e:	48 c7 43 08 00 00 00 	movq   $0x0,0x8(%rbx)
  404575:	00 
  404576:	48 c7 43 10 00 00 00 	movq   $0x0,0x10(%rbx)
  40457d:	00 
  40457e:	48 89 dd             	mov    %rbx,%rbp
  404581:	48 83 c4 08          	add    $0x8,%rsp
  404585:	48 89 e8             	mov    %rbp,%rax
  404588:	5b                   	pop    %rbx
  404589:	5d                   	pop    %rbp
  40458a:	c3                   	retq   
  40458b:	48 89 df             	mov    %rbx,%rdi
  40458e:	e8 3d d9 ff ff       	callq  401ed0 <free@plt>
  404593:	eb ec                	jmp    404581 <__sprintf_chk@plt+0x2081>
  404595:	66 66 2e 0f 1f 84 00 	data32 nopw %cs:0x0(%rax,%rax,1)
  40459c:	00 00 00 00 
  4045a0:	53                   	push   %rbx
  4045a1:	48 89 fb             	mov    %rdi,%rbx
  4045a4:	48 8b 3f             	mov    (%rdi),%rdi
  4045a7:	e8 84 32 00 00       	callq  407830 <__sprintf_chk@plt+0x5330>
  4045ac:	48 8b 7b 08          	mov    0x8(%rbx),%rdi
  4045b0:	e8 1b d9 ff ff       	callq  401ed0 <free@plt>
  4045b5:	48 8b 7b 10          	mov    0x10(%rbx),%rdi
  4045b9:	e8 12 d9 ff ff       	callq  401ed0 <free@plt>
  4045be:	48 89 df             	mov    %rbx,%rdi
  4045c1:	5b                   	pop    %rbx
  4045c2:	e9 09 d9 ff ff       	jmpq   401ed0 <free@plt>
  4045c7:	66 0f 1f 84 00 00 00 	nopw   0x0(%rax,%rax,1)
  4045ce:	00 00 
  4045d0:	41 54                	push   %r12
  4045d2:	48 8d 47 10          	lea    0x10(%rdi),%rax
  4045d6:	49 89 d4             	mov    %rdx,%r12
  4045d9:	48 89 f2             	mov    %rsi,%rdx
  4045dc:	55                   	push   %rbp
  4045dd:	48 89 c6             	mov    %rax,%rsi
  4045e0:	53                   	push   %rbx
  4045e1:	48 89 fb             	mov    %rdi,%rbx
  4045e4:	48 8b 3f             	mov    (%rdi),%rdi
  4045e7:	e8 24 fe ff ff       	callq  404410 <__sprintf_chk@plt+0x1f10>
  4045ec:	48 85 c0             	test   %rax,%rax
  4045ef:	48 89 c5             	mov    %rax,%rbp
  4045f2:	74 2c                	je     404620 <__sprintf_chk@plt+0x2120>
  4045f4:	48 8d 7b 08          	lea    0x8(%rbx),%rdi
  4045f8:	4c 89 e6             	mov    %r12,%rsi
  4045fb:	e8 c0 fe ff ff       	callq  4044c0 <__sprintf_chk@plt+0x1fc0>
  404600:	48 83 f8 ff          	cmp    $0xffffffffffffffff,%rax
  404604:	74 1a                	je     404620 <__sprintf_chk@plt+0x2120>
  404606:	5b                   	pop    %rbx
  404607:	48 89 ef             	mov    %rbp,%rdi
  40460a:	31 d2                	xor    %edx,%edx
  40460c:	48 89 c6             	mov    %rax,%rsi
  40460f:	5d                   	pop    %rbp
  404610:	41 5c                	pop    %r12
  404612:	e9 c9 34 00 00       	jmpq   407ae0 <__sprintf_chk@plt+0x55e0>
  404617:	66 0f 1f 84 00 00 00 	nopw   0x0(%rax,%rax,1)
  40461e:	00 00 
  404620:	5b                   	pop    %rbx
  404621:	5d                   	pop    %rbp
  404622:	b8 ff ff ff ff       	mov    $0xffffffff,%eax
  404627:	41 5c                	pop    %r12
  404629:	c3                   	retq   
  40462a:	66 0f 1f 44 00 00    	nopw   0x0(%rax,%rax,1)
  404630:	41 54                	push   %r12
  404632:	48 8d 47 10          	lea    0x10(%rdi),%rax
  404636:	49 89 d4             	mov    %rdx,%r12
  404639:	48 89 f2             	mov    %rsi,%rdx
  40463c:	55                   	push   %rbp
  40463d:	48 89 c6             	mov    %rax,%rsi
  404640:	53                   	push   %rbx
  404641:	48 89 fb             	mov    %rdi,%rbx
  404644:	48 8b 3f             	mov    (%rdi),%rdi
  404647:	e8 c4 fd ff ff       	callq  404410 <__sprintf_chk@plt+0x1f10>
  40464c:	48 85 c0             	test   %rax,%rax
  40464f:	48 89 c5             	mov    %rax,%rbp
  404652:	74 2c                	je     404680 <__sprintf_chk@plt+0x2180>
  404654:	48 8d 7b 08          	lea    0x8(%rbx),%rdi
  404658:	4c 89 e6             	mov    %r12,%rsi
  40465b:	e8 60 fe ff ff       	callq  4044c0 <__sprintf_chk@plt+0x1fc0>
  404660:	48 83 f8 ff          	cmp    $0xffffffffffffffff,%rax
  404664:	74 1a                	je     404680 <__sprintf_chk@plt+0x2180>
  404666:	48 89 c6             	mov    %rax,%rsi
  404669:	48 89 ef             	mov    %rbp,%rdi
  40466c:	e8 1f 2d 00 00       	callq  407390 <__sprintf_chk@plt+0x4e90>
  404671:	48 85 c0             	test   %rax,%rax
  404674:	0f 95 c0             	setne  %al
  404677:	0f b6 c0             	movzbl %al,%eax
  40467a:	5b                   	pop    %rbx
  40467b:	5d                   	pop    %rbp
  40467c:	41 5c                	pop    %r12
  40467e:	c3                   	retq   
  40467f:	90                   	nop
  404680:	b8 ff ff ff ff       	mov    $0xffffffff,%eax
  404685:	eb f3                	jmp    40467a <__sprintf_chk@plt+0x217a>
  404687:	66 0f 1f 84 00 00 00 	nopw   0x0(%rax,%rax,1)
  40468e:	00 00 
  404690:	0f b6 17             	movzbl (%rdi),%edx
  404693:	48 89 f8             	mov    %rdi,%rax
  404696:	80 fa 2f             	cmp    $0x2f,%dl
  404699:	75 11                	jne    4046ac <__sprintf_chk@plt+0x21ac>
  40469b:	0f 1f 44 00 00       	nopl   0x0(%rax,%rax,1)
  4046a0:	48 83 c0 01          	add    $0x1,%rax
  4046a4:	0f b6 10             	movzbl (%rax),%edx
  4046a7:	80 fa 2f             	cmp    $0x2f,%dl
  4046aa:	74 f4                	je     4046a0 <__sprintf_chk@plt+0x21a0>
  4046ac:	89 d1                	mov    %edx,%ecx
  4046ae:	31 f6                	xor    %esi,%esi
  4046b0:	48 89 c2             	mov    %rax,%rdx
  4046b3:	84 c9                	test   %cl,%cl
  4046b5:	74 40                	je     4046f7 <__sprintf_chk@plt+0x21f7>
  4046b7:	66 0f 1f 84 00 00 00 	nopw   0x0(%rax,%rax,1)
  4046be:	00 00 
  4046c0:	48 83 c2 01          	add    $0x1,%rdx
  4046c4:	0f b6 0a             	movzbl (%rdx),%ecx
  4046c7:	84 c9                	test   %cl,%cl
  4046c9:	74 1a                	je     4046e5 <__sprintf_chk@plt+0x21e5>
  4046cb:	80 f9 2f             	cmp    $0x2f,%cl
  4046ce:	74 20                	je     4046f0 <__sprintf_chk@plt+0x21f0>
  4046d0:	40 84 f6             	test   %sil,%sil
  4046d3:	74 eb                	je     4046c0 <__sprintf_chk@plt+0x21c0>
  4046d5:	48 89 d0             	mov    %rdx,%rax
  4046d8:	48 83 c2 01          	add    $0x1,%rdx
  4046dc:	0f b6 0a             	movzbl (%rdx),%ecx
  4046df:	31 f6                	xor    %esi,%esi
  4046e1:	84 c9                	test   %cl,%cl
  4046e3:	75 e6                	jne    4046cb <__sprintf_chk@plt+0x21cb>
  4046e5:	f3 c3                	repz retq 
  4046e7:	66 0f 1f 84 00 00 00 	nopw   0x0(%rax,%rax,1)
  4046ee:	00 00 
  4046f0:	be 01 00 00 00       	mov    $0x1,%esi
  4046f5:	eb c9                	jmp    4046c0 <__sprintf_chk@plt+0x21c0>
  4046f7:	f3 c3                	repz retq 
  4046f9:	0f 1f 80 00 00 00 00 	nopl   0x0(%rax)
  404700:	53                   	push   %rbx
  404701:	48 89 fb             	mov    %rdi,%rbx
  404704:	e8 07 d9 ff ff       	callq  402010 <strlen@plt>
  404709:	48 83 f8 01          	cmp    $0x1,%rax
  40470d:	76 0b                	jbe    40471a <__sprintf_chk@plt+0x221a>
  40470f:	80 7c 03 ff 2f       	cmpb   $0x2f,-0x1(%rbx,%rax,1)
  404714:	48 8d 50 ff          	lea    -0x1(%rax),%rdx
  404718:	74 06                	je     404720 <__sprintf_chk@plt+0x2220>
  40471a:	5b                   	pop    %rbx
  40471b:	c3                   	retq   
  40471c:	0f 1f 40 00          	nopl   0x0(%rax)
  404720:	48 83 fa 01          	cmp    $0x1,%rdx
  404724:	48 89 d0             	mov    %rdx,%rax
  404727:	75 e6                	jne    40470f <__sprintf_chk@plt+0x220f>
  404729:	5b                   	pop    %rbx
  40472a:	c3                   	retq   
  40472b:	0f 1f 44 00 00       	nopl   0x0(%rax,%rax,1)
  404730:	e9 9b d7 ff ff       	jmpq   401ed0 <free@plt>
  404735:	66 66 2e 0f 1f 84 00 	data32 nopw %cs:0x0(%rax,%rax,1)
  40473c:	00 00 00 00 
  404740:	48 83 ec 08          	sub    $0x8,%rsp
  404744:	e8 e7 46 00 00       	callq  408e30 <__sprintf_chk@plt+0x6930>
  404749:	85 c0                	test   %eax,%eax
  40474b:	0f 94 c0             	sete   %al
  40474e:	48 83 c4 08          	add    $0x8,%rsp
  404752:	c3                   	retq   
  404753:	66 66 66 66 2e 0f 1f 	data32 data32 data32 nopw %cs:0x0(%rax,%rax,1)
  40475a:	84 00 00 00 00 00 
  404760:	48 83 ec 08          	sub    $0x8,%rsp
  404764:	e8 77 da ff ff       	callq  4021e0 <strcmp@plt>
  404769:	85 c0                	test   %eax,%eax
  40476b:	0f 94 c0             	sete   %al
  40476e:	48 83 c4 08          	add    $0x8,%rsp
  404772:	c3                   	retq   
  404773:	66 66 66 66 2e 0f 1f 	data32 data32 data32 nopw %cs:0x0(%rax,%rax,1)
  40477a:	84 00 00 00 00 00 
  404780:	e9 0b 2e 00 00       	jmpq   407590 <__sprintf_chk@plt+0x5090>
  404785:	66 66 2e 0f 1f 84 00 	data32 nopw %cs:0x0(%rax,%rax,1)
  40478c:	00 00 00 00 
  404790:	41 55                	push   %r13
  404792:	41 54                	push   %r12
  404794:	55                   	push   %rbp
  404795:	48 89 fd             	mov    %rdi,%rbp
  404798:	53                   	push   %rbx
  404799:	48 89 f3             	mov    %rsi,%rbx
  40479c:	48 83 ec 18          	sub    $0x18,%rsp
  4047a0:	f6 c2 08             	test   $0x8,%dl
  4047a3:	75 1b                	jne    4047c0 <__sprintf_chk@plt+0x22c0>
  4047a5:	83 e2 10             	and    $0x10,%edx
  4047a8:	74 56                	je     404800 <__sprintf_chk@plt+0x2300>
  4047aa:	48 83 c4 18          	add    $0x18,%rsp
  4047ae:	5b                   	pop    %rbx
  4047af:	5d                   	pop    %rbp
  4047b0:	41 5c                	pop    %r12
  4047b2:	41 5d                	pop    %r13
  4047b4:	e9 77 46 00 00       	jmpq   408e30 <__sprintf_chk@plt+0x6930>
  4047b9:	0f 1f 80 00 00 00 00 	nopl   0x0(%rax)
  4047c0:	83 e2 10             	and    $0x10,%edx
  4047c3:	41 89 d4             	mov    %edx,%r12d
  4047c6:	75 48                	jne    404810 <__sprintf_chk@plt+0x2310>
  4047c8:	e8 43 d8 ff ff       	callq  402010 <strlen@plt>
  4047cd:	48 89 de             	mov    %rbx,%rsi
  4047d0:	48 89 c2             	mov    %rax,%rdx
  4047d3:	48 89 ef             	mov    %rbp,%rdi
  4047d6:	49 89 c5             	mov    %rax,%r13
  4047d9:	e8 42 d7 ff ff       	callq  401f20 <strncmp@plt>
  4047de:	85 c0                	test   %eax,%eax
  4047e0:	0f 85 9a 00 00 00    	jne    404880 <__sprintf_chk@plt+0x2380>
  4047e6:	42 0f be 04 2b       	movsbl (%rbx,%r13,1),%eax
  4047eb:	83 f8 2f             	cmp    $0x2f,%eax
  4047ee:	44 0f 45 e0          	cmovne %eax,%r12d
  4047f2:	48 83 c4 18          	add    $0x18,%rsp
  4047f6:	5b                   	pop    %rbx
  4047f7:	5d                   	pop    %rbp
  4047f8:	44 89 e0             	mov    %r12d,%eax
  4047fb:	41 5c                	pop    %r12
  4047fd:	41 5d                	pop    %r13
  4047ff:	c3                   	retq   
  404800:	48 83 c4 18          	add    $0x18,%rsp
  404804:	5b                   	pop    %rbx
  404805:	5d                   	pop    %rbp
  404806:	41 5c                	pop    %r12
  404808:	41 5d                	pop    %r13
  40480a:	e9 d1 d9 ff ff       	jmpq   4021e0 <strcmp@plt>
  40480f:	90                   	nop
  404810:	48 89 f7             	mov    %rsi,%rdi
  404813:	e8 58 7d 00 00       	callq  40c570 <__sprintf_chk@plt+0xa070>
  404818:	49 89 c5             	mov    %rax,%r13
  40481b:	48 89 c7             	mov    %rax,%rdi
  40481e:	eb 19                	jmp    404839 <__sprintf_chk@plt+0x2339>
  404820:	c6 00 00             	movb   $0x0,(%rax)
  404823:	4c 89 ee             	mov    %r13,%rsi
  404826:	48 89 ef             	mov    %rbp,%rdi
  404829:	e8 02 46 00 00       	callq  408e30 <__sprintf_chk@plt+0x6930>
  40482e:	85 c0                	test   %eax,%eax
  404830:	7e 24                	jle    404856 <__sprintf_chk@plt+0x2356>
  404832:	48 8d 7b 01          	lea    0x1(%rbx),%rdi
  404836:	c6 03 2f             	movb   $0x2f,(%rbx)
  404839:	be 2f 00 00 00       	mov    $0x2f,%esi
  40483e:	e8 3d d8 ff ff       	callq  402080 <strchr@plt>
  404843:	48 85 c0             	test   %rax,%rax
  404846:	48 89 c3             	mov    %rax,%rbx
  404849:	75 d5                	jne    404820 <__sprintf_chk@plt+0x2320>
  40484b:	4c 89 ee             	mov    %r13,%rsi
  40484e:	48 89 ef             	mov    %rbp,%rdi
  404851:	e8 da 45 00 00       	callq  408e30 <__sprintf_chk@plt+0x6930>
  404856:	4c 89 ef             	mov    %r13,%rdi
  404859:	89 44 24 0c          	mov    %eax,0xc(%rsp)
  40485d:	e8 6e d6 ff ff       	callq  401ed0 <free@plt>
  404862:	8b 44 24 0c          	mov    0xc(%rsp),%eax
  404866:	48 83 c4 18          	add    $0x18,%rsp
  40486a:	5b                   	pop    %rbx
  40486b:	5d                   	pop    %rbp
  40486c:	41 89 c4             	mov    %eax,%r12d
  40486f:	44 89 e0             	mov    %r12d,%eax
  404872:	41 5c                	pop    %r12
  404874:	41 5d                	pop    %r13
  404876:	c3                   	retq   
  404877:	66 0f 1f 84 00 00 00 	nopw   0x0(%rax,%rax,1)
  40487e:	00 00 
  404880:	48 83 c4 18          	add    $0x18,%rsp
  404884:	41 89 c4             	mov    %eax,%r12d
  404887:	5b                   	pop    %rbx
  404888:	5d                   	pop    %rbp
  404889:	44 89 e0             	mov    %r12d,%eax
  40488c:	41 5c                	pop    %r12
  40488e:	41 5d                	pop    %r13
  404890:	c3                   	retq   
  404891:	66 66 66 66 66 66 2e 	data32 data32 data32 data32 data32 nopw %cs:0x0(%rax,%rax,1)
  404898:	0f 1f 84 00 00 00 00 
  40489f:	00 
  4048a0:	41 56                	push   %r14
  4048a2:	41 55                	push   %r13
  4048a4:	41 54                	push   %r12
  4048a6:	49 89 f4             	mov    %rsi,%r12
  4048a9:	55                   	push   %rbp
  4048aa:	53                   	push   %rbx
  4048ab:	31 db                	xor    %ebx,%ebx
  4048ad:	48 83 ec 50          	sub    $0x50,%rsp
  4048b1:	64 48 8b 04 25 28 00 	mov    %fs:0x28,%rax
  4048b8:	00 00 
  4048ba:	48 89 44 24 48       	mov    %rax,0x48(%rsp)
  4048bf:	31 c0                	xor    %eax,%eax
  4048c1:	c6 04 24 00          	movb   $0x0,(%rsp)
  4048c5:	80 3c 24 00          	cmpb   $0x0,(%rsp)
  4048c9:	4c 8d 6c 24 04       	lea    0x4(%rsp),%r13
  4048ce:	48 89 7c 24 10       	mov    %rdi,0x10(%rsp)
  4048d3:	48 c7 44 24 04 00 00 	movq   $0x0,0x4(%rsp)
  4048da:	00 00 
  4048dc:	c6 44 24 0c 00       	movb   $0x0,0xc(%rsp)
  4048e1:	0f 85 d9 00 00 00    	jne    4049c0 <__sprintf_chk@plt+0x24c0>
  4048e7:	66 0f 1f 84 00 00 00 	nopw   0x0(%rax,%rax,1)
  4048ee:	00 00 
  4048f0:	48 8b 54 24 10       	mov    0x10(%rsp),%rdx
  4048f5:	0f b6 02             	movzbl (%rdx),%eax
  4048f8:	89 c1                	mov    %eax,%ecx
  4048fa:	83 e0 1f             	and    $0x1f,%eax
  4048fd:	c0 e9 05             	shr    $0x5,%cl
  404900:	83 e1 07             	and    $0x7,%ecx
  404903:	8b 0c 8d 80 57 41 00 	mov    0x415780(,%rcx,4),%ecx
  40490a:	0f a3 c1             	bt     %eax,%ecx
  40490d:	0f 83 4d 01 00 00    	jae    404a60 <__sprintf_chk@plt+0x2560>
  404913:	48 c7 44 24 18 01 00 	movq   $0x1,0x18(%rsp)
  40491a:	00 00 
  40491c:	44 0f be 32          	movsbl (%rdx),%r14d
  404920:	c6 44 24 20 01       	movb   $0x1,0x20(%rsp)
  404925:	44 89 74 24 24       	mov    %r14d,0x24(%rsp)
  40492a:	45 85 f6             	test   %r14d,%r14d
  40492d:	c6 44 24 0c 01       	movb   $0x1,0xc(%rsp)
  404932:	75 44                	jne    404978 <__sprintf_chk@plt+0x2478>
  404934:	48 8b 74 24 48       	mov    0x48(%rsp),%rsi
  404939:	64 48 33 34 25 28 00 	xor    %fs:0x28,%rsi
  404940:	00 00 
  404942:	48 89 d8             	mov    %rbx,%rax
  404945:	0f 85 9e 01 00 00    	jne    404ae9 <__sprintf_chk@plt+0x25e9>
  40494b:	48 83 c4 50          	add    $0x50,%rsp
  40494f:	5b                   	pop    %rbx
  404950:	5d                   	pop    %rbp
  404951:	41 5c                	pop    %r12
  404953:	41 5d                	pop    %r13
  404955:	41 5e                	pop    %r14
  404957:	c3                   	retq   
  404958:	0f 1f 84 00 00 00 00 	nopl   0x0(%rax,%rax,1)
  40495f:	00 
  404960:	44 8b 74 24 24       	mov    0x24(%rsp),%r14d
  404965:	48 c7 44 24 18 01 00 	movq   $0x1,0x18(%rsp)
  40496c:	00 00 
  40496e:	c6 44 24 20 00       	movb   $0x0,0x20(%rsp)
  404973:	c6 44 24 0c 01       	movb   $0x1,0xc(%rsp)
  404978:	80 7c 24 20 00       	cmpb   $0x0,0x20(%rsp)
  40497d:	48 8b 6c 24 10       	mov    0x10(%rsp),%rbp
  404982:	0f 84 c8 00 00 00    	je     404a50 <__sprintf_chk@plt+0x2550>
  404988:	44 89 f7             	mov    %r14d,%edi
  40498b:	e8 70 da ff ff       	callq  402400 <towlower@plt>
  404990:	48 89 d9             	mov    %rbx,%rcx
  404993:	48 98                	cltq   
  404995:	31 d2                	xor    %edx,%edx
  404997:	48 c1 e1 05          	shl    $0x5,%rcx
  40499b:	48 03 6c 24 18       	add    0x18(%rsp),%rbp
  4049a0:	c6 44 24 0c 00       	movb   $0x0,0xc(%rsp)
  4049a5:	48 29 d9             	sub    %rbx,%rcx
  4049a8:	48 01 c8             	add    %rcx,%rax
  4049ab:	49 f7 f4             	div    %r12
  4049ae:	80 3c 24 00          	cmpb   $0x0,(%rsp)
  4049b2:	48 89 6c 24 10       	mov    %rbp,0x10(%rsp)
  4049b7:	48 89 d3             	mov    %rdx,%rbx
  4049ba:	0f 84 30 ff ff ff    	je     4048f0 <__sprintf_chk@plt+0x23f0>
  4049c0:	e8 3b d6 ff ff       	callq  402000 <__ctype_get_mb_cur_max@plt>
  4049c5:	48 8b 6c 24 10       	mov    0x10(%rsp),%rbp
  4049ca:	48 89 c6             	mov    %rax,%rsi
  4049cd:	48 89 ef             	mov    %rbp,%rdi
  4049d0:	e8 ab 6d 00 00       	callq  40b780 <__sprintf_chk@plt+0x9280>
  4049d5:	48 8d 4c 24 04       	lea    0x4(%rsp),%rcx
  4049da:	48 8d 7c 24 24       	lea    0x24(%rsp),%rdi
  4049df:	48 89 c2             	mov    %rax,%rdx
  4049e2:	48 89 ee             	mov    %rbp,%rsi
  4049e5:	e8 76 d6 ff ff       	callq  402060 <mbrtowc@plt>
  4049ea:	48 83 f8 ff          	cmp    $0xffffffffffffffff,%rax
  4049ee:	48 89 44 24 18       	mov    %rax,0x18(%rsp)
  4049f3:	0f 84 67 ff ff ff    	je     404960 <__sprintf_chk@plt+0x2460>
  4049f9:	48 83 f8 fe          	cmp    $0xfffffffffffffffe,%rax
  4049fd:	0f 84 7d 00 00 00    	je     404a80 <__sprintf_chk@plt+0x2580>
  404a03:	48 85 c0             	test   %rax,%rax
  404a06:	75 70                	jne    404a78 <__sprintf_chk@plt+0x2578>
  404a08:	48 8b 44 24 10       	mov    0x10(%rsp),%rax
  404a0d:	48 c7 44 24 18 01 00 	movq   $0x1,0x18(%rsp)
  404a14:	00 00 
  404a16:	80 38 00             	cmpb   $0x0,(%rax)
  404a19:	0f 85 b1 00 00 00    	jne    404ad0 <__sprintf_chk@plt+0x25d0>
  404a1f:	8b 44 24 24          	mov    0x24(%rsp),%eax
  404a23:	85 c0                	test   %eax,%eax
  404a25:	0f 85 8c 00 00 00    	jne    404ab7 <__sprintf_chk@plt+0x25b7>
  404a2b:	45 31 f6             	xor    %r14d,%r14d
  404a2e:	48 8d 7c 24 04       	lea    0x4(%rsp),%rdi
  404a33:	c6 44 24 20 01       	movb   $0x1,0x20(%rsp)
  404a38:	e8 53 da ff ff       	callq  402490 <mbsinit@plt>
  404a3d:	85 c0                	test   %eax,%eax
  404a3f:	0f 84 e5 fe ff ff    	je     40492a <__sprintf_chk@plt+0x242a>
  404a45:	c6 04 24 00          	movb   $0x0,(%rsp)
  404a49:	e9 dc fe ff ff       	jmpq   40492a <__sprintf_chk@plt+0x242a>
  404a4e:	66 90                	xchg   %ax,%ax
  404a50:	0f be 45 00          	movsbl 0x0(%rbp),%eax
  404a54:	e9 37 ff ff ff       	jmpq   404990 <__sprintf_chk@plt+0x2490>
  404a59:	0f 1f 80 00 00 00 00 	nopl   0x0(%rax)
  404a60:	4c 89 ef             	mov    %r13,%rdi
  404a63:	e8 28 da ff ff       	callq  402490 <mbsinit@plt>
  404a68:	85 c0                	test   %eax,%eax
  404a6a:	74 32                	je     404a9e <__sprintf_chk@plt+0x259e>
  404a6c:	c6 04 24 01          	movb   $0x1,(%rsp)
  404a70:	e9 4b ff ff ff       	jmpq   4049c0 <__sprintf_chk@plt+0x24c0>
  404a75:	0f 1f 00             	nopl   (%rax)
  404a78:	44 8b 74 24 24       	mov    0x24(%rsp),%r14d
  404a7d:	eb af                	jmp    404a2e <__sprintf_chk@plt+0x252e>
  404a7f:	90                   	nop
  404a80:	48 8b 7c 24 10       	mov    0x10(%rsp),%rdi
  404a85:	e8 86 d5 ff ff       	callq  402010 <strlen@plt>
  404a8a:	c6 44 24 20 00       	movb   $0x0,0x20(%rsp)
  404a8f:	48 89 44 24 18       	mov    %rax,0x18(%rsp)
  404a94:	44 8b 74 24 24       	mov    0x24(%rsp),%r14d
  404a99:	e9 d5 fe ff ff       	jmpq   404973 <__sprintf_chk@plt+0x2473>
  404a9e:	b9 40 52 41 00       	mov    $0x415240,%ecx
  404aa3:	ba 93 00 00 00       	mov    $0x93,%edx
  404aa8:	be f2 51 41 00       	mov    $0x4151f2,%esi
  404aad:	bf 00 52 41 00       	mov    $0x415200,%edi
  404ab2:	e8 19 d6 ff ff       	callq  4020d0 <__assert_fail@plt>
  404ab7:	b9 40 52 41 00       	mov    $0x415240,%ecx
  404abc:	ba b0 00 00 00       	mov    $0xb0,%edx
  404ac1:	be f2 51 41 00       	mov    $0x4151f2,%esi
  404ac6:	bf 2e 52 41 00       	mov    $0x41522e,%edi
  404acb:	e8 00 d6 ff ff       	callq  4020d0 <__assert_fail@plt>
  404ad0:	b9 40 52 41 00       	mov    $0x415240,%ecx
  404ad5:	ba af 00 00 00       	mov    $0xaf,%edx
  404ada:	be f2 51 41 00       	mov    $0x4151f2,%esi
  404adf:	bf 17 52 41 00       	mov    $0x415217,%edi
  404ae4:	e8 e7 d5 ff ff       	callq  4020d0 <__assert_fail@plt>
  404ae9:	e8 52 d5 ff ff       	callq  402040 <__stack_chk_fail@plt>
  404aee:	66 90                	xchg   %ax,%ax
  404af0:	0f b6 07             	movzbl (%rdi),%eax
  404af3:	89 f1                	mov    %esi,%ecx
  404af5:	83 e6 02             	and    $0x2,%esi
  404af8:	83 e1 20             	and    $0x20,%ecx
  404afb:	3c 2b                	cmp    $0x2b,%al
  404afd:	48 8d 57 01          	lea    0x1(%rdi),%rdx
  404b01:	74 3d                	je     404b40 <__sprintf_chk@plt+0x2640>
  404b03:	7e 53                	jle    404b58 <__sprintf_chk@plt+0x2658>
  404b05:	3c 40                	cmp    $0x40,%al
  404b07:	74 37                	je     404b40 <__sprintf_chk@plt+0x2640>
  404b09:	0f 1f 80 00 00 00 00 	nopl   0x0(%rax)
  404b10:	7e 5e                	jle    404b70 <__sprintf_chk@plt+0x2670>
  404b12:	3c 5b                	cmp    $0x5b,%al
  404b14:	74 5e                	je     404b74 <__sprintf_chk@plt+0x2674>
  404b16:	3c 5c                	cmp    $0x5c,%al
  404b18:	75 4c                	jne    404b66 <__sprintf_chk@plt+0x2666>
  404b1a:	31 c0                	xor    %eax,%eax
  404b1c:	85 f6                	test   %esi,%esi
  404b1e:	66 90                	xchg   %ax,%ax
  404b20:	75 09                	jne    404b2b <__sprintf_chk@plt+0x262b>
  404b22:	31 c0                	xor    %eax,%eax
  404b24:	80 7f 01 00          	cmpb   $0x0,0x1(%rdi)
  404b28:	0f 95 c0             	setne  %al
  404b2b:	48 8d 3c 02          	lea    (%rdx,%rax,1),%rdi
  404b2f:	0f b6 07             	movzbl (%rdi),%eax
  404b32:	48 8d 57 01          	lea    0x1(%rdi),%rdx
  404b36:	3c 2b                	cmp    $0x2b,%al
  404b38:	75 c9                	jne    404b03 <__sprintf_chk@plt+0x2603>
  404b3a:	66 0f 1f 44 00 00    	nopw   0x0(%rax,%rax,1)
  404b40:	85 c9                	test   %ecx,%ecx
  404b42:	74 22                	je     404b66 <__sprintf_chk@plt+0x2666>
  404b44:	0f b6 47 01          	movzbl 0x1(%rdi),%eax
  404b48:	3c 28                	cmp    $0x28,%al
  404b4a:	74 28                	je     404b74 <__sprintf_chk@plt+0x2674>
  404b4c:	48 89 d7             	mov    %rdx,%rdi
  404b4f:	eb aa                	jmp    404afb <__sprintf_chk@plt+0x25fb>
  404b51:	0f 1f 80 00 00 00 00 	nopl   0x0(%rax)
  404b58:	3c 21                	cmp    $0x21,%al
  404b5a:	74 e4                	je     404b40 <__sprintf_chk@plt+0x2640>
  404b5c:	3c 2a                	cmp    $0x2a,%al
  404b5e:	66 90                	xchg   %ax,%ax
  404b60:	74 12                	je     404b74 <__sprintf_chk@plt+0x2674>
  404b62:	84 c0                	test   %al,%al
  404b64:	74 1a                	je     404b80 <__sprintf_chk@plt+0x2680>
  404b66:	0f b6 47 01          	movzbl 0x1(%rdi),%eax
  404b6a:	48 89 d7             	mov    %rdx,%rdi
  404b6d:	eb 8c                	jmp    404afb <__sprintf_chk@plt+0x25fb>
  404b6f:	90                   	nop
  404b70:	3c 3f                	cmp    $0x3f,%al
  404b72:	75 f2                	jne    404b66 <__sprintf_chk@plt+0x2666>
  404b74:	b8 01 00 00 00       	mov    $0x1,%eax
  404b79:	c3                   	retq   
  404b7a:	66 0f 1f 44 00 00    	nopw   0x0(%rax,%rax,1)
  404b80:	31 c0                	xor    %eax,%eax
  404b82:	c3                   	retq   
  404b83:	66 66 66 66 2e 0f 1f 	data32 data32 data32 nopw %cs:0x0(%rax,%rax,1)
  404b8a:	84 00 00 00 00 00 
  404b90:	bf 08 00 00 00       	mov    $0x8,%edi
  404b95:	e9 66 79 00 00       	jmpq   40c500 <__sprintf_chk@plt+0xa000>
  404b9a:	66 0f 1f 44 00 00    	nopw   0x0(%rax,%rax,1)
  404ba0:	41 54                	push   %r12
  404ba2:	49 89 fc             	mov    %rdi,%r12
  404ba5:	55                   	push   %rbp
  404ba6:	53                   	push   %rbx
  404ba7:	48 8b 1f             	mov    (%rdi),%rbx
  404baa:	48 85 db             	test   %rbx,%rbx
  404bad:	75 27                	jne    404bd6 <__sprintf_chk@plt+0x26d6>
  404baf:	eb 45                	jmp    404bf6 <__sprintf_chk@plt+0x26f6>
  404bb1:	0f 1f 80 00 00 00 00 	nopl   0x0(%rax)
  404bb8:	83 f8 01             	cmp    $0x1,%eax
  404bbb:	75 09                	jne    404bc6 <__sprintf_chk@plt+0x26c6>
  404bbd:	48 8b 7b 10          	mov    0x10(%rbx),%rdi
  404bc1:	e8 0a d3 ff ff       	callq  401ed0 <free@plt>
  404bc6:	48 89 df             	mov    %rbx,%rdi
  404bc9:	e8 02 d3 ff ff       	callq  401ed0 <free@plt>
  404bce:	48 85 ed             	test   %rbp,%rbp
  404bd1:	74 23                	je     404bf6 <__sprintf_chk@plt+0x26f6>
  404bd3:	48 89 eb             	mov    %rbp,%rbx
  404bd6:	8b 43 08             	mov    0x8(%rbx),%eax
  404bd9:	48 8b 2b             	mov    (%rbx),%rbp
  404bdc:	85 c0                	test   %eax,%eax
  404bde:	75 d8                	jne    404bb8 <__sprintf_chk@plt+0x26b8>
  404be0:	48 8b 7b 10          	mov    0x10(%rbx),%rdi
  404be4:	e8 47 2c 00 00       	callq  407830 <__sprintf_chk@plt+0x5330>
  404be9:	48 89 df             	mov    %rbx,%rdi
  404bec:	e8 df d2 ff ff       	callq  401ed0 <free@plt>
  404bf1:	48 85 ed             	test   %rbp,%rbp
  404bf4:	75 dd                	jne    404bd3 <__sprintf_chk@plt+0x26d3>
  404bf6:	5b                   	pop    %rbx
  404bf7:	5d                   	pop    %rbp
  404bf8:	4c 89 e7             	mov    %r12,%rdi
  404bfb:	41 5c                	pop    %r12
  404bfd:	e9 ce d2 ff ff       	jmpq   401ed0 <free@plt>
  404c02:	66 66 66 66 66 2e 0f 	data32 data32 data32 data32 nopw %cs:0x0(%rax,%rax,1)
  404c09:	1f 84 00 00 00 00 00 
  404c10:	41 56                	push   %r14
  404c12:	f7 c2 00 00 00 10    	test   $0x10000000,%edx
  404c18:	b8 90 47 40 00       	mov    $0x404790,%eax
  404c1d:	41 55                	push   %r13
  404c1f:	41 89 d5             	mov    %edx,%r13d
  404c22:	41 54                	push   %r12
  404c24:	49 89 fc             	mov    %rdi,%r12
  404c27:	55                   	push   %rbp
  404c28:	bd f0 20 40 00       	mov    $0x4020f0,%ebp
  404c2d:	48 0f 44 e8          	cmove  %rax,%rbp
  404c31:	53                   	push   %rbx
  404c32:	48 89 f3             	mov    %rsi,%rbx
  404c35:	ff d5                	callq  *%rbp
  404c37:	85 c0                	test   %eax,%eax
  404c39:	41 0f 94 c6          	sete   %r14b
  404c3d:	41 f7 c5 00 00 00 40 	test   $0x40000000,%r13d
  404c44:	75 52                	jne    404c98 <__sprintf_chk@plt+0x2798>
  404c46:	0f b6 0b             	movzbl (%rbx),%ecx
  404c49:	84 c9                	test   %cl,%cl
  404c4b:	74 4b                	je     404c98 <__sprintf_chk@plt+0x2798>
  404c4d:	48 83 c3 01          	add    $0x1,%rbx
  404c51:	45 84 f6             	test   %r14b,%r14b
  404c54:	74 12                	je     404c68 <__sprintf_chk@plt+0x2768>
  404c56:	eb 3a                	jmp    404c92 <__sprintf_chk@plt+0x2792>
  404c58:	0f 1f 84 00 00 00 00 	nopl   0x0(%rax,%rax,1)
  404c5f:	00 
  404c60:	84 c9                	test   %cl,%cl
  404c62:	74 34                	je     404c98 <__sprintf_chk@plt+0x2798>
  404c64:	48 83 c3 01          	add    $0x1,%rbx
  404c68:	80 f9 2f             	cmp    $0x2f,%cl
  404c6b:	0f b6 0b             	movzbl (%rbx),%ecx
  404c6e:	75 f0                	jne    404c60 <__sprintf_chk@plt+0x2760>
  404c70:	80 f9 2f             	cmp    $0x2f,%cl
  404c73:	74 ef                	je     404c64 <__sprintf_chk@plt+0x2764>
  404c75:	48 89 de             	mov    %rbx,%rsi
  404c78:	44 89 ea             	mov    %r13d,%edx
  404c7b:	4c 89 e7             	mov    %r12,%rdi
  404c7e:	ff d5                	callq  *%rbp
  404c80:	0f b6 0b             	movzbl (%rbx),%ecx
  404c83:	85 c0                	test   %eax,%eax
  404c85:	40 0f 94 c6          	sete   %sil
  404c89:	84 c9                	test   %cl,%cl
  404c8b:	74 17                	je     404ca4 <__sprintf_chk@plt+0x27a4>
  404c8d:	40 84 f6             	test   %sil,%sil
  404c90:	74 d2                	je     404c64 <__sprintf_chk@plt+0x2764>
  404c92:	41 be 01 00 00 00    	mov    $0x1,%r14d
  404c98:	5b                   	pop    %rbx
  404c99:	5d                   	pop    %rbp
  404c9a:	41 5c                	pop    %r12
  404c9c:	41 5d                	pop    %r13
  404c9e:	44 89 f0             	mov    %r14d,%eax
  404ca1:	41 5e                	pop    %r14
  404ca3:	c3                   	retq   
  404ca4:	41 89 f6             	mov    %esi,%r14d
  404ca7:	eb ef                	jmp    404c98 <__sprintf_chk@plt+0x2798>
  404ca9:	0f 1f 80 00 00 00 00 	nopl   0x0(%rax)
  404cb0:	41 57                	push   %r15
  404cb2:	41 56                	push   %r14
  404cb4:	41 55                	push   %r13
  404cb6:	41 54                	push   %r12
  404cb8:	55                   	push   %rbp
  404cb9:	53                   	push   %rbx
  404cba:	48 83 ec 18          	sub    $0x18,%rsp
  404cbe:	4c 8b 37             	mov    (%rdi),%r14
  404cc1:	48 89 74 24 08       	mov    %rsi,0x8(%rsp)
  404cc6:	4d 85 f6             	test   %r14,%r14
  404cc9:	0f 84 4d 01 00 00    	je     404e1c <__sprintf_chk@plt+0x291c>
  404ccf:	41 8b 46 08          	mov    0x8(%r14),%eax
  404cd3:	31 db                	xor    %ebx,%ebx
  404cd5:	85 c0                	test   %eax,%eax
  404cd7:	0f 85 da 00 00 00    	jne    404db7 <__sprintf_chk@plt+0x28b7>
  404cdd:	0f 1f 00             	nopl   (%rax)
  404ce0:	48 85 db             	test   %rbx,%rbx
  404ce3:	0f 84 0e 01 00 00    	je     404df7 <__sprintf_chk@plt+0x28f7>
  404ce9:	45 8b 7e 0c          	mov    0xc(%r14),%r15d
  404ced:	49 8b 6e 10          	mov    0x10(%r14),%rbp
  404cf1:	4c 8b 6c 24 08       	mov    0x8(%rsp),%r13
  404cf6:	45 89 fc             	mov    %r15d,%r12d
  404cf9:	41 81 e7 00 00 00 40 	and    $0x40000000,%r15d
  404d00:	41 83 e4 08          	and    $0x8,%r12d
  404d04:	4c 89 ee             	mov    %r13,%rsi
  404d07:	48 89 df             	mov    %rbx,%rdi
  404d0a:	e8 31 d2 ff ff       	callq  401f40 <strcpy@plt>
  404d0f:	48 89 de             	mov    %rbx,%rsi
  404d12:	48 89 ef             	mov    %rbp,%rdi
  404d15:	e8 76 26 00 00       	callq  407390 <__sprintf_chk@plt+0x4e90>
  404d1a:	48 85 c0             	test   %rax,%rax
  404d1d:	75 2a                	jne    404d49 <__sprintf_chk@plt+0x2849>
  404d1f:	45 85 e4             	test   %r12d,%r12d
  404d22:	74 54                	je     404d78 <__sprintf_chk@plt+0x2878>
  404d24:	be 2f 00 00 00       	mov    $0x2f,%esi
  404d29:	48 89 df             	mov    %rbx,%rdi
  404d2c:	e8 7f d3 ff ff       	callq  4020b0 <strrchr@plt>
  404d31:	48 85 c0             	test   %rax,%rax
  404d34:	74 42                	je     404d78 <__sprintf_chk@plt+0x2878>
  404d36:	c6 00 00             	movb   $0x0,(%rax)
  404d39:	48 89 de             	mov    %rbx,%rsi
  404d3c:	48 89 ef             	mov    %rbp,%rdi
  404d3f:	e8 4c 26 00 00       	callq  407390 <__sprintf_chk@plt+0x4e90>
  404d44:	48 85 c0             	test   %rax,%rax
  404d47:	74 d6                	je     404d1f <__sprintf_chk@plt+0x281f>
  404d49:	31 ed                	xor    %ebp,%ebp
  404d4b:	48 89 df             	mov    %rbx,%rdi
  404d4e:	e8 7d d1 ff ff       	callq  401ed0 <free@plt>
  404d53:	41 8b 46 0c          	mov    0xc(%r14),%eax
  404d57:	48 83 c4 18          	add    $0x18,%rsp
  404d5b:	5b                   	pop    %rbx
  404d5c:	c1 e8 1d             	shr    $0x1d,%eax
  404d5f:	83 f0 01             	xor    $0x1,%eax
  404d62:	83 e0 01             	and    $0x1,%eax
  404d65:	31 e8                	xor    %ebp,%eax
  404d67:	5d                   	pop    %rbp
  404d68:	41 5c                	pop    %r12
  404d6a:	41 5d                	pop    %r13
  404d6c:	41 5e                	pop    %r14
  404d6e:	41 5f                	pop    %r15
  404d70:	c3                   	retq   
  404d71:	0f 1f 80 00 00 00 00 	nopl   0x0(%rax)
  404d78:	45 85 ff             	test   %r15d,%r15d
  404d7b:	75 23                	jne    404da0 <__sprintf_chk@plt+0x28a0>
  404d7d:	be 2f 00 00 00       	mov    $0x2f,%esi
  404d82:	4c 89 ef             	mov    %r13,%rdi
  404d85:	e8 f6 d2 ff ff       	callq  402080 <strchr@plt>
  404d8a:	48 85 c0             	test   %rax,%rax
  404d8d:	74 11                	je     404da0 <__sprintf_chk@plt+0x28a0>
  404d8f:	48 83 c0 01          	add    $0x1,%rax
  404d93:	49 89 c5             	mov    %rax,%r13
  404d96:	0f 85 68 ff ff ff    	jne    404d04 <__sprintf_chk@plt+0x2804>
  404d9c:	0f 1f 40 00          	nopl   0x0(%rax)
  404da0:	49 8b 06             	mov    (%r14),%rax
  404da3:	48 85 c0             	test   %rax,%rax
  404da6:	74 6a                	je     404e12 <__sprintf_chk@plt+0x2912>
  404da8:	49 89 c6             	mov    %rax,%r14
  404dab:	41 8b 46 08          	mov    0x8(%r14),%eax
  404daf:	85 c0                	test   %eax,%eax
  404db1:	0f 84 29 ff ff ff    	je     404ce0 <__sprintf_chk@plt+0x27e0>
  404db7:	4d 8b 6e 20          	mov    0x20(%r14),%r13
  404dbb:	49 8b 6e 10          	mov    0x10(%r14),%rbp
  404dbf:	4d 85 ed             	test   %r13,%r13
  404dc2:	74 dc                	je     404da0 <__sprintf_chk@plt+0x28a0>
  404dc4:	45 31 e4             	xor    %r12d,%r12d
  404dc7:	eb 14                	jmp    404ddd <__sprintf_chk@plt+0x28dd>
  404dc9:	0f 1f 80 00 00 00 00 	nopl   0x0(%rax)
  404dd0:	49 83 c4 01          	add    $0x1,%r12
  404dd4:	48 83 c5 10          	add    $0x10,%rbp
  404dd8:	4d 39 ec             	cmp    %r13,%r12
  404ddb:	74 c3                	je     404da0 <__sprintf_chk@plt+0x28a0>
  404ddd:	8b 55 08             	mov    0x8(%rbp),%edx
  404de0:	48 8b 74 24 08       	mov    0x8(%rsp),%rsi
  404de5:	48 8b 7d 00          	mov    0x0(%rbp),%rdi
  404de9:	e8 22 fe ff ff       	callq  404c10 <__sprintf_chk@plt+0x2710>
  404dee:	84 c0                	test   %al,%al
  404df0:	74 de                	je     404dd0 <__sprintf_chk@plt+0x28d0>
  404df2:	e9 52 ff ff ff       	jmpq   404d49 <__sprintf_chk@plt+0x2849>
  404df7:	48 8b 7c 24 08       	mov    0x8(%rsp),%rdi
  404dfc:	e8 0f d2 ff ff       	callq  402010 <strlen@plt>
  404e01:	48 8d 78 01          	lea    0x1(%rax),%rdi
  404e05:	e8 76 75 00 00       	callq  40c380 <__sprintf_chk@plt+0x9e80>
  404e0a:	48 89 c3             	mov    %rax,%rbx
  404e0d:	e9 d7 fe ff ff       	jmpq   404ce9 <__sprintf_chk@plt+0x27e9>
  404e12:	bd 01 00 00 00       	mov    $0x1,%ebp
  404e17:	e9 2f ff ff ff       	jmpq   404d4b <__sprintf_chk@plt+0x284b>
  404e1c:	48 83 c4 18          	add    $0x18,%rsp
  404e20:	31 c0                	xor    %eax,%eax
  404e22:	5b                   	pop    %rbx
  404e23:	5d                   	pop    %rbp
  404e24:	41 5c                	pop    %r12
  404e26:	41 5d                	pop    %r13
  404e28:	41 5e                	pop    %r14
  404e2a:	41 5f                	pop    %r15
  404e2c:	c3                   	retq   
  404e2d:	0f 1f 00             	nopl   (%rax)
  404e30:	41 55                	push   %r13
  404e32:	49 89 f5             	mov    %rsi,%r13
  404e35:	41 54                	push   %r12
  404e37:	49 89 fc             	mov    %rdi,%r12
  404e3a:	55                   	push   %rbp
  404e3b:	53                   	push   %rbx
  404e3c:	89 d3                	mov    %edx,%ebx
  404e3e:	48 83 ec 08          	sub    $0x8,%rsp
  404e42:	f7 c2 00 00 00 10    	test   $0x10000000,%edx
  404e48:	48 8b 2f             	mov    (%rdi),%rbp
  404e4b:	74 73                	je     404ec0 <__sprintf_chk@plt+0x29c0>
  404e4d:	89 d6                	mov    %edx,%esi
  404e4f:	4c 89 ef             	mov    %r13,%rdi
  404e52:	e8 99 fc ff ff       	callq  404af0 <__sprintf_chk@plt+0x25f0>
  404e57:	84 c0                	test   %al,%al
  404e59:	74 65                	je     404ec0 <__sprintf_chk@plt+0x29c0>
  404e5b:	48 85 ed             	test   %rbp,%rbp
  404e5e:	74 0a                	je     404e6a <__sprintf_chk@plt+0x296a>
  404e60:	83 7d 08 01          	cmpl   $0x1,0x8(%rbp)
  404e64:	0f 84 96 01 00 00    	je     405000 <__sprintf_chk@plt+0x2b00>
  404e6a:	bf 28 00 00 00       	mov    $0x28,%edi
  404e6f:	e8 8c 76 00 00       	callq  40c500 <__sprintf_chk@plt+0xa000>
  404e74:	49 8b 14 24          	mov    (%r12),%rdx
  404e78:	c7 40 08 01 00 00 00 	movl   $0x1,0x8(%rax)
  404e7f:	48 89 c5             	mov    %rax,%rbp
  404e82:	89 58 0c             	mov    %ebx,0xc(%rax)
  404e85:	48 89 10             	mov    %rdx,(%rax)
  404e88:	49 89 04 24          	mov    %rax,(%r12)
  404e8c:	48 8b 55 20          	mov    0x20(%rbp),%rdx
  404e90:	48 3b 55 18          	cmp    0x18(%rbp),%rdx
  404e94:	0f 84 26 01 00 00    	je     404fc0 <__sprintf_chk@plt+0x2ac0>
  404e9a:	48 8b 45 10          	mov    0x10(%rbp),%rax
  404e9e:	48 8d 4a 01          	lea    0x1(%rdx),%rcx
  404ea2:	48 c1 e2 04          	shl    $0x4,%rdx
  404ea6:	48 01 d0             	add    %rdx,%rax
  404ea9:	48 89 4d 20          	mov    %rcx,0x20(%rbp)
  404ead:	4c 89 28             	mov    %r13,(%rax)
  404eb0:	89 58 08             	mov    %ebx,0x8(%rax)
  404eb3:	48 83 c4 08          	add    $0x8,%rsp
  404eb7:	5b                   	pop    %rbx
  404eb8:	5d                   	pop    %rbp
  404eb9:	41 5c                	pop    %r12
  404ebb:	41 5d                	pop    %r13
  404ebd:	c3                   	retq   
  404ebe:	66 90                	xchg   %ax,%ax
  404ec0:	48 85 ed             	test   %rbp,%rbp
  404ec3:	74 0b                	je     404ed0 <__sprintf_chk@plt+0x29d0>
  404ec5:	8b 45 08             	mov    0x8(%rbp),%eax
  404ec8:	85 c0                	test   %eax,%eax
  404eca:	0f 84 a0 00 00 00    	je     404f70 <__sprintf_chk@plt+0x2a70>
  404ed0:	bf 28 00 00 00       	mov    $0x28,%edi
  404ed5:	e8 26 76 00 00       	callq  40c500 <__sprintf_chk@plt+0xa000>
  404eda:	48 89 c5             	mov    %rax,%rbp
  404edd:	c7 40 08 00 00 00 00 	movl   $0x0,0x8(%rax)
  404ee4:	89 58 0c             	mov    %ebx,0xc(%rax)
  404ee7:	89 d8                	mov    %ebx,%eax
  404ee9:	ba 60 47 40 00       	mov    $0x404760,%edx
  404eee:	b9 40 47 40 00       	mov    $0x404740,%ecx
  404ef3:	83 e0 10             	and    $0x10,%eax
  404ef6:	b8 80 47 40 00       	mov    $0x404780,%eax
  404efb:	41 b8 30 47 40 00    	mov    $0x404730,%r8d
  404f01:	48 0f 44 ca          	cmove  %rdx,%rcx
  404f05:	ba a0 48 40 00       	mov    $0x4048a0,%edx
  404f0a:	48 0f 44 d0          	cmove  %rax,%rdx
  404f0e:	31 f6                	xor    %esi,%esi
  404f10:	31 ff                	xor    %edi,%edi
  404f12:	e8 d9 26 00 00       	callq  4075f0 <__sprintf_chk@plt+0x50f0>
  404f17:	48 89 45 10          	mov    %rax,0x10(%rbp)
  404f1b:	49 8b 04 24          	mov    (%r12),%rax
  404f1f:	48 89 45 00          	mov    %rax,0x0(%rbp)
  404f23:	49 89 2c 24          	mov    %rbp,(%r12)
  404f27:	4c 89 ef             	mov    %r13,%rdi
  404f2a:	81 e3 02 00 00 10    	and    $0x10000002,%ebx
  404f30:	e8 3b 76 00 00       	callq  40c570 <__sprintf_chk@plt+0xa070>
  404f35:	81 fb 00 00 00 10    	cmp    $0x10000000,%ebx
  404f3b:	49 89 c4             	mov    %rax,%r12
  404f3e:	74 48                	je     404f88 <__sprintf_chk@plt+0x2a88>
  404f40:	48 8b 7d 10          	mov    0x10(%rbp),%rdi
  404f44:	4c 89 e6             	mov    %r12,%rsi
  404f47:	e8 f4 2d 00 00       	callq  407d40 <__sprintf_chk@plt+0x5840>
  404f4c:	4c 39 e0             	cmp    %r12,%rax
  404f4f:	0f 84 5e ff ff ff    	je     404eb3 <__sprintf_chk@plt+0x29b3>
  404f55:	48 83 c4 08          	add    $0x8,%rsp
  404f59:	4c 89 e7             	mov    %r12,%rdi
  404f5c:	5b                   	pop    %rbx
  404f5d:	5d                   	pop    %rbp
  404f5e:	41 5c                	pop    %r12
  404f60:	41 5d                	pop    %r13
  404f62:	e9 69 cf ff ff       	jmpq   401ed0 <free@plt>
  404f67:	66 0f 1f 84 00 00 00 	nopw   0x0(%rax,%rax,1)
  404f6e:	00 00 
  404f70:	8b 45 0c             	mov    0xc(%rbp),%eax
  404f73:	31 d8                	xor    %ebx,%eax
  404f75:	a9 18 00 00 60       	test   $0x60000018,%eax
  404f7a:	74 ab                	je     404f27 <__sprintf_chk@plt+0x2a27>
  404f7c:	e9 4f ff ff ff       	jmpq   404ed0 <__sprintf_chk@plt+0x29d0>
  404f81:	0f 1f 80 00 00 00 00 	nopl   0x0(%rax)
  404f88:	48 89 c2             	mov    %rax,%rdx
  404f8b:	48 89 c1             	mov    %rax,%rcx
  404f8e:	eb 18                	jmp    404fa8 <__sprintf_chk@plt+0x2aa8>
  404f90:	49 01 d0             	add    %rdx,%r8
  404f93:	48 83 c1 01          	add    $0x1,%rcx
  404f97:	49 8d 50 01          	lea    0x1(%r8),%rdx
  404f9b:	45 0f b6 00          	movzbl (%r8),%r8d
  404f9f:	45 84 c0             	test   %r8b,%r8b
  404fa2:	44 88 41 ff          	mov    %r8b,-0x1(%rcx)
  404fa6:	74 98                	je     404f40 <__sprintf_chk@plt+0x2a40>
  404fa8:	45 31 c0             	xor    %r8d,%r8d
  404fab:	80 3a 5c             	cmpb   $0x5c,(%rdx)
  404fae:	75 e0                	jne    404f90 <__sprintf_chk@plt+0x2a90>
  404fb0:	45 31 c0             	xor    %r8d,%r8d
  404fb3:	80 7a 01 00          	cmpb   $0x0,0x1(%rdx)
  404fb7:	41 0f 95 c0          	setne  %r8b
  404fbb:	eb d3                	jmp    404f90 <__sprintf_chk@plt+0x2a90>
  404fbd:	0f 1f 00             	nopl   (%rax)
  404fc0:	48 8b 7d 10          	mov    0x10(%rbp),%rdi
  404fc4:	48 85 ff             	test   %rdi,%rdi
  404fc7:	74 4c                	je     405015 <__sprintf_chk@plt+0x2b15>
  404fc9:	48 b8 a9 aa aa aa aa 	movabs $0xaaaaaaaaaaaaaa9,%rax
  404fd0:	aa aa 0a 
  404fd3:	48 39 c2             	cmp    %rax,%rdx
  404fd6:	77 4e                	ja     405026 <__sprintf_chk@plt+0x2b26>
  404fd8:	48 8d 42 01          	lea    0x1(%rdx),%rax
  404fdc:	48 d1 e8             	shr    %rax
  404fdf:	48 01 c2             	add    %rax,%rdx
  404fe2:	48 89 d6             	mov    %rdx,%rsi
  404fe5:	48 c1 e6 04          	shl    $0x4,%rsi
  404fe9:	48 89 55 18          	mov    %rdx,0x18(%rbp)
  404fed:	e8 de 73 00 00       	callq  40c3d0 <__sprintf_chk@plt+0x9ed0>
  404ff2:	48 8b 55 20          	mov    0x20(%rbp),%rdx
  404ff6:	48 89 45 10          	mov    %rax,0x10(%rbp)
  404ffa:	e9 9f fe ff ff       	jmpq   404e9e <__sprintf_chk@plt+0x299e>
  404fff:	90                   	nop
  405000:	8b 45 0c             	mov    0xc(%rbp),%eax
  405003:	31 d8                	xor    %ebx,%eax
  405005:	a9 00 00 00 20       	test   $0x20000000,%eax
  40500a:	0f 84 7c fe ff ff    	je     404e8c <__sprintf_chk@plt+0x298c>
  405010:	e9 55 fe ff ff       	jmpq   404e6a <__sprintf_chk@plt+0x296a>
  405015:	48 85 d2             	test   %rdx,%rdx
  405018:	75 c8                	jne    404fe2 <__sprintf_chk@plt+0x2ae2>
  40501a:	be 80 00 00 00       	mov    $0x80,%esi
  40501f:	ba 08 00 00 00       	mov    $0x8,%edx
  405024:	eb c3                	jmp    404fe9 <__sprintf_chk@plt+0x2ae9>
  405026:	e8 65 75 00 00       	callq  40c590 <__sprintf_chk@plt+0xa090>
  40502b:	0f 1f 44 00 00       	nopl   0x0(%rax,%rax,1)
  405030:	41 57                	push   %r15
  405032:	41 56                	push   %r14
  405034:	41 55                	push   %r13
  405036:	45 89 c5             	mov    %r8d,%r13d
  405039:	41 54                	push   %r12
  40503b:	55                   	push   %rbp
  40503c:	53                   	push   %rbx
  40503d:	44 89 c3             	mov    %r8d,%ebx
  405040:	48 83 ec 48          	sub    $0x48,%rsp
  405044:	80 3a 2d             	cmpb   $0x2d,(%rdx)
  405047:	48 89 7c 24 10       	mov    %rdi,0x10(%rsp)
  40504c:	48 89 74 24 18       	mov    %rsi,0x18(%rsp)
  405051:	89 4c 24 28          	mov    %ecx,0x28(%rsp)
  405055:	74 69                	je     4050c0 <__sprintf_chk@plt+0x2bc0>
  405057:	be 7e 32 41 00       	mov    $0x41327e,%esi
  40505c:	48 89 d7             	mov    %rdx,%rdi
  40505f:	48 c7 44 24 38 00 00 	movq   $0x0,0x38(%rsp)
  405066:	00 00 
  405068:	e8 83 d3 ff ff       	callq  4023f0 <fopen@plt>
  40506d:	48 85 c0             	test   %rax,%rax
  405070:	48 89 c5             	mov    %rax,%rbp
  405073:	74 68                	je     4050dd <__sprintf_chk@plt+0x2bdd>
  405075:	c6 44 24 08 00       	movb   $0x0,0x8(%rsp)
  40507a:	45 31 ff             	xor    %r15d,%r15d
  40507d:	45 31 f6             	xor    %r14d,%r14d
  405080:	eb 0e                	jmp    405090 <__sprintf_chk@plt+0x2b90>
  405082:	66 0f 1f 44 00 00    	nopw   0x0(%rax,%rax,1)
  405088:	47 88 24 3e          	mov    %r12b,(%r14,%r15,1)
  40508c:	49 83 c7 01          	add    $0x1,%r15
  405090:	48 8b 4d 08          	mov    0x8(%rbp),%rcx
  405094:	48 3b 4d 10          	cmp    0x10(%rbp),%rcx
  405098:	73 57                	jae    4050f1 <__sprintf_chk@plt+0x2bf1>
  40509a:	48 8d 71 01          	lea    0x1(%rcx),%rsi
  40509e:	48 89 75 08          	mov    %rsi,0x8(%rbp)
  4050a2:	44 0f b6 21          	movzbl (%rcx),%r12d
  4050a6:	4c 3b 7c 24 38       	cmp    0x38(%rsp),%r15
  4050ab:	75 db                	jne    405088 <__sprintf_chk@plt+0x2b88>
  4050ad:	48 8d 74 24 38       	lea    0x38(%rsp),%rsi
  4050b2:	4c 89 f7             	mov    %r14,%rdi
  4050b5:	e8 f6 73 00 00       	callq  40c4b0 <__sprintf_chk@plt+0x9fb0>
  4050ba:	49 89 c6             	mov    %rax,%r14
  4050bd:	eb c9                	jmp    405088 <__sprintf_chk@plt+0x2b88>
  4050bf:	90                   	nop
  4050c0:	80 7a 01 00          	cmpb   $0x0,0x1(%rdx)
  4050c4:	75 91                	jne    405057 <__sprintf_chk@plt+0x2b57>
  4050c6:	48 c7 44 24 38 00 00 	movq   $0x0,0x38(%rsp)
  4050cd:	00 00 
  4050cf:	48 8b 2d 42 53 21 00 	mov    0x215342(%rip),%rbp        # 61a418 <stdin>
  4050d6:	c6 44 24 08 01       	movb   $0x1,0x8(%rsp)
  4050db:	eb 9d                	jmp    40507a <__sprintf_chk@plt+0x2b7a>
  4050dd:	48 83 c4 48          	add    $0x48,%rsp
  4050e1:	b8 ff ff ff ff       	mov    $0xffffffff,%eax
  4050e6:	5b                   	pop    %rbx
  4050e7:	5d                   	pop    %rbp
  4050e8:	41 5c                	pop    %r12
  4050ea:	41 5d                	pop    %r13
  4050ec:	41 5e                	pop    %r14
  4050ee:	41 5f                	pop    %r15
  4050f0:	c3                   	retq   
  4050f1:	48 89 ef             	mov    %rbp,%rdi
  4050f4:	e8 b7 cd ff ff       	callq  401eb0 <__uflow@plt>
  4050f9:	83 f8 ff             	cmp    $0xffffffff,%eax
  4050fc:	41 89 c4             	mov    %eax,%r12d
  4050ff:	75 a5                	jne    4050a6 <__sprintf_chk@plt+0x2ba6>
  405101:	f6 45 00 20          	testb  $0x20,0x0(%rbp)
  405105:	0f 85 1d 01 00 00    	jne    405228 <__sprintf_chk@plt+0x2d28>
  40510b:	e8 00 ce ff ff       	callq  401f10 <__errno_location@plt>
  405110:	80 7c 24 08 00       	cmpb   $0x0,0x8(%rsp)
  405115:	48 89 44 24 20       	mov    %rax,0x20(%rsp)
  40511a:	c7 44 24 2c 00 00 00 	movl   $0x0,0x2c(%rsp)
  405121:	00 
  405122:	0f 84 1b 01 00 00    	je     405243 <__sprintf_chk@plt+0x2d43>
  405128:	49 8d 77 01          	lea    0x1(%r15),%rsi
  40512c:	4c 89 f7             	mov    %r14,%rdi
  40512f:	e8 9c 72 00 00       	callq  40c3d0 <__sprintf_chk@plt+0x9ed0>
  405134:	4d 85 ff             	test   %r15,%r15
  405137:	49 89 c6             	mov    %rax,%r14
  40513a:	46 88 2c 38          	mov    %r13b,(%rax,%r15,1)
  40513e:	0f 84 9c 00 00 00    	je     4051e0 <__sprintf_chk@plt+0x2ce0>
  405144:	31 ed                	xor    %ebp,%ebp
  405146:	46 3a 6c 38 ff       	cmp    -0x1(%rax,%r15,1),%r13b
  40514b:	40 0f 95 c5          	setne  %bpl
  40514f:	4a 8d 54 3d 00       	lea    0x0(%rbp,%r15,1),%rdx
  405154:	48 8d 2c 10          	lea    (%rax,%rdx,1),%rbp
  405158:	48 39 e8             	cmp    %rbp,%rax
  40515b:	0f 83 7f 00 00 00    	jae    4051e0 <__sprintf_chk@plt+0x2ce0>
  405161:	44 0f b6 eb          	movzbl %bl,%r13d
  405165:	4c 8d 78 01          	lea    0x1(%rax),%r15
  405169:	4d 01 ed             	add    %r13,%r13
  40516c:	eb 0b                	jmp    405179 <__sprintf_chk@plt+0x2c79>
  40516e:	66 90                	xchg   %ax,%ax
  405170:	49 83 c7 01          	add    $0x1,%r15
  405174:	49 39 ec             	cmp    %rbp,%r12
  405177:	73 67                	jae    4051e0 <__sprintf_chk@plt+0x2ce0>
  405179:	41 38 5f ff          	cmp    %bl,-0x1(%r15)
  40517d:	49 8d 57 ff          	lea    -0x1(%r15),%rdx
  405181:	4d 89 fc             	mov    %r15,%r12
  405184:	75 ea                	jne    405170 <__sprintf_chk@plt+0x2c70>
  405186:	48 89 54 24 08       	mov    %rdx,0x8(%rsp)
  40518b:	e8 50 d3 ff ff       	callq  4024e0 <__ctype_b_loc@plt>
  405190:	48 8b 00             	mov    (%rax),%rax
  405193:	48 8b 54 24 08       	mov    0x8(%rsp),%rdx
  405198:	66 42 f7 04 28 00 20 	testw  $0x2000,(%rax,%r13,1)
  40519f:	74 67                	je     405208 <__sprintf_chk@plt+0x2d08>
  4051a1:	4c 39 f2             	cmp    %r14,%rdx
  4051a4:	74 26                	je     4051cc <__sprintf_chk@plt+0x2ccc>
  4051a6:	41 0f b6 7f fe       	movzbl -0x2(%r15),%edi
  4051ab:	f6 44 78 01 20       	testb  $0x20,0x1(%rax,%rdi,2)
  4051b0:	75 11                	jne    4051c3 <__sprintf_chk@plt+0x2cc3>
  4051b2:	eb 54                	jmp    405208 <__sprintf_chk@plt+0x2d08>
  4051b4:	0f 1f 40 00          	nopl   0x0(%rax)
  4051b8:	0f b6 7a ff          	movzbl -0x1(%rdx),%edi
  4051bc:	f6 44 78 01 20       	testb  $0x20,0x1(%rax,%rdi,2)
  4051c1:	74 45                	je     405208 <__sprintf_chk@plt+0x2d08>
  4051c3:	48 83 ea 01          	sub    $0x1,%rdx
  4051c7:	4c 39 f2             	cmp    %r14,%rdx
  4051ca:	75 ec                	jne    4051b8 <__sprintf_chk@plt+0x2cb8>
  4051cc:	4d 89 fe             	mov    %r15,%r14
  4051cf:	49 83 c7 01          	add    $0x1,%r15
  4051d3:	49 39 ec             	cmp    %rbp,%r12
  4051d6:	72 a1                	jb     405179 <__sprintf_chk@plt+0x2c79>
  4051d8:	0f 1f 84 00 00 00 00 	nopl   0x0(%rax,%rax,1)
  4051df:	00 
  4051e0:	8b 44 24 2c          	mov    0x2c(%rsp),%eax
  4051e4:	48 8b 5c 24 20       	mov    0x20(%rsp),%rbx
  4051e9:	85 c0                	test   %eax,%eax
  4051eb:	89 03                	mov    %eax,(%rbx)
  4051ed:	0f 95 c0             	setne  %al
  4051f0:	48 83 c4 48          	add    $0x48,%rsp
  4051f4:	5b                   	pop    %rbx
  4051f5:	5d                   	pop    %rbp
  4051f6:	41 5c                	pop    %r12
  4051f8:	41 5d                	pop    %r13
  4051fa:	0f b6 c0             	movzbl %al,%eax
  4051fd:	41 5e                	pop    %r14
  4051ff:	f7 d8                	neg    %eax
  405201:	41 5f                	pop    %r15
  405203:	c3                   	retq   
  405204:	0f 1f 40 00          	nopl   0x0(%rax)
  405208:	c6 02 00             	movb   $0x0,(%rdx)
  40520b:	4c 89 f6             	mov    %r14,%rsi
  40520e:	8b 54 24 28          	mov    0x28(%rsp),%edx
  405212:	48 8b 7c 24 18       	mov    0x18(%rsp),%rdi
  405217:	48 8b 44 24 10       	mov    0x10(%rsp),%rax
  40521c:	4d 89 fe             	mov    %r15,%r14
  40521f:	ff d0                	callq  *%rax
  405221:	eb ac                	jmp    4051cf <__sprintf_chk@plt+0x2ccf>
  405223:	0f 1f 44 00 00       	nopl   0x0(%rax,%rax,1)
  405228:	e8 e3 cc ff ff       	callq  401f10 <__errno_location@plt>
  40522d:	80 7c 24 08 00       	cmpb   $0x0,0x8(%rsp)
  405232:	48 89 44 24 20       	mov    %rax,0x20(%rsp)
  405237:	8b 00                	mov    (%rax),%eax
  405239:	89 44 24 2c          	mov    %eax,0x2c(%rsp)
  40523d:	0f 85 e5 fe ff ff    	jne    405128 <__sprintf_chk@plt+0x2c28>
  405243:	48 89 ef             	mov    %rbp,%rdi
  405246:	e8 a5 84 00 00       	callq  40d6f0 <__sprintf_chk@plt+0xb1f0>
  40524b:	85 c0                	test   %eax,%eax
  40524d:	0f 84 d5 fe ff ff    	je     405128 <__sprintf_chk@plt+0x2c28>
  405253:	48 8b 44 24 20       	mov    0x20(%rsp),%rax
  405258:	8b 00                	mov    (%rax),%eax
  40525a:	89 44 24 2c          	mov    %eax,0x2c(%rsp)
  40525e:	e9 c5 fe ff ff       	jmpq   405128 <__sprintf_chk@plt+0x2c28>
  405263:	66 2e 0f 1f 84 00 00 	nopw   %cs:0x0(%rax,%rax,1)
  40526a:	00 00 00 
  40526d:	0f 1f 00             	nopl   (%rax)
  405270:	41 55                	push   %r13
  405272:	41 54                	push   %r12
  405274:	55                   	push   %rbp
  405275:	48 89 d5             	mov    %rdx,%rbp
  405278:	53                   	push   %rbx
  405279:	48 83 ec 08          	sub    $0x8,%rsp
  40527d:	48 85 d2             	test   %rdx,%rdx
  405280:	74 2a                	je     4052ac <__sprintf_chk@plt+0x2dac>
  405282:	49 89 fc             	mov    %rdi,%r12
  405285:	48 89 f3             	mov    %rsi,%rbx
  405288:	e8 43 d2 ff ff       	callq  4024d0 <__ctype_tolower_loc@plt>
  40528d:	49 89 c5             	mov    %rax,%r13
  405290:	0f b6 0b             	movzbl (%rbx),%ecx
  405293:	49 8b 55 00          	mov    0x0(%r13),%rdx
  405297:	4c 89 e6             	mov    %r12,%rsi
  40529a:	48 83 c3 01          	add    $0x1,%rbx
  40529e:	8b 3c 8a             	mov    (%rdx,%rcx,4),%edi
  4052a1:	e8 ba ce ff ff       	callq  402160 <fputc@plt>
  4052a6:	48 83 ed 01          	sub    $0x1,%rbp
  4052aa:	75 e4                	jne    405290 <__sprintf_chk@plt+0x2d90>
  4052ac:	48 83 c4 08          	add    $0x8,%rsp
  4052b0:	5b                   	pop    %rbx
  4052b1:	5d                   	pop    %rbp
  4052b2:	41 5c                	pop    %r12
  4052b4:	41 5d                	pop    %r13
  4052b6:	c3                   	retq   
  4052b7:	66 0f 1f 84 00 00 00 	nopw   0x0(%rax,%rax,1)
  4052be:	00 00 
  4052c0:	41 55                	push   %r13
  4052c2:	41 54                	push   %r12
  4052c4:	55                   	push   %rbp
  4052c5:	48 89 d5             	mov    %rdx,%rbp
  4052c8:	53                   	push   %rbx
  4052c9:	48 83 ec 08          	sub    $0x8,%rsp
  4052cd:	48 85 d2             	test   %rdx,%rdx
  4052d0:	74 2a                	je     4052fc <__sprintf_chk@plt+0x2dfc>
  4052d2:	49 89 fc             	mov    %rdi,%r12
  4052d5:	48 89 f3             	mov    %rsi,%rbx
  4052d8:	e8 c3 cb ff ff       	callq  401ea0 <__ctype_toupper_loc@plt>
  4052dd:	49 89 c5             	mov    %rax,%r13
  4052e0:	0f b6 0b             	movzbl (%rbx),%ecx
  4052e3:	49 8b 55 00          	mov    0x0(%r13),%rdx
  4052e7:	4c 89 e6             	mov    %r12,%rsi
  4052ea:	48 83 c3 01          	add    $0x1,%rbx
  4052ee:	8b 3c 8a             	mov    (%rdx,%rcx,4),%edi
  4052f1:	e8 6a ce ff ff       	callq  402160 <fputc@plt>
  4052f6:	48 83 ed 01          	sub    $0x1,%rbp
  4052fa:	75 e4                	jne    4052e0 <__sprintf_chk@plt+0x2de0>
  4052fc:	48 83 c4 08          	add    $0x8,%rsp
  405300:	5b                   	pop    %rbx
  405301:	5d                   	pop    %rbp
  405302:	41 5c                	pop    %r12
  405304:	41 5d                	pop    %r13
  405306:	c3                   	retq   
  405307:	66 0f 1f 84 00 00 00 	nopw   0x0(%rax,%rax,1)
  40530e:	00 00 
  405310:	41 57                	push   %r15
  405312:	48 89 c8             	mov    %rcx,%rax
  405315:	41 56                	push   %r14
  405317:	41 55                	push   %r13
  405319:	41 54                	push   %r12
  40531b:	49 89 d4             	mov    %rdx,%r12
  40531e:	55                   	push   %rbp
  40531f:	53                   	push   %rbx
  405320:	48 89 f3             	mov    %rsi,%rbx
  405323:	48 81 ec d8 04 00 00 	sub    $0x4d8,%rsp
  40532a:	48 8b 40 30          	mov    0x30(%rax),%rax
  40532e:	48 89 4c 24 18       	mov    %rcx,0x18(%rsp)
  405333:	8b 49 08             	mov    0x8(%rcx),%ecx
  405336:	64 48 8b 14 25 28 00 	mov    %fs:0x28,%rdx
  40533d:	00 00 
  40533f:	48 89 94 24 c8 04 00 	mov    %rdx,0x4c8(%rsp)
  405346:	00 
  405347:	31 d2                	xor    %edx,%edx
  405349:	44 89 44 24 68       	mov    %r8d,0x68(%rsp)
  40534e:	44 89 4c 24 24       	mov    %r9d,0x24(%rsp)
  405353:	83 f9 0c             	cmp    $0xc,%ecx
  405356:	40 88 7c 24 23       	mov    %dil,0x23(%rsp)
  40535b:	89 4c 24 0c          	mov    %ecx,0xc(%rsp)
  40535f:	48 89 44 24 30       	mov    %rax,0x30(%rsp)
  405364:	0f 8e 86 01 00 00    	jle    4054f0 <__sprintf_chk@plt+0x2ff0>
  40536a:	83 6c 24 0c 0c       	subl   $0xc,0xc(%rsp)
  40536f:	41 0f be 3c 24       	movsbl (%r12),%edi
  405374:	40 84 ff             	test   %dil,%dil
  405377:	74 47                	je     4053c0 <__sprintf_chk@plt+0x2ec0>
  405379:	48 8d 84 24 c1 00 00 	lea    0xc1(%rsp),%rax
  405380:	00 
  405381:	45 31 ff             	xor    %r15d,%r15d
  405384:	48 89 44 24 28       	mov    %rax,0x28(%rsp)
  405389:	40 80 ff 25          	cmp    $0x25,%dil
  40538d:	74 61                	je     4053f0 <__sprintf_chk@plt+0x2ef0>
  40538f:	49 83 ff fd          	cmp    $0xfffffffffffffffd,%r15
  405393:	77 2b                	ja     4053c0 <__sprintf_chk@plt+0x2ec0>
  405395:	48 85 db             	test   %rbx,%rbx
  405398:	74 08                	je     4053a2 <__sprintf_chk@plt+0x2ea2>
  40539a:	48 89 de             	mov    %rbx,%rsi
  40539d:	e8 be cd ff ff       	callq  402160 <fputc@plt>
  4053a2:	49 83 c7 01          	add    $0x1,%r15
  4053a6:	4d 89 e5             	mov    %r12,%r13
  4053a9:	41 0f be 7d 01       	movsbl 0x1(%r13),%edi
  4053ae:	4d 8d 65 01          	lea    0x1(%r13),%r12
  4053b2:	40 84 ff             	test   %dil,%dil
  4053b5:	75 d2                	jne    405389 <__sprintf_chk@plt+0x2e89>
  4053b7:	4c 89 f8             	mov    %r15,%rax
  4053ba:	eb 06                	jmp    4053c2 <__sprintf_chk@plt+0x2ec2>
  4053bc:	0f 1f 40 00          	nopl   0x0(%rax)
  4053c0:	31 c0                	xor    %eax,%eax
  4053c2:	48 8b 9c 24 c8 04 00 	mov    0x4c8(%rsp),%rbx
  4053c9:	00 
  4053ca:	64 48 33 1c 25 28 00 	xor    %fs:0x28,%rbx
  4053d1:	00 00 
  4053d3:	0f 85 ce 17 00 00    	jne    406ba7 <__sprintf_chk@plt+0x46a7>
  4053d9:	48 81 c4 d8 04 00 00 	add    $0x4d8,%rsp
  4053e0:	5b                   	pop    %rbx
  4053e1:	5d                   	pop    %rbp
  4053e2:	41 5c                	pop    %r12
  4053e4:	41 5d                	pop    %r13
  4053e6:	41 5e                	pop    %r14
  4053e8:	41 5f                	pop    %r15
  4053ea:	c3                   	retq   
  4053eb:	0f 1f 44 00 00       	nopl   0x0(%rax,%rax,1)
  4053f0:	0f b6 44 24 23       	movzbl 0x23(%rsp),%eax
  4053f5:	31 d2                	xor    %edx,%edx
  4053f7:	c7 44 24 10 00 00 00 	movl   $0x0,0x10(%rsp)
  4053fe:	00 
  4053ff:	88 44 24 08          	mov    %al,0x8(%rsp)
  405403:	49 83 c4 01          	add    $0x1,%r12
  405407:	41 0f b6 34 24       	movzbl (%r12),%esi
  40540c:	40 80 fe 30          	cmp    $0x30,%sil
  405410:	74 1e                	je     405430 <__sprintf_chk@plt+0x2f30>
  405412:	7f 2c                	jg     405440 <__sprintf_chk@plt+0x2f40>
  405414:	40 80 fe 23          	cmp    $0x23,%sil
  405418:	75 3e                	jne    405458 <__sprintf_chk@plt+0x2f58>
  40541a:	49 83 c4 01          	add    $0x1,%r12
  40541e:	41 0f b6 34 24       	movzbl (%r12),%esi
  405423:	ba 01 00 00 00       	mov    $0x1,%edx
  405428:	40 80 fe 30          	cmp    $0x30,%sil
  40542c:	75 e4                	jne    405412 <__sprintf_chk@plt+0x2f12>
  40542e:	66 90                	xchg   %ax,%ax
  405430:	40 0f be c6          	movsbl %sil,%eax
  405434:	89 44 24 10          	mov    %eax,0x10(%rsp)
  405438:	eb c9                	jmp    405403 <__sprintf_chk@plt+0x2f03>
  40543a:	66 0f 1f 44 00 00    	nopw   0x0(%rax,%rax,1)
  405440:	40 80 fe 5e          	cmp    $0x5e,%sil
  405444:	0f 85 96 00 00 00    	jne    4054e0 <__sprintf_chk@plt+0x2fe0>
  40544a:	c6 44 24 08 01       	movb   $0x1,0x8(%rsp)
  40544f:	eb b2                	jmp    405403 <__sprintf_chk@plt+0x2f03>
  405451:	0f 1f 80 00 00 00 00 	nopl   0x0(%rax)
  405458:	40 80 fe 2d          	cmp    $0x2d,%sil
  40545c:	74 d2                	je     405430 <__sprintf_chk@plt+0x2f30>
  40545e:	40 0f be c6          	movsbl %sil,%eax
  405462:	bd ff ff ff ff       	mov    $0xffffffff,%ebp
  405467:	83 e8 30             	sub    $0x30,%eax
  40546a:	83 f8 09             	cmp    $0x9,%eax
  40546d:	77 41                	ja     4054b0 <__sprintf_chk@plt+0x2fb0>
  40546f:	31 ed                	xor    %ebp,%ebp
  405471:	eb 2d                	jmp    4054a0 <__sprintf_chk@plt+0x2fa0>
  405473:	0f 1f 44 00 00       	nopl   0x0(%rax,%rax,1)
  405478:	41 0f be 04 24       	movsbl (%r12),%eax
  40547d:	0f 84 9d 00 00 00    	je     405520 <__sprintf_chk@plt+0x3020>
  405483:	8d 4c ad 00          	lea    0x0(%rbp,%rbp,4),%ecx
  405487:	8d 6c 48 d0          	lea    -0x30(%rax,%rcx,2),%ebp
  40548b:	49 83 c4 01          	add    $0x1,%r12
  40548f:	41 0f b6 34 24       	movzbl (%r12),%esi
  405494:	40 0f be c6          	movsbl %sil,%eax
  405498:	83 e8 30             	sub    $0x30,%eax
  40549b:	83 f8 09             	cmp    $0x9,%eax
  40549e:	77 10                	ja     4054b0 <__sprintf_chk@plt+0x2fb0>
  4054a0:	81 fd cc cc cc 0c    	cmp    $0xccccccc,%ebp
  4054a6:	7e d0                	jle    405478 <__sprintf_chk@plt+0x2f78>
  4054a8:	bd ff ff ff 7f       	mov    $0x7fffffff,%ebp
  4054ad:	eb dc                	jmp    40548b <__sprintf_chk@plt+0x2f8b>
  4054af:	90                   	nop
  4054b0:	40 80 fe 45          	cmp    $0x45,%sil
  4054b4:	74 5a                	je     405510 <__sprintf_chk@plt+0x3010>
  4054b6:	31 c9                	xor    %ecx,%ecx
  4054b8:	40 80 fe 4f          	cmp    $0x4f,%sil
  4054bc:	74 52                	je     405510 <__sprintf_chk@plt+0x3010>
  4054be:	40 80 fe 7a          	cmp    $0x7a,%sil
  4054c2:	44 0f be c6          	movsbl %sil,%r8d
  4054c6:	0f 87 c7 0f 00 00    	ja     406493 <__sprintf_chk@plt+0x3f93>
  4054cc:	40 0f b6 c6          	movzbl %sil,%eax
  4054d0:	ff 24 c5 68 52 41 00 	jmpq   *0x415268(,%rax,8)
  4054d7:	66 0f 1f 84 00 00 00 	nopw   0x0(%rax,%rax,1)
  4054de:	00 00 
  4054e0:	40 80 fe 5f          	cmp    $0x5f,%sil
  4054e4:	0f 85 74 ff ff ff    	jne    40545e <__sprintf_chk@plt+0x2f5e>
  4054ea:	e9 41 ff ff ff       	jmpq   405430 <__sprintf_chk@plt+0x2f30>
  4054ef:	90                   	nop
  4054f0:	8b 4c 24 0c          	mov    0xc(%rsp),%ecx
  4054f4:	b8 0c 00 00 00       	mov    $0xc,%eax
  4054f9:	85 c9                	test   %ecx,%ecx
  4054fb:	0f 45 c1             	cmovne %ecx,%eax
  4054fe:	89 44 24 0c          	mov    %eax,0xc(%rsp)
  405502:	e9 68 fe ff ff       	jmpq   40536f <__sprintf_chk@plt+0x2e6f>
  405507:	66 0f 1f 84 00 00 00 	nopw   0x0(%rax,%rax,1)
  40550e:	00 00 
  405510:	40 0f be ce          	movsbl %sil,%ecx
  405514:	49 83 c4 01          	add    $0x1,%r12
  405518:	41 0f b6 34 24       	movzbl (%r12),%esi
  40551d:	eb 9f                	jmp    4054be <__sprintf_chk@plt+0x2fbe>
  40551f:	90                   	nop
  405520:	3c 37                	cmp    $0x37,%al
  405522:	0f 8e 5b ff ff ff    	jle    405483 <__sprintf_chk@plt+0x2f83>
  405528:	bd ff ff ff 7f       	mov    $0x7fffffff,%ebp
  40552d:	e9 59 ff ff ff       	jmpq   40548b <__sprintf_chk@plt+0x2f8b>
  405532:	66 0f 1f 44 00 00    	nopw   0x0(%rax,%rax,1)
  405538:	85 c9                	test   %ecx,%ecx
  40553a:	0f 84 f4 01 00 00    	je     405734 <__sprintf_chk@plt+0x3234>
  405540:	49 8d 44 24 ff       	lea    -0x1(%r12),%rax
  405545:	41 be 01 00 00 00    	mov    $0x1,%r14d
  40554b:	48 89 c2             	mov    %rax,%rdx
  40554e:	48 8d 40 ff          	lea    -0x1(%rax),%rax
  405552:	41 83 c6 01          	add    $0x1,%r14d
  405556:	80 78 01 25          	cmpb   $0x25,0x1(%rax)
  40555a:	75 ef                	jne    40554b <__sprintf_chk@plt+0x304b>
  40555c:	48 89 54 24 40       	mov    %rdx,0x40(%rsp)
  405561:	4d 63 f6             	movslq %r14d,%r14
  405564:	4d 89 e5             	mov    %r12,%r13
  405567:	31 c0                	xor    %eax,%eax
  405569:	85 ed                	test   %ebp,%ebp
  40556b:	0f 49 c5             	cmovns %ebp,%eax
  40556e:	48 98                	cltq   
  405570:	49 39 c6             	cmp    %rax,%r14
  405573:	48 89 c2             	mov    %rax,%rdx
  405576:	49 0f 43 d6          	cmovae %r14,%rdx
  40557a:	48 89 d1             	mov    %rdx,%rcx
  40557d:	48 89 54 24 38       	mov    %rdx,0x38(%rsp)
  405582:	4c 89 fa             	mov    %r15,%rdx
  405585:	48 f7 d2             	not    %rdx
  405588:	48 39 d1             	cmp    %rdx,%rcx
  40558b:	0f 83 2f fe ff ff    	jae    4053c0 <__sprintf_chk@plt+0x2ec0>
  405591:	48 85 db             	test   %rbx,%rbx
  405594:	74 53                	je     4055e9 <__sprintf_chk@plt+0x30e9>
  405596:	4c 39 f0             	cmp    %r14,%rax
  405599:	76 33                	jbe    4055ce <__sprintf_chk@plt+0x30ce>
  40559b:	48 63 ed             	movslq %ebp,%rbp
  40559e:	4c 29 f5             	sub    %r14,%rbp
  4055a1:	83 7c 24 10 30       	cmpl   $0x30,0x10(%rsp)
  4055a6:	0f 84 db 10 00 00    	je     406687 <__sprintf_chk@plt+0x4187>
  4055ac:	45 31 e4             	xor    %r12d,%r12d
  4055af:	48 85 ed             	test   %rbp,%rbp
  4055b2:	74 1a                	je     4055ce <__sprintf_chk@plt+0x30ce>
  4055b4:	0f 1f 40 00          	nopl   0x0(%rax)
  4055b8:	48 89 de             	mov    %rbx,%rsi
  4055bb:	bf 20 00 00 00       	mov    $0x20,%edi
  4055c0:	49 83 c4 01          	add    $0x1,%r12
  4055c4:	e8 97 cb ff ff       	callq  402160 <fputc@plt>
  4055c9:	49 39 ec             	cmp    %rbp,%r12
  4055cc:	75 ea                	jne    4055b8 <__sprintf_chk@plt+0x30b8>
  4055ce:	80 7c 24 08 00       	cmpb   $0x0,0x8(%rsp)
  4055d3:	0f 84 27 01 00 00    	je     405700 <__sprintf_chk@plt+0x3200>
  4055d9:	48 8b 74 24 40       	mov    0x40(%rsp),%rsi
  4055de:	4c 89 f2             	mov    %r14,%rdx
  4055e1:	48 89 df             	mov    %rbx,%rdi
  4055e4:	e8 d7 fc ff ff       	callq  4052c0 <__sprintf_chk@plt+0x2dc0>
  4055e9:	4c 03 7c 24 38       	add    0x38(%rsp),%r15
  4055ee:	e9 b6 fd ff ff       	jmpq   4053a9 <__sprintf_chk@plt+0x2ea9>
  4055f3:	0f 1f 44 00 00       	nopl   0x0(%rax,%rax,1)
  4055f8:	83 f9 4f             	cmp    $0x4f,%ecx
  4055fb:	0f 84 3f ff ff ff    	je     405540 <__sprintf_chk@plt+0x3040>
  405601:	c6 44 24 40 00       	movb   $0x0,0x40(%rsp)
  405606:	85 c9                	test   %ecx,%ecx
  405608:	c6 84 24 b0 00 00 00 	movb   $0x20,0xb0(%rsp)
  40560f:	20 
  405610:	c6 84 24 b1 00 00 00 	movb   $0x25,0xb1(%rsp)
  405617:	25 
  405618:	0f 85 8e 15 00 00    	jne    406bac <__sprintf_chk@plt+0x46ac>
  40561e:	48 8d 84 24 b2 00 00 	lea    0xb2(%rsp),%rax
  405625:	00 
  405626:	4d 89 e5             	mov    %r12,%r13
  405629:	45 31 d2             	xor    %r10d,%r10d
  40562c:	48 8b 4c 24 18       	mov    0x18(%rsp),%rcx
  405631:	48 8d 94 24 b0 00 00 	lea    0xb0(%rsp),%rdx
  405638:	00 
  405639:	48 8d bc 24 c0 00 00 	lea    0xc0(%rsp),%rdi
  405640:	00 
  405641:	40 88 30             	mov    %sil,(%rax)
  405644:	c6 40 01 00          	movb   $0x0,0x1(%rax)
  405648:	be 00 04 00 00       	mov    $0x400,%esi
  40564d:	44 89 54 24 38       	mov    %r10d,0x38(%rsp)
  405652:	e8 49 cd ff ff       	callq  4023a0 <strftime@plt>
  405657:	48 85 c0             	test   %rax,%rax
  40565a:	44 8b 54 24 38       	mov    0x38(%rsp),%r10d
  40565f:	0f 84 44 fd ff ff    	je     4053a9 <__sprintf_chk@plt+0x2ea9>
  405665:	4c 8d 60 ff          	lea    -0x1(%rax),%r12
  405669:	31 c0                	xor    %eax,%eax
  40566b:	85 ed                	test   %ebp,%ebp
  40566d:	0f 49 c5             	cmovns %ebp,%eax
  405670:	4c 89 fa             	mov    %r15,%rdx
  405673:	48 98                	cltq   
  405675:	4c 89 e1             	mov    %r12,%rcx
  405678:	48 f7 d2             	not    %rdx
  40567b:	4c 39 e0             	cmp    %r12,%rax
  40567e:	48 0f 43 c8          	cmovae %rax,%rcx
  405682:	48 39 d1             	cmp    %rdx,%rcx
  405685:	48 89 4c 24 38       	mov    %rcx,0x38(%rsp)
  40568a:	0f 83 30 fd ff ff    	jae    4053c0 <__sprintf_chk@plt+0x2ec0>
  405690:	48 85 db             	test   %rbx,%rbx
  405693:	0f 84 50 ff ff ff    	je     4055e9 <__sprintf_chk@plt+0x30e9>
  405699:	49 39 c4             	cmp    %rax,%r12
  40569c:	73 05                	jae    4056a3 <__sprintf_chk@plt+0x31a3>
  40569e:	45 85 d2             	test   %r10d,%r10d
  4056a1:	74 27                	je     4056ca <__sprintf_chk@plt+0x31ca>
  4056a3:	80 7c 24 40 00       	cmpb   $0x0,0x40(%rsp)
  4056a8:	0f 85 f8 0e 00 00    	jne    4065a6 <__sprintf_chk@plt+0x40a6>
  4056ae:	80 7c 24 08 00       	cmpb   $0x0,0x8(%rsp)
  4056b3:	74 65                	je     40571a <__sprintf_chk@plt+0x321a>
  4056b5:	48 8b 74 24 28       	mov    0x28(%rsp),%rsi
  4056ba:	4c 89 e2             	mov    %r12,%rdx
  4056bd:	48 89 df             	mov    %rbx,%rdi
  4056c0:	e8 fb fb ff ff       	callq  4052c0 <__sprintf_chk@plt+0x2dc0>
  4056c5:	e9 1f ff ff ff       	jmpq   4055e9 <__sprintf_chk@plt+0x30e9>
  4056ca:	48 63 ed             	movslq %ebp,%rbp
  4056cd:	4c 29 e5             	sub    %r12,%rbp
  4056d0:	83 7c 24 10 30       	cmpl   $0x30,0x10(%rsp)
  4056d5:	0f 84 8a 0d 00 00    	je     406465 <__sprintf_chk@plt+0x3f65>
  4056db:	45 31 f6             	xor    %r14d,%r14d
  4056de:	48 85 ed             	test   %rbp,%rbp
  4056e1:	74 c0                	je     4056a3 <__sprintf_chk@plt+0x31a3>
  4056e3:	0f 1f 44 00 00       	nopl   0x0(%rax,%rax,1)
  4056e8:	48 89 de             	mov    %rbx,%rsi
  4056eb:	bf 20 00 00 00       	mov    $0x20,%edi
  4056f0:	49 83 c6 01          	add    $0x1,%r14
  4056f4:	e8 67 ca ff ff       	callq  402160 <fputc@plt>
  4056f9:	49 39 ee             	cmp    %rbp,%r14
  4056fc:	75 ea                	jne    4056e8 <__sprintf_chk@plt+0x31e8>
  4056fe:	eb a3                	jmp    4056a3 <__sprintf_chk@plt+0x31a3>
  405700:	48 8b 7c 24 40       	mov    0x40(%rsp),%rdi
  405705:	48 89 d9             	mov    %rbx,%rcx
  405708:	ba 01 00 00 00       	mov    $0x1,%edx
  40570d:	4c 89 f6             	mov    %r14,%rsi
  405710:	e8 4b cd ff ff       	callq  402460 <fwrite@plt>
  405715:	e9 cf fe ff ff       	jmpq   4055e9 <__sprintf_chk@plt+0x30e9>
  40571a:	48 8b 7c 24 28       	mov    0x28(%rsp),%rdi
  40571f:	48 89 d9             	mov    %rbx,%rcx
  405722:	ba 01 00 00 00       	mov    $0x1,%edx
  405727:	4c 89 e6             	mov    %r12,%rsi
  40572a:	e8 31 cd ff ff       	callq  402460 <fwrite@plt>
  40572f:	e9 b5 fe ff ff       	jmpq   4055e9 <__sprintf_chk@plt+0x30e9>
  405734:	0f b6 4c 24 08       	movzbl 0x8(%rsp),%ecx
  405739:	84 d2                	test   %dl,%dl
  40573b:	b8 01 00 00 00       	mov    $0x1,%eax
  405740:	0f 45 c8             	cmovne %eax,%ecx
  405743:	88 4c 24 08          	mov    %cl,0x8(%rsp)
  405747:	c6 84 24 b0 00 00 00 	movb   $0x20,0xb0(%rsp)
  40574e:	20 
  40574f:	c6 84 24 b1 00 00 00 	movb   $0x25,0xb1(%rsp)
  405756:	25 
  405757:	4d 89 e5             	mov    %r12,%r13
  40575a:	c6 44 24 40 00       	movb   $0x0,0x40(%rsp)
  40575f:	45 31 d2             	xor    %r10d,%r10d
  405762:	48 8d 84 24 b2 00 00 	lea    0xb2(%rsp),%rax
  405769:	00 
  40576a:	e9 bd fe ff ff       	jmpq   40562c <__sprintf_chk@plt+0x312c>
  40576f:	83 f9 45             	cmp    $0x45,%ecx
  405772:	0f 84 c8 fd ff ff    	je     405540 <__sprintf_chk@plt+0x3040>
  405778:	8b 7c 24 0c          	mov    0xc(%rsp),%edi
  40577c:	83 7c 24 10 2d       	cmpl   $0x2d,0x10(%rsp)
  405781:	41 ba 02 00 00 00    	mov    $0x2,%r10d
  405787:	74 17                	je     4057a0 <__sprintf_chk@plt+0x32a0>
  405789:	83 7c 24 10 30       	cmpl   $0x30,0x10(%rsp)
  40578e:	74 10                	je     4057a0 <__sprintf_chk@plt+0x32a0>
  405790:	c7 44 24 10 5f 00 00 	movl   $0x5f,0x10(%rsp)
  405797:	00 
  405798:	0f 1f 84 00 00 00 00 	nopl   0x0(%rax,%rax,1)
  40579f:	00 
  4057a0:	89 f8                	mov    %edi,%eax
  4057a2:	31 f6                	xor    %esi,%esi
  4057a4:	45 31 ed             	xor    %r13d,%r13d
  4057a7:	c1 e8 1f             	shr    $0x1f,%eax
  4057aa:	41 89 c3             	mov    %eax,%r11d
  4057ad:	45 84 db             	test   %r11b,%r11b
  4057b0:	0f 85 fa 01 00 00    	jne    4059b0 <__sprintf_chk@plt+0x34b0>
  4057b6:	83 f9 4f             	cmp    $0x4f,%ecx
  4057b9:	0f 85 f1 01 00 00    	jne    4059b0 <__sprintf_chk@plt+0x34b0>
  4057bf:	c6 84 24 b0 00 00 00 	movb   $0x20,0xb0(%rsp)
  4057c6:	20 
  4057c7:	c6 84 24 b1 00 00 00 	movb   $0x25,0xb1(%rsp)
  4057ce:	25 
  4057cf:	c6 44 24 40 00       	movb   $0x0,0x40(%rsp)
  4057d4:	88 8c 24 b2 00 00 00 	mov    %cl,0xb2(%rsp)
  4057db:	44 89 c6             	mov    %r8d,%esi
  4057de:	4d 89 e5             	mov    %r12,%r13
  4057e1:	48 8d 84 24 b3 00 00 	lea    0xb3(%rsp),%rax
  4057e8:	00 
  4057e9:	e9 3e fe ff ff       	jmpq   40562c <__sprintf_chk@plt+0x312c>
  4057ee:	83 f9 45             	cmp    $0x45,%ecx
  4057f1:	0f 84 49 fd ff ff    	je     405540 <__sprintf_chk@plt+0x3040>
  4057f7:	48 8b 44 24 18       	mov    0x18(%rsp),%rax
  4057fc:	8b 78 08             	mov    0x8(%rax),%edi
  4057ff:	e9 78 ff ff ff       	jmpq   40577c <__sprintf_chk@plt+0x327c>
  405804:	83 f9 45             	cmp    $0x45,%ecx
  405807:	0f 84 33 fd ff ff    	je     405540 <__sprintf_chk@plt+0x3040>
  40580d:	48 8b 44 24 18       	mov    0x18(%rsp),%rax
  405812:	41 ba 03 00 00 00    	mov    $0x3,%r10d
  405818:	8b 78 1c             	mov    0x1c(%rax),%edi
  40581b:	83 ff ff             	cmp    $0xffffffff,%edi
  40581e:	41 0f 9c c3          	setl   %r11b
  405822:	83 c7 01             	add    $0x1,%edi
  405825:	31 f6                	xor    %esi,%esi
  405827:	45 31 ed             	xor    %r13d,%r13d
  40582a:	eb 81                	jmp    4057ad <__sprintf_chk@plt+0x32ad>
  40582c:	83 f9 45             	cmp    $0x45,%ecx
  40582f:	0f 84 0b fd ff ff    	je     405540 <__sprintf_chk@plt+0x3040>
  405835:	48 8b 44 24 18       	mov    0x18(%rsp),%rax
  40583a:	8b 78 0c             	mov    0xc(%rax),%edi
  40583d:	e9 3a ff ff ff       	jmpq   40577c <__sprintf_chk@plt+0x327c>
  405842:	83 f9 45             	cmp    $0x45,%ecx
  405845:	0f 84 f5 fc ff ff    	je     405540 <__sprintf_chk@plt+0x3040>
  40584b:	48 8b 44 24 18       	mov    0x18(%rsp),%rax
  405850:	41 ba 02 00 00 00    	mov    $0x2,%r10d
  405856:	8b 78 0c             	mov    0xc(%rax),%edi
  405859:	e9 42 ff ff ff       	jmpq   4057a0 <__sprintf_chk@plt+0x32a0>
  40585e:	45 31 ed             	xor    %r13d,%r13d
  405861:	48 8b 44 24 18       	mov    0x18(%rsp),%rax
  405866:	8b 70 20             	mov    0x20(%rax),%esi
  405869:	85 f6                	test   %esi,%esi
  40586b:	0f 88 ea 0f 00 00    	js     40685b <__sprintf_chk@plt+0x435b>
  405871:	4c 8b 58 28          	mov    0x28(%rax),%r11
  405875:	ba c5 b3 a2 91       	mov    $0x91a2b3c5,%edx
  40587a:	bf 89 88 88 88       	mov    $0x88888889,%edi
  40587f:	41 be 3c 00 00 00    	mov    $0x3c,%r14d
  405885:	44 89 d8             	mov    %r11d,%eax
  405888:	45 89 da             	mov    %r11d,%r10d
  40588b:	f7 ea                	imul   %edx
  40588d:	44 89 d8             	mov    %r11d,%eax
  405890:	41 c1 fa 1f          	sar    $0x1f,%r10d
  405894:	46 8d 0c 1a          	lea    (%rdx,%r11,1),%r9d
  405898:	f7 ef                	imul   %edi
  40589a:	41 c1 f9 0b          	sar    $0xb,%r9d
  40589e:	45 29 d1             	sub    %r10d,%r9d
  4058a1:	42 8d 34 1a          	lea    (%rdx,%r11,1),%esi
  4058a5:	c1 fe 05             	sar    $0x5,%esi
  4058a8:	44 29 d6             	sub    %r10d,%esi
  4058ab:	89 f0                	mov    %esi,%eax
  4058ad:	f7 ef                	imul   %edi
  4058af:	8d 04 32             	lea    (%rdx,%rsi,1),%eax
  4058b2:	89 f2                	mov    %esi,%edx
  4058b4:	c1 fa 1f             	sar    $0x1f,%edx
  4058b7:	c1 f8 05             	sar    $0x5,%eax
  4058ba:	29 d0                	sub    %edx,%eax
  4058bc:	89 f2                	mov    %esi,%edx
  4058be:	41 0f af c6          	imul   %r14d,%eax
  4058c2:	29 c2                	sub    %eax,%edx
  4058c4:	89 d0                	mov    %edx,%eax
  4058c6:	ba 3c 00 00 00       	mov    $0x3c,%edx
  4058cb:	0f af f2             	imul   %edx,%esi
  4058ce:	44 89 da             	mov    %r11d,%edx
  4058d1:	29 f2                	sub    %esi,%edx
  4058d3:	49 83 fd 01          	cmp    $0x1,%r13
  4058d7:	0f 84 f3 0f 00 00    	je     4068d0 <__sprintf_chk@plt+0x43d0>
  4058dd:	0f 82 9e 11 00 00    	jb     406a81 <__sprintf_chk@plt+0x4581>
  4058e3:	49 83 fd 02          	cmp    $0x2,%r13
  4058e7:	0f 84 b6 0f 00 00    	je     4068a3 <__sprintf_chk@plt+0x43a3>
  4058ed:	49 83 fd 03          	cmp    $0x3,%r13
  4058f1:	0f 84 95 10 00 00    	je     40698c <__sprintf_chk@plt+0x448c>
  4058f7:	41 0f b6 34 24       	movzbl (%r12),%esi
  4058fc:	4d 89 e5             	mov    %r12,%r13
  4058ff:	40 80 fe 25          	cmp    $0x25,%sil
  405903:	0f 85 ab 12 00 00    	jne    406bb4 <__sprintf_chk@plt+0x46b4>
  405909:	4c 89 6c 24 40       	mov    %r13,0x40(%rsp)
  40590e:	41 be 01 00 00 00    	mov    $0x1,%r14d
  405914:	e9 4e fc ff ff       	jmpq   405567 <__sprintf_chk@plt+0x3067>
  405919:	84 d2                	test   %dl,%dl
  40591b:	0f b6 54 24 08       	movzbl 0x8(%rsp),%edx
  405920:	b8 01 00 00 00       	mov    $0x1,%eax
  405925:	0f 45 d0             	cmovne %eax,%edx
  405928:	85 c9                	test   %ecx,%ecx
  40592a:	88 54 24 08          	mov    %dl,0x8(%rsp)
  40592e:	0f 85 0c fc ff ff    	jne    405540 <__sprintf_chk@plt+0x3040>
  405934:	e9 0e fe ff ff       	jmpq   405747 <__sprintf_chk@plt+0x3247>
  405939:	83 f9 45             	cmp    $0x45,%ecx
  40593c:	0f 84 fe fb ff ff    	je     405540 <__sprintf_chk@plt+0x3040>
  405942:	48 8b 44 24 18       	mov    0x18(%rsp),%rax
  405947:	41 ba 01 00 00 00    	mov    $0x1,%r10d
  40594d:	8b 78 18             	mov    0x18(%rax),%edi
  405950:	e9 4b fe ff ff       	jmpq   4057a0 <__sprintf_chk@plt+0x32a0>
  405955:	83 f9 4f             	cmp    $0x4f,%ecx
  405958:	0f 84 e2 fb ff ff    	je     405540 <__sprintf_chk@plt+0x3040>
  40595e:	83 f9 45             	cmp    $0x45,%ecx
  405961:	0f 84 08 10 00 00    	je     40696f <__sprintf_chk@plt+0x446f>
  405967:	48 8b 44 24 18       	mov    0x18(%rsp),%rax
  40596c:	ba 1f 85 eb 51       	mov    $0x51eb851f,%edx
  405971:	be 64 00 00 00       	mov    $0x64,%esi
  405976:	8b 48 14             	mov    0x14(%rax),%ecx
  405979:	89 c8                	mov    %ecx,%eax
  40597b:	f7 ea                	imul   %edx
  40597d:	89 c8                	mov    %ecx,%eax
  40597f:	c1 f8 1f             	sar    $0x1f,%eax
  405982:	c1 fa 05             	sar    $0x5,%edx
  405985:	29 c2                	sub    %eax,%edx
  405987:	31 c0                	xor    %eax,%eax
  405989:	8d 7a 13             	lea    0x13(%rdx),%edi
  40598c:	0f af d6             	imul   %esi,%edx
  40598f:	39 d1                	cmp    %edx,%ecx
  405991:	0f 88 5e 11 00 00    	js     406af5 <__sprintf_chk@plt+0x45f5>
  405997:	81 f9 94 f8 ff ff    	cmp    $0xfffff894,%ecx
  40599d:	41 ba 02 00 00 00    	mov    $0x2,%r10d
  4059a3:	41 0f 9c c3          	setl   %r11b
  4059a7:	29 c7                	sub    %eax,%edi
  4059a9:	31 f6                	xor    %esi,%esi
  4059ab:	45 31 ed             	xor    %r13d,%r13d
  4059ae:	66 90                	xchg   %ax,%ax
  4059b0:	89 f8                	mov    %edi,%eax
  4059b2:	48 8d 8c 24 d7 00 00 	lea    0xd7(%rsp),%rcx
  4059b9:	00 
  4059ba:	41 b8 cd cc cc cc    	mov    $0xcccccccd,%r8d
  4059c0:	f7 d8                	neg    %eax
  4059c2:	45 84 db             	test   %r11b,%r11b
  4059c5:	0f 45 f8             	cmovne %eax,%edi
  4059c8:	eb 09                	jmp    4059d3 <__sprintf_chk@plt+0x34d3>
  4059ca:	66 0f 1f 44 00 00    	nopw   0x0(%rax,%rax,1)
  4059d0:	4c 89 f1             	mov    %r14,%rcx
  4059d3:	40 f6 c6 01          	test   $0x1,%sil
  4059d7:	74 08                	je     4059e1 <__sprintf_chk@plt+0x34e1>
  4059d9:	c6 41 ff 3a          	movb   $0x3a,-0x1(%rcx)
  4059dd:	48 83 e9 01          	sub    $0x1,%rcx
  4059e1:	89 f8                	mov    %edi,%eax
  4059e3:	4c 8d 71 ff          	lea    -0x1(%rcx),%r14
  4059e7:	41 f7 e0             	mul    %r8d
  4059ea:	c1 ea 03             	shr    $0x3,%edx
  4059ed:	8d 04 92             	lea    (%rdx,%rdx,4),%eax
  4059f0:	01 c0                	add    %eax,%eax
  4059f2:	29 c7                	sub    %eax,%edi
  4059f4:	83 c7 30             	add    $0x30,%edi
  4059f7:	d1 fe                	sar    %esi
  4059f9:	40 88 79 ff          	mov    %dil,-0x1(%rcx)
  4059fd:	89 d7                	mov    %edx,%edi
  4059ff:	75 cf                	jne    4059d0 <__sprintf_chk@plt+0x34d0>
  405a01:	85 d2                	test   %edx,%edx
  405a03:	75 cb                	jne    4059d0 <__sprintf_chk@plt+0x34d0>
  405a05:	44 39 d5             	cmp    %r10d,%ebp
  405a08:	44 0f 4d d5          	cmovge %ebp,%r10d
  405a0c:	45 84 db             	test   %r11b,%r11b
  405a0f:	44 89 54 24 38       	mov    %r10d,0x38(%rsp)
  405a14:	0f 85 86 0a 00 00    	jne    4064a0 <__sprintf_chk@plt+0x3fa0>
  405a1a:	45 84 ed             	test   %r13b,%r13b
  405a1d:	0f 85 79 0b 00 00    	jne    40659c <__sprintf_chk@plt+0x409c>
  405a23:	83 7c 24 10 2d       	cmpl   $0x2d,0x10(%rsp)
  405a28:	0f 84 b5 0d 00 00    	je     4067e3 <__sprintf_chk@plt+0x42e3>
  405a2e:	31 c0                	xor    %eax,%eax
  405a30:	c6 44 24 50 00       	movb   $0x0,0x50(%rsp)
  405a35:	c6 44 24 40 00       	movb   $0x0,0x40(%rsp)
  405a3a:	66 0f 1f 44 00 00    	nopw   0x0(%rax,%rax,1)
  405a40:	8b 54 24 38          	mov    0x38(%rsp),%edx
  405a44:	48 8d 8c 24 d7 00 00 	lea    0xd7(%rsp),%rcx
  405a4b:	00 
  405a4c:	48 89 4c 24 48       	mov    %rcx,0x48(%rsp)
  405a51:	29 c2                	sub    %eax,%edx
  405a53:	4c 89 f0             	mov    %r14,%rax
  405a56:	48 29 c8             	sub    %rcx,%rax
  405a59:	01 d0                	add    %edx,%eax
  405a5b:	85 c0                	test   %eax,%eax
  405a5d:	89 44 24 58          	mov    %eax,0x58(%rsp)
  405a61:	0f 8e 54 0b 00 00    	jle    4065bb <__sprintf_chk@plt+0x40bb>
  405a67:	83 7c 24 10 5f       	cmpl   $0x5f,0x10(%rsp)
  405a6c:	0f 84 41 0c 00 00    	je     4066b3 <__sprintf_chk@plt+0x41b3>
  405a72:	48 63 54 24 38       	movslq 0x38(%rsp),%rdx
  405a77:	4c 89 f8             	mov    %r15,%rax
  405a7a:	48 f7 d0             	not    %rax
  405a7d:	48 39 c2             	cmp    %rax,%rdx
  405a80:	0f 83 3a f9 ff ff    	jae    4053c0 <__sprintf_chk@plt+0x2ec0>
  405a86:	80 7c 24 50 00       	cmpb   $0x0,0x50(%rsp)
  405a8b:	0f 84 8d 00 00 00    	je     405b1e <__sprintf_chk@plt+0x361e>
  405a91:	31 d2                	xor    %edx,%edx
  405a93:	85 ed                	test   %ebp,%ebp
  405a95:	41 bd 01 00 00 00    	mov    $0x1,%r13d
  405a9b:	0f 49 d5             	cmovns %ebp,%edx
  405a9e:	48 63 d2             	movslq %edx,%rdx
  405aa1:	48 85 d2             	test   %rdx,%rdx
  405aa4:	4c 0f 45 ea          	cmovne %rdx,%r13
  405aa8:	4c 39 e8             	cmp    %r13,%rax
  405aab:	0f 86 0f f9 ff ff    	jbe    4053c0 <__sprintf_chk@plt+0x2ec0>
  405ab1:	48 85 db             	test   %rbx,%rbx
  405ab4:	74 65                	je     405b1b <__sprintf_chk@plt+0x361b>
  405ab6:	48 83 fa 01          	cmp    $0x1,%rdx
  405aba:	76 52                	jbe    405b0e <__sprintf_chk@plt+0x360e>
  405abc:	8b 44 24 38          	mov    0x38(%rsp),%eax
  405ac0:	85 c0                	test   %eax,%eax
  405ac2:	75 4a                	jne    405b0e <__sprintf_chk@plt+0x360e>
  405ac4:	83 7c 24 10 30       	cmpl   $0x30,0x10(%rsp)
  405ac9:	48 63 ed             	movslq %ebp,%rbp
  405acc:	48 8d 45 ff          	lea    -0x1(%rbp),%rax
  405ad0:	0f 84 e0 0e 00 00    	je     4069b6 <__sprintf_chk@plt+0x44b6>
  405ad6:	31 ed                	xor    %ebp,%ebp
  405ad8:	48 85 c0             	test   %rax,%rax
  405adb:	74 31                	je     405b0e <__sprintf_chk@plt+0x360e>
  405add:	4c 89 64 24 50       	mov    %r12,0x50(%rsp)
  405ae2:	49 89 ec             	mov    %rbp,%r12
  405ae5:	48 89 dd             	mov    %rbx,%rbp
  405ae8:	48 89 c3             	mov    %rax,%rbx
  405aeb:	0f 1f 44 00 00       	nopl   0x0(%rax,%rax,1)
  405af0:	48 89 ee             	mov    %rbp,%rsi
  405af3:	bf 20 00 00 00       	mov    $0x20,%edi
  405af8:	49 83 c4 01          	add    $0x1,%r12
  405afc:	e8 5f c6 ff ff       	callq  402160 <fputc@plt>
  405b01:	4c 39 e3             	cmp    %r12,%rbx
  405b04:	77 ea                	ja     405af0 <__sprintf_chk@plt+0x35f0>
  405b06:	4c 8b 64 24 50       	mov    0x50(%rsp),%r12
  405b0b:	48 89 eb             	mov    %rbp,%rbx
  405b0e:	0f be 7c 24 40       	movsbl 0x40(%rsp),%edi
  405b13:	48 89 de             	mov    %rbx,%rsi
  405b16:	e8 45 c6 ff ff       	callq  402160 <fputc@plt>
  405b1b:	4d 01 ef             	add    %r13,%r15
  405b1e:	45 31 ed             	xor    %r13d,%r13d
  405b21:	48 85 db             	test   %rbx,%rbx
  405b24:	48 63 6c 24 58       	movslq 0x58(%rsp),%rbp
  405b29:	74 1b                	je     405b46 <__sprintf_chk@plt+0x3646>
  405b2b:	0f 1f 44 00 00       	nopl   0x0(%rax,%rax,1)
  405b30:	48 89 de             	mov    %rbx,%rsi
  405b33:	bf 30 00 00 00       	mov    $0x30,%edi
  405b38:	49 83 c5 01          	add    $0x1,%r13
  405b3c:	e8 1f c6 ff ff       	callq  402160 <fputc@plt>
  405b41:	49 39 ed             	cmp    %rbp,%r13
  405b44:	72 ea                	jb     405b30 <__sprintf_chk@plt+0x3630>
  405b46:	49 01 ef             	add    %rbp,%r15
  405b49:	4d 89 e5             	mov    %r12,%r13
  405b4c:	31 d2                	xor    %edx,%edx
  405b4e:	31 ed                	xor    %ebp,%ebp
  405b50:	48 8b 44 24 48       	mov    0x48(%rsp),%rax
  405b55:	4c 29 f0             	sub    %r14,%rax
  405b58:	48 39 d0             	cmp    %rdx,%rax
  405b5b:	48 89 c1             	mov    %rax,%rcx
  405b5e:	48 89 c7             	mov    %rax,%rdi
  405b61:	48 89 44 24 40       	mov    %rax,0x40(%rsp)
  405b66:	4c 89 f8             	mov    %r15,%rax
  405b69:	48 0f 42 ca          	cmovb  %rdx,%rcx
  405b6d:	48 f7 d0             	not    %rax
  405b70:	48 89 4c 24 48       	mov    %rcx,0x48(%rsp)
  405b75:	48 39 c1             	cmp    %rax,%rcx
  405b78:	0f 83 42 f8 ff ff    	jae    4053c0 <__sprintf_chk@plt+0x2ec0>
  405b7e:	48 85 db             	test   %rbx,%rbx
  405b81:	74 5e                	je     405be1 <__sprintf_chk@plt+0x36e1>
  405b83:	48 39 d7             	cmp    %rdx,%rdi
  405b86:	73 3e                	jae    405bc6 <__sprintf_chk@plt+0x36c6>
  405b88:	8b 44 24 38          	mov    0x38(%rsp),%eax
  405b8c:	85 c0                	test   %eax,%eax
  405b8e:	75 36                	jne    405bc6 <__sprintf_chk@plt+0x36c6>
  405b90:	48 63 ed             	movslq %ebp,%rbp
  405b93:	48 2b 6c 24 40       	sub    0x40(%rsp),%rbp
  405b98:	83 7c 24 10 30       	cmpl   $0x30,0x10(%rsp)
  405b9d:	0f 84 12 0c 00 00    	je     4067b5 <__sprintf_chk@plt+0x42b5>
  405ba3:	45 31 e4             	xor    %r12d,%r12d
  405ba6:	48 85 ed             	test   %rbp,%rbp
  405ba9:	74 1b                	je     405bc6 <__sprintf_chk@plt+0x36c6>
  405bab:	0f 1f 44 00 00       	nopl   0x0(%rax,%rax,1)
  405bb0:	48 89 de             	mov    %rbx,%rsi
  405bb3:	bf 20 00 00 00       	mov    $0x20,%edi
  405bb8:	49 83 c4 01          	add    $0x1,%r12
  405bbc:	e8 9f c5 ff ff       	callq  402160 <fputc@plt>
  405bc1:	49 39 ec             	cmp    %rbp,%r12
  405bc4:	75 ea                	jne    405bb0 <__sprintf_chk@plt+0x36b0>
  405bc6:	80 7c 24 08 00       	cmpb   $0x0,0x8(%rsp)
  405bcb:	0f 84 ef 08 00 00    	je     4064c0 <__sprintf_chk@plt+0x3fc0>
  405bd1:	48 8b 54 24 40       	mov    0x40(%rsp),%rdx
  405bd6:	4c 89 f6             	mov    %r14,%rsi
  405bd9:	48 89 df             	mov    %rbx,%rdi
  405bdc:	e8 df f6 ff ff       	callq  4052c0 <__sprintf_chk@plt+0x2dc0>
  405be1:	4c 03 7c 24 48       	add    0x48(%rsp),%r15
  405be6:	e9 be f7 ff ff       	jmpq   4053a9 <__sprintf_chk@plt+0x2ea9>
  405beb:	83 f9 45             	cmp    $0x45,%ecx
  405bee:	0f 84 27 0c 00 00    	je     40681b <__sprintf_chk@plt+0x431b>
  405bf4:	48 8b 44 24 18       	mov    0x18(%rsp),%rax
  405bf9:	bf 1f 85 eb 51       	mov    $0x51eb851f,%edi
  405bfe:	41 b9 64 00 00 00    	mov    $0x64,%r9d
  405c04:	41 ba 02 00 00 00    	mov    $0x2,%r10d
  405c0a:	8b 70 14             	mov    0x14(%rax),%esi
  405c0d:	89 f0                	mov    %esi,%eax
  405c0f:	f7 ef                	imul   %edi
  405c11:	89 f0                	mov    %esi,%eax
  405c13:	c1 f8 1f             	sar    $0x1f,%eax
  405c16:	89 d7                	mov    %edx,%edi
  405c18:	c1 ff 05             	sar    $0x5,%edi
  405c1b:	29 c7                	sub    %eax,%edi
  405c1d:	89 f0                	mov    %esi,%eax
  405c1f:	41 0f af f9          	imul   %r9d,%edi
  405c23:	29 f8                	sub    %edi,%eax
  405c25:	89 c7                	mov    %eax,%edi
  405c27:	0f 89 73 fb ff ff    	jns    4057a0 <__sprintf_chk@plt+0x32a0>
  405c2d:	f7 d8                	neg    %eax
  405c2f:	83 c7 64             	add    $0x64,%edi
  405c32:	81 fe 93 f8 ff ff    	cmp    $0xfffff893,%esi
  405c38:	0f 4e f8             	cmovle %eax,%edi
  405c3b:	e9 60 fb ff ff       	jmpq   4057a0 <__sprintf_chk@plt+0x32a0>
  405c40:	41 0f b6 44 24 01    	movzbl 0x1(%r12),%eax
  405c46:	3c 3a                	cmp    $0x3a,%al
  405c48:	0f 84 31 0c 00 00    	je     40687f <__sprintf_chk@plt+0x437f>
  405c4e:	49 8d 54 24 01       	lea    0x1(%r12),%rdx
  405c53:	41 bd 01 00 00 00    	mov    $0x1,%r13d
  405c59:	3c 7a                	cmp    $0x7a,%al
  405c5b:	0f 85 df f8 ff ff    	jne    405540 <__sprintf_chk@plt+0x3040>
  405c61:	49 89 d4             	mov    %rdx,%r12
  405c64:	e9 f8 fb ff ff       	jmpq   405861 <__sprintf_chk@plt+0x3361>
  405c69:	85 c9                	test   %ecx,%ecx
  405c6b:	0f 85 b2 0b 00 00    	jne    406823 <__sprintf_chk@plt+0x4323>
  405c71:	85 ed                	test   %ebp,%ebp
  405c73:	89 c8                	mov    %ecx,%eax
  405c75:	41 bd 01 00 00 00    	mov    $0x1,%r13d
  405c7b:	0f 49 c5             	cmovns %ebp,%eax
  405c7e:	4c 89 fa             	mov    %r15,%rdx
  405c81:	48 98                	cltq   
  405c83:	48 f7 d2             	not    %rdx
  405c86:	48 85 c0             	test   %rax,%rax
  405c89:	4c 0f 45 e8          	cmovne %rax,%r13
  405c8d:	49 39 d5             	cmp    %rdx,%r13
  405c90:	0f 83 2a f7 ff ff    	jae    4053c0 <__sprintf_chk@plt+0x2ec0>
  405c96:	48 85 db             	test   %rbx,%rbx
  405c99:	0f 84 bc 03 00 00    	je     40605b <__sprintf_chk@plt+0x3b5b>
  405c9f:	48 83 f8 01          	cmp    $0x1,%rax
  405ca3:	44 89 c7             	mov    %r8d,%edi
  405ca6:	76 35                	jbe    405cdd <__sprintf_chk@plt+0x37dd>
  405ca8:	48 63 ed             	movslq %ebp,%rbp
  405cab:	48 83 ed 01          	sub    $0x1,%rbp
  405caf:	83 7c 24 10 30       	cmpl   $0x30,0x10(%rsp)
  405cb4:	0f 84 ba 0e 00 00    	je     406b74 <__sprintf_chk@plt+0x4674>
  405cba:	45 31 f6             	xor    %r14d,%r14d
  405cbd:	48 85 ed             	test   %rbp,%rbp
  405cc0:	74 1b                	je     405cdd <__sprintf_chk@plt+0x37dd>
  405cc2:	48 89 de             	mov    %rbx,%rsi
  405cc5:	bf 20 00 00 00       	mov    $0x20,%edi
  405cca:	49 83 c6 01          	add    $0x1,%r14
  405cce:	e8 8d c4 ff ff       	callq  402160 <fputc@plt>
  405cd3:	4c 39 f5             	cmp    %r14,%rbp
  405cd6:	77 ea                	ja     405cc2 <__sprintf_chk@plt+0x37c2>
  405cd8:	41 0f be 3c 24       	movsbl (%r12),%edi
  405cdd:	48 89 de             	mov    %rbx,%rsi
  405ce0:	e8 7b c4 ff ff       	callq  402160 <fputc@plt>
  405ce5:	e9 71 03 00 00       	jmpq   40605b <__sprintf_chk@plt+0x3b5b>
  405cea:	83 f9 45             	cmp    $0x45,%ecx
  405ced:	0f 84 4d f8 ff ff    	je     405540 <__sprintf_chk@plt+0x3040>
  405cf3:	48 8b 44 24 18       	mov    0x18(%rsp),%rax
  405cf8:	41 ba 02 00 00 00    	mov    $0x2,%r10d
  405cfe:	8b 78 04             	mov    0x4(%rax),%edi
  405d01:	e9 9a fa ff ff       	jmpq   4057a0 <__sprintf_chk@plt+0x32a0>
  405d06:	be 70 00 00 00       	mov    $0x70,%esi
  405d0b:	41 b8 70 00 00 00    	mov    $0x70,%r8d
  405d11:	c6 44 24 40 01       	movb   $0x1,0x40(%rsp)
  405d16:	0f b6 7c 24 08       	movzbl 0x8(%rsp),%edi
  405d1b:	84 d2                	test   %dl,%dl
  405d1d:	0f b6 54 24 40       	movzbl 0x40(%rsp),%edx
  405d22:	b8 00 00 00 00       	mov    $0x0,%eax
  405d27:	0f 45 f8             	cmovne %eax,%edi
  405d2a:	b8 01 00 00 00       	mov    $0x1,%eax
  405d2f:	0f 45 d0             	cmovne %eax,%edx
  405d32:	40 88 7c 24 08       	mov    %dil,0x8(%rsp)
  405d37:	88 54 24 40          	mov    %dl,0x40(%rsp)
  405d3b:	e9 c6 f8 ff ff       	jmpq   405606 <__sprintf_chk@plt+0x3106>
  405d40:	83 f9 45             	cmp    $0x45,%ecx
  405d43:	0f 84 f7 f7 ff ff    	je     405540 <__sprintf_chk@plt+0x3040>
  405d49:	83 fd ff             	cmp    $0xffffffff,%ebp
  405d4c:	0f 84 09 0c 00 00    	je     40695b <__sprintf_chk@plt+0x445b>
  405d52:	83 fd 08             	cmp    $0x8,%ebp
  405d55:	0f 8f 40 0e 00 00    	jg     406b9b <__sprintf_chk@plt+0x469b>
  405d5b:	8b 7c 24 24          	mov    0x24(%rsp),%edi
  405d5f:	89 ee                	mov    %ebp,%esi
  405d61:	41 b9 67 66 66 66    	mov    $0x66666667,%r9d
  405d67:	66 0f 1f 84 00 00 00 	nopw   0x0(%rax,%rax,1)
  405d6e:	00 00 
  405d70:	89 f8                	mov    %edi,%eax
  405d72:	83 c6 01             	add    $0x1,%esi
  405d75:	c1 ff 1f             	sar    $0x1f,%edi
  405d78:	41 f7 e9             	imul   %r9d
  405d7b:	c1 fa 02             	sar    $0x2,%edx
  405d7e:	29 fa                	sub    %edi,%edx
  405d80:	83 fe 09             	cmp    $0x9,%esi
  405d83:	89 d7                	mov    %edx,%edi
  405d85:	75 e9                	jne    405d70 <__sprintf_chk@plt+0x3870>
  405d87:	41 89 ea             	mov    %ebp,%r10d
  405d8a:	e9 11 fa ff ff       	jmpq   4057a0 <__sprintf_chk@plt+0x32a0>
  405d8f:	4d 8d 6c 24 ff       	lea    -0x1(%r12),%r13
  405d94:	41 0f b6 74 24 ff    	movzbl -0x1(%r12),%esi
  405d9a:	e9 60 fb ff ff       	jmpq   4058ff <__sprintf_chk@plt+0x33ff>
  405d9f:	83 f9 45             	cmp    $0x45,%ecx
  405da2:	0f 84 73 0a 00 00    	je     40681b <__sprintf_chk@plt+0x431b>
  405da8:	83 f9 4f             	cmp    $0x4f,%ecx
  405dab:	0f 84 8f f7 ff ff    	je     405540 <__sprintf_chk@plt+0x3040>
  405db1:	48 8b 44 24 18       	mov    0x18(%rsp),%rax
  405db6:	41 ba 04 00 00 00    	mov    $0x4,%r10d
  405dbc:	8b 78 14             	mov    0x14(%rax),%edi
  405dbf:	81 ff 94 f8 ff ff    	cmp    $0xfffff894,%edi
  405dc5:	41 0f 9c c3          	setl   %r11b
  405dc9:	81 c7 6c 07 00 00    	add    $0x76c,%edi
  405dcf:	e9 d5 fb ff ff       	jmpq   4059a9 <__sprintf_chk@plt+0x34a9>
  405dd4:	31 c0                	xor    %eax,%eax
  405dd6:	85 ed                	test   %ebp,%ebp
  405dd8:	41 bd 01 00 00 00    	mov    $0x1,%r13d
  405dde:	0f 49 c5             	cmovns %ebp,%eax
  405de1:	4c 89 fa             	mov    %r15,%rdx
  405de4:	48 98                	cltq   
  405de6:	48 f7 d2             	not    %rdx
  405de9:	48 85 c0             	test   %rax,%rax
  405dec:	4c 0f 45 e8          	cmovne %rax,%r13
  405df0:	49 39 d5             	cmp    %rdx,%r13
  405df3:	0f 83 c7 f5 ff ff    	jae    4053c0 <__sprintf_chk@plt+0x2ec0>
  405df9:	48 85 db             	test   %rbx,%rbx
  405dfc:	0f 84 59 02 00 00    	je     40605b <__sprintf_chk@plt+0x3b5b>
  405e02:	48 83 f8 01          	cmp    $0x1,%rax
  405e06:	76 36                	jbe    405e3e <__sprintf_chk@plt+0x393e>
  405e08:	48 63 ed             	movslq %ebp,%rbp
  405e0b:	48 83 ed 01          	sub    $0x1,%rbp
  405e0f:	83 7c 24 10 30       	cmpl   $0x30,0x10(%rsp)
  405e14:	0f 84 b4 0c 00 00    	je     406ace <__sprintf_chk@plt+0x45ce>
  405e1a:	45 31 f6             	xor    %r14d,%r14d
  405e1d:	48 85 ed             	test   %rbp,%rbp
  405e20:	74 1c                	je     405e3e <__sprintf_chk@plt+0x393e>
  405e22:	66 0f 1f 44 00 00    	nopw   0x0(%rax,%rax,1)
  405e28:	48 89 de             	mov    %rbx,%rsi
  405e2b:	bf 20 00 00 00       	mov    $0x20,%edi
  405e30:	49 83 c6 01          	add    $0x1,%r14
  405e34:	e8 27 c3 ff ff       	callq  402160 <fputc@plt>
  405e39:	4c 39 f5             	cmp    %r14,%rbp
  405e3c:	77 ea                	ja     405e28 <__sprintf_chk@plt+0x3928>
  405e3e:	48 89 de             	mov    %rbx,%rsi
  405e41:	bf 0a 00 00 00       	mov    $0xa,%edi
  405e46:	e8 15 c3 ff ff       	callq  402160 <fputc@plt>
  405e4b:	e9 0b 02 00 00       	jmpq   40605b <__sprintf_chk@plt+0x3b5b>
  405e50:	0f b6 4c 24 08       	movzbl 0x8(%rsp),%ecx
  405e55:	80 fa 01             	cmp    $0x1,%dl
  405e58:	48 8b 7c 24 30       	mov    0x30(%rsp),%rdi
  405e5d:	19 c0                	sbb    %eax,%eax
  405e5f:	89 44 24 38          	mov    %eax,0x38(%rsp)
  405e63:	b8 00 00 00 00       	mov    $0x0,%eax
  405e68:	80 44 24 38 01       	addb   $0x1,0x38(%rsp)
  405e6d:	84 d2                	test   %dl,%dl
  405e6f:	0f 45 c8             	cmovne %eax,%ecx
  405e72:	48 85 ff             	test   %rdi,%rdi
  405e75:	88 4c 24 08          	mov    %cl,0x8(%rsp)
  405e79:	0f 84 82 0c 00 00    	je     406b01 <__sprintf_chk@plt+0x4601>
  405e7f:	e8 8c c1 ff ff       	callq  402010 <strlen@plt>
  405e84:	49 89 c5             	mov    %rax,%r13
  405e87:	31 c0                	xor    %eax,%eax
  405e89:	85 ed                	test   %ebp,%ebp
  405e8b:	0f 49 c5             	cmovns %ebp,%eax
  405e8e:	48 98                	cltq   
  405e90:	49 39 c5             	cmp    %rax,%r13
  405e93:	48 89 c2             	mov    %rax,%rdx
  405e96:	49 0f 43 d5          	cmovae %r13,%rdx
  405e9a:	48 89 d1             	mov    %rdx,%rcx
  405e9d:	48 89 54 24 40       	mov    %rdx,0x40(%rsp)
  405ea2:	4c 89 fa             	mov    %r15,%rdx
  405ea5:	48 f7 d2             	not    %rdx
  405ea8:	48 39 d1             	cmp    %rdx,%rcx
  405eab:	0f 83 0f f5 ff ff    	jae    4053c0 <__sprintf_chk@plt+0x2ec0>
  405eb1:	48 85 db             	test   %rbx,%rbx
  405eb4:	74 5e                	je     405f14 <__sprintf_chk@plt+0x3a14>
  405eb6:	4c 39 e8             	cmp    %r13,%rax
  405eb9:	76 33                	jbe    405eee <__sprintf_chk@plt+0x39ee>
  405ebb:	48 63 ed             	movslq %ebp,%rbp
  405ebe:	4c 29 ed             	sub    %r13,%rbp
  405ec1:	83 7c 24 10 30       	cmpl   $0x30,0x10(%rsp)
  405ec6:	0f 84 51 0c 00 00    	je     406b1d <__sprintf_chk@plt+0x461d>
  405ecc:	45 31 f6             	xor    %r14d,%r14d
  405ecf:	48 85 ed             	test   %rbp,%rbp
  405ed2:	74 1a                	je     405eee <__sprintf_chk@plt+0x39ee>
  405ed4:	0f 1f 40 00          	nopl   0x0(%rax)
  405ed8:	48 89 de             	mov    %rbx,%rsi
  405edb:	bf 20 00 00 00       	mov    $0x20,%edi
  405ee0:	49 83 c6 01          	add    $0x1,%r14
  405ee4:	e8 77 c2 ff ff       	callq  402160 <fputc@plt>
  405ee9:	49 39 ee             	cmp    %rbp,%r14
  405eec:	75 ea                	jne    405ed8 <__sprintf_chk@plt+0x39d8>
  405eee:	80 7c 24 38 00       	cmpb   $0x0,0x38(%rsp)
  405ef3:	0f 85 00 0a 00 00    	jne    4068f9 <__sprintf_chk@plt+0x43f9>
  405ef9:	80 7c 24 08 00       	cmpb   $0x0,0x8(%rsp)
  405efe:	0f 84 61 09 00 00    	je     406865 <__sprintf_chk@plt+0x4365>
  405f04:	48 8b 74 24 30       	mov    0x30(%rsp),%rsi
  405f09:	4c 89 ea             	mov    %r13,%rdx
  405f0c:	48 89 df             	mov    %rbx,%rdi
  405f0f:	e8 ac f3 ff ff       	callq  4052c0 <__sprintf_chk@plt+0x2dc0>
  405f14:	4c 03 7c 24 40       	add    0x40(%rsp),%r15
  405f19:	4d 89 e5             	mov    %r12,%r13
  405f1c:	e9 88 f4 ff ff       	jmpq   4053a9 <__sprintf_chk@plt+0x2ea9>
  405f21:	83 f9 45             	cmp    $0x45,%ecx
  405f24:	0f 84 16 f6 ff ff    	je     405540 <__sprintf_chk@plt+0x3040>
  405f2a:	48 8b 44 24 18       	mov    0x18(%rsp),%rax
  405f2f:	41 ba 02 00 00 00    	mov    $0x2,%r10d
  405f35:	8b 78 10             	mov    0x10(%rax),%edi
  405f38:	83 ff ff             	cmp    $0xffffffff,%edi
  405f3b:	41 0f 9c c3          	setl   %r11b
  405f3f:	83 c7 01             	add    $0x1,%edi
  405f42:	31 f6                	xor    %esi,%esi
  405f44:	45 31 ed             	xor    %r13d,%r13d
  405f47:	e9 61 f8 ff ff       	jmpq   4057ad <__sprintf_chk@plt+0x32ad>
  405f4c:	83 f9 45             	cmp    $0x45,%ecx
  405f4f:	0f 84 eb f5 ff ff    	je     405540 <__sprintf_chk@plt+0x3040>
  405f55:	4c 8b 5c 24 18       	mov    0x18(%rsp),%r11
  405f5a:	41 b9 93 24 49 92    	mov    $0x92492493,%r9d
  405f60:	41 8b 43 18          	mov    0x18(%r11),%eax
  405f64:	8d 78 06             	lea    0x6(%rax),%edi
  405f67:	89 44 24 38          	mov    %eax,0x38(%rsp)
  405f6b:	89 f8                	mov    %edi,%eax
  405f6d:	41 f7 e9             	imul   %r9d
  405f70:	89 f8                	mov    %edi,%eax
  405f72:	c1 f8 1f             	sar    $0x1f,%eax
  405f75:	01 fa                	add    %edi,%edx
  405f77:	c1 fa 02             	sar    $0x2,%edx
  405f7a:	29 c2                	sub    %eax,%edx
  405f7c:	41 8b 43 1c          	mov    0x1c(%r11),%eax
  405f80:	8d 34 d5 00 00 00 00 	lea    0x0(,%rdx,8),%esi
  405f87:	29 d6                	sub    %edx,%esi
  405f89:	29 fe                	sub    %edi,%esi
  405f8b:	8d 74 06 07          	lea    0x7(%rsi,%rax,1),%esi
  405f8f:	89 f0                	mov    %esi,%eax
  405f91:	41 f7 e9             	imul   %r9d
  405f94:	8d 3c 32             	lea    (%rdx,%rsi,1),%edi
  405f97:	c1 fe 1f             	sar    $0x1f,%esi
  405f9a:	41 ba 02 00 00 00    	mov    $0x2,%r10d
  405fa0:	c1 ff 02             	sar    $0x2,%edi
  405fa3:	29 f7                	sub    %esi,%edi
  405fa5:	e9 f6 f7 ff ff       	jmpq   4057a0 <__sprintf_chk@plt+0x32a0>
  405faa:	48 8b 44 24 18       	mov    0x18(%rsp),%rax
  405faf:	ba 93 24 49 92       	mov    $0x92492493,%edx
  405fb4:	41 ba 01 00 00 00    	mov    $0x1,%r10d
  405fba:	8b 40 18             	mov    0x18(%rax),%eax
  405fbd:	8d 78 06             	lea    0x6(%rax),%edi
  405fc0:	89 44 24 38          	mov    %eax,0x38(%rsp)
  405fc4:	89 f8                	mov    %edi,%eax
  405fc6:	f7 ea                	imul   %edx
  405fc8:	89 f8                	mov    %edi,%eax
  405fca:	c1 f8 1f             	sar    $0x1f,%eax
  405fcd:	01 fa                	add    %edi,%edx
  405fcf:	c1 fa 02             	sar    $0x2,%edx
  405fd2:	29 c2                	sub    %eax,%edx
  405fd4:	8d 04 d5 00 00 00 00 	lea    0x0(,%rdx,8),%eax
  405fdb:	29 d0                	sub    %edx,%eax
  405fdd:	29 c7                	sub    %eax,%edi
  405fdf:	83 c7 01             	add    $0x1,%edi
  405fe2:	e9 b9 f7 ff ff       	jmpq   4057a0 <__sprintf_chk@plt+0x32a0>
  405fe7:	31 c0                	xor    %eax,%eax
  405fe9:	85 ed                	test   %ebp,%ebp
  405feb:	41 bd 01 00 00 00    	mov    $0x1,%r13d
  405ff1:	0f 49 c5             	cmovns %ebp,%eax
  405ff4:	4c 89 fa             	mov    %r15,%rdx
  405ff7:	48 98                	cltq   
  405ff9:	48 f7 d2             	not    %rdx
  405ffc:	48 85 c0             	test   %rax,%rax
  405fff:	4c 0f 45 e8          	cmovne %rax,%r13
  406003:	49 39 d5             	cmp    %rdx,%r13
  406006:	0f 83 b4 f3 ff ff    	jae    4053c0 <__sprintf_chk@plt+0x2ec0>
  40600c:	48 85 db             	test   %rbx,%rbx
  40600f:	74 4a                	je     40605b <__sprintf_chk@plt+0x3b5b>
  406011:	48 83 f8 01          	cmp    $0x1,%rax
  406015:	76 37                	jbe    40604e <__sprintf_chk@plt+0x3b4e>
  406017:	48 63 ed             	movslq %ebp,%rbp
  40601a:	48 83 ed 01          	sub    $0x1,%rbp
  40601e:	83 7c 24 10 30       	cmpl   $0x30,0x10(%rsp)
  406023:	0f 84 7e 0a 00 00    	je     406aa7 <__sprintf_chk@plt+0x45a7>
  406029:	45 31 f6             	xor    %r14d,%r14d
  40602c:	48 85 ed             	test   %rbp,%rbp
  40602f:	74 1d                	je     40604e <__sprintf_chk@plt+0x3b4e>
  406031:	0f 1f 80 00 00 00 00 	nopl   0x0(%rax)
  406038:	48 89 de             	mov    %rbx,%rsi
  40603b:	bf 20 00 00 00       	mov    $0x20,%edi
  406040:	49 83 c6 01          	add    $0x1,%r14
  406044:	e8 17 c1 ff ff       	callq  402160 <fputc@plt>
  406049:	4c 39 f5             	cmp    %r14,%rbp
  40604c:	77 ea                	ja     406038 <__sprintf_chk@plt+0x3b38>
  40604e:	48 89 de             	mov    %rbx,%rsi
  406051:	bf 09 00 00 00       	mov    $0x9,%edi
  406056:	e8 05 c1 ff ff       	callq  402160 <fputc@plt>
  40605b:	4d 01 ef             	add    %r13,%r15
  40605e:	4d 89 e5             	mov    %r12,%r13
  406061:	e9 43 f3 ff ff       	jmpq   4053a9 <__sprintf_chk@plt+0x2ea9>
  406066:	83 f9 45             	cmp    $0x45,%ecx
  406069:	0f 84 d1 f4 ff ff    	je     405540 <__sprintf_chk@plt+0x3040>
  40606f:	48 8b 44 24 18       	mov    0x18(%rsp),%rax
  406074:	41 ba 02 00 00 00    	mov    $0x2,%r10d
  40607a:	8b 78 08             	mov    0x8(%rax),%edi
  40607d:	e9 1e f7 ff ff       	jmpq   4057a0 <__sprintf_chk@plt+0x32a0>
  406082:	83 f9 45             	cmp    $0x45,%ecx
  406085:	0f 84 b5 f4 ff ff    	je     405540 <__sprintf_chk@plt+0x3040>
  40608b:	48 8b 54 24 18       	mov    0x18(%rsp),%rdx
  406090:	44 8b 4a 14          	mov    0x14(%rdx),%r9d
  406094:	44 8b 52 1c          	mov    0x1c(%rdx),%r10d
  406098:	44 8b 6a 18          	mov    0x18(%rdx),%r13d
  40609c:	ba 93 24 49 92       	mov    $0x92492493,%edx
  4060a1:	44 89 c8             	mov    %r9d,%eax
  4060a4:	44 89 d7             	mov    %r10d,%edi
  4060a7:	c1 f8 1f             	sar    $0x1f,%eax
  4060aa:	44 29 ef             	sub    %r13d,%edi
  4060ad:	81 c7 7e 01 00 00    	add    $0x17e,%edi
  4060b3:	25 90 01 00 00       	and    $0x190,%eax
  4060b8:	46 8d 5c 08 9c       	lea    -0x64(%rax,%r9,1),%r11d
  4060bd:	89 f8                	mov    %edi,%eax
  4060bf:	f7 ea                	imul   %edx
  4060c1:	8d 04 3a             	lea    (%rdx,%rdi,1),%eax
  4060c4:	89 fa                	mov    %edi,%edx
  4060c6:	c1 fa 1f             	sar    $0x1f,%edx
  4060c9:	c1 f8 02             	sar    $0x2,%eax
  4060cc:	29 d0                	sub    %edx,%eax
  4060ce:	8d 14 c5 00 00 00 00 	lea    0x0(,%rax,8),%edx
  4060d5:	29 c2                	sub    %eax,%edx
  4060d7:	44 89 d0             	mov    %r10d,%eax
  4060da:	29 f8                	sub    %edi,%eax
  4060dc:	8d 7c 10 03          	lea    0x3(%rax,%rdx,1),%edi
  4060e0:	85 ff                	test   %edi,%edi
  4060e2:	0f 88 02 09 00 00    	js     4069ea <__sprintf_chk@plt+0x44ea>
  4060e8:	41 f6 c3 03          	test   $0x3,%r11b
  4060ec:	b8 93 fe ff ff       	mov    $0xfffffe93,%eax
  4060f1:	75 4e                	jne    406141 <__sprintf_chk@plt+0x3c41>
  4060f3:	41 be 1f 85 eb 51    	mov    $0x51eb851f,%r14d
  4060f9:	44 89 d8             	mov    %r11d,%eax
  4060fc:	41 f7 ee             	imul   %r14d
  4060ff:	44 89 d8             	mov    %r11d,%eax
  406102:	c1 f8 1f             	sar    $0x1f,%eax
  406105:	89 44 24 38          	mov    %eax,0x38(%rsp)
  406109:	41 89 d6             	mov    %edx,%r14d
  40610c:	c1 fa 05             	sar    $0x5,%edx
  40610f:	29 c2                	sub    %eax,%edx
  406111:	b8 64 00 00 00       	mov    $0x64,%eax
  406116:	0f af d0             	imul   %eax,%edx
  406119:	b8 92 fe ff ff       	mov    $0xfffffe92,%eax
  40611e:	41 39 d3             	cmp    %edx,%r11d
  406121:	75 1e                	jne    406141 <__sprintf_chk@plt+0x3c41>
  406123:	41 c1 fe 07          	sar    $0x7,%r14d
  406127:	44 2b 74 24 38       	sub    0x38(%rsp),%r14d
  40612c:	45 69 f6 90 01 00 00 	imul   $0x190,%r14d,%r14d
  406133:	45 29 f3             	sub    %r14d,%r11d
  406136:	41 83 fb 01          	cmp    $0x1,%r11d
  40613a:	19 c0                	sbb    %eax,%eax
  40613c:	2d 6d 01 00 00       	sub    $0x16d,%eax
  406141:	41 01 c2             	add    %eax,%r10d
  406144:	ba 93 24 49 92       	mov    $0x92492493,%edx
  406149:	45 89 d3             	mov    %r10d,%r11d
  40614c:	45 29 eb             	sub    %r13d,%r11d
  40614f:	41 bd 01 00 00 00    	mov    $0x1,%r13d
  406155:	41 81 c3 7e 01 00 00 	add    $0x17e,%r11d
  40615c:	44 89 d8             	mov    %r11d,%eax
  40615f:	45 29 da             	sub    %r11d,%r10d
  406162:	f7 ea                	imul   %edx
  406164:	42 8d 04 1a          	lea    (%rdx,%r11,1),%eax
  406168:	44 89 da             	mov    %r11d,%edx
  40616b:	c1 fa 1f             	sar    $0x1f,%edx
  40616e:	c1 f8 02             	sar    $0x2,%eax
  406171:	29 d0                	sub    %edx,%eax
  406173:	8d 14 c5 00 00 00 00 	lea    0x0(,%rax,8),%edx
  40617a:	29 c2                	sub    %eax,%edx
  40617c:	45 8d 54 12 03       	lea    0x3(%r10,%rdx,1),%r10d
  406181:	45 85 d2             	test   %r10d,%r10d
  406184:	0f 88 88 09 00 00    	js     406b12 <__sprintf_chk@plt+0x4612>
  40618a:	40 80 fe 47          	cmp    $0x47,%sil
  40618e:	0f 84 7a 07 00 00    	je     40690e <__sprintf_chk@plt+0x440e>
  406194:	40 80 fe 67          	cmp    $0x67,%sil
  406198:	0f 85 97 07 00 00    	jne    406935 <__sprintf_chk@plt+0x4435>
  40619e:	bf 1f 85 eb 51       	mov    $0x51eb851f,%edi
  4061a3:	44 89 c8             	mov    %r9d,%eax
  4061a6:	41 ba 64 00 00 00    	mov    $0x64,%r10d
  4061ac:	f7 ef                	imul   %edi
  4061ae:	44 89 c8             	mov    %r9d,%eax
  4061b1:	44 89 ce             	mov    %r9d,%esi
  4061b4:	c1 f8 1f             	sar    $0x1f,%eax
  4061b7:	41 bb 64 00 00 00    	mov    $0x64,%r11d
  4061bd:	c1 fa 05             	sar    $0x5,%edx
  4061c0:	29 c2                	sub    %eax,%edx
  4061c2:	41 0f af d2          	imul   %r10d,%edx
  4061c6:	41 ba 02 00 00 00    	mov    $0x2,%r10d
  4061cc:	29 d6                	sub    %edx,%esi
  4061ce:	44 01 ee             	add    %r13d,%esi
  4061d1:	89 f0                	mov    %esi,%eax
  4061d3:	f7 ef                	imul   %edi
  4061d5:	89 f0                	mov    %esi,%eax
  4061d7:	c1 f8 1f             	sar    $0x1f,%eax
  4061da:	89 d7                	mov    %edx,%edi
  4061dc:	c1 ff 05             	sar    $0x5,%edi
  4061df:	29 c7                	sub    %eax,%edi
  4061e1:	41 0f af fb          	imul   %r11d,%edi
  4061e5:	29 fe                	sub    %edi,%esi
  4061e7:	89 f7                	mov    %esi,%edi
  4061e9:	0f 89 b1 f5 ff ff    	jns    4057a0 <__sprintf_chk@plt+0x32a0>
  4061ef:	b8 94 f8 ff ff       	mov    $0xfffff894,%eax
  4061f4:	89 f2                	mov    %esi,%edx
  4061f6:	83 c7 64             	add    $0x64,%edi
  4061f9:	44 29 e8             	sub    %r13d,%eax
  4061fc:	f7 da                	neg    %edx
  4061fe:	41 39 c1             	cmp    %eax,%r9d
  406201:	0f 4c fa             	cmovl  %edx,%edi
  406204:	e9 97 f5 ff ff       	jmpq   4057a0 <__sprintf_chk@plt+0x32a0>
  406209:	0f 1f 80 00 00 00 00 	nopl   0x0(%rax)
  406210:	48 8b 4c 24 18       	mov    0x18(%rsp),%rcx
  406215:	48 8d 7c 24 70       	lea    0x70(%rsp),%rdi
  40621a:	4c 8d b4 24 d7 00 00 	lea    0xd7(%rsp),%r14
  406221:	00 
  406222:	48 8b 01             	mov    (%rcx),%rax
  406225:	48 89 44 24 70       	mov    %rax,0x70(%rsp)
  40622a:	48 8b 41 08          	mov    0x8(%rcx),%rax
  40622e:	48 89 44 24 78       	mov    %rax,0x78(%rsp)
  406233:	48 8b 41 10          	mov    0x10(%rcx),%rax
  406237:	48 89 84 24 80 00 00 	mov    %rax,0x80(%rsp)
  40623e:	00 
  40623f:	48 8b 41 18          	mov    0x18(%rcx),%rax
  406243:	48 89 84 24 88 00 00 	mov    %rax,0x88(%rsp)
  40624a:	00 
  40624b:	48 8b 41 20          	mov    0x20(%rcx),%rax
  40624f:	48 89 84 24 90 00 00 	mov    %rax,0x90(%rsp)
  406256:	00 
  406257:	48 8b 41 28          	mov    0x28(%rcx),%rax
  40625b:	48 89 84 24 98 00 00 	mov    %rax,0x98(%rsp)
  406262:	00 
  406263:	48 8b 41 30          	mov    0x30(%rcx),%rax
  406267:	48 89 84 24 a0 00 00 	mov    %rax,0xa0(%rsp)
  40626e:	00 
  40626f:	e8 9c c0 ff ff       	callq  402310 <mktime@plt>
  406274:	49 89 c0             	mov    %rax,%r8
  406277:	48 89 c1             	mov    %rax,%rcx
  40627a:	49 ba 67 66 66 66 66 	movabs $0x6666666666666667,%r10
  406281:	66 66 66 
  406284:	49 c1 e8 3f          	shr    $0x3f,%r8
  406288:	bf 30 00 00 00       	mov    $0x30,%edi
  40628d:	44 89 c6             	mov    %r8d,%esi
  406290:	48 89 c8             	mov    %rcx,%rax
  406293:	49 83 ee 01          	sub    $0x1,%r14
  406297:	49 f7 ea             	imul   %r10
  40629a:	48 89 c8             	mov    %rcx,%rax
  40629d:	48 c1 f8 3f          	sar    $0x3f,%rax
  4062a1:	48 c1 fa 02          	sar    $0x2,%rdx
  4062a5:	48 29 c2             	sub    %rax,%rdx
  4062a8:	48 8d 04 92          	lea    (%rdx,%rdx,4),%rax
  4062ac:	48 01 c0             	add    %rax,%rax
  4062af:	48 29 c1             	sub    %rax,%rcx
  4062b2:	89 f8                	mov    %edi,%eax
  4062b4:	49 89 c9             	mov    %rcx,%r9
  4062b7:	48 89 d1             	mov    %rdx,%rcx
  4062ba:	44 29 c8             	sub    %r9d,%eax
  4062bd:	41 83 c1 30          	add    $0x30,%r9d
  4062c1:	40 84 f6             	test   %sil,%sil
  4062c4:	41 0f 44 c1          	cmove  %r9d,%eax
  4062c8:	48 85 d2             	test   %rdx,%rdx
  4062cb:	41 88 06             	mov    %al,(%r14)
  4062ce:	75 c0                	jne    406290 <__sprintf_chk@plt+0x3d90>
  4062d0:	85 ed                	test   %ebp,%ebp
  4062d2:	b8 01 00 00 00       	mov    $0x1,%eax
  4062d7:	0f 4f c5             	cmovg  %ebp,%eax
  4062da:	45 84 c0             	test   %r8b,%r8b
  4062dd:	89 44 24 38          	mov    %eax,0x38(%rsp)
  4062e1:	0f 84 3c f7 ff ff    	je     405a23 <__sprintf_chk@plt+0x3523>
  4062e7:	83 7c 24 10 2d       	cmpl   $0x2d,0x10(%rsp)
  4062ec:	0f 84 e8 01 00 00    	je     4064da <__sprintf_chk@plt+0x3fda>
  4062f2:	b8 01 00 00 00       	mov    $0x1,%eax
  4062f7:	c6 44 24 50 01       	movb   $0x1,0x50(%rsp)
  4062fc:	c6 44 24 40 2d       	movb   $0x2d,0x40(%rsp)
  406301:	e9 3a f7 ff ff       	jmpq   405a40 <__sprintf_chk@plt+0x3540>
  406306:	85 c9                	test   %ecx,%ecx
  406308:	0f 85 32 f2 ff ff    	jne    405540 <__sprintf_chk@plt+0x3040>
  40630e:	48 c7 44 24 38 53 52 	movq   $0x415253,0x38(%rsp)
  406315:	41 00 
  406317:	66 0f 1f 84 00 00 00 	nopw   0x0(%rax,%rax,1)
  40631e:	00 00 
  406320:	0f b6 44 24 08       	movzbl 0x8(%rsp),%eax
  406325:	48 8b 4c 24 18       	mov    0x18(%rsp),%rcx
  40632a:	31 f6                	xor    %esi,%esi
  40632c:	48 8b 54 24 38       	mov    0x38(%rsp),%rdx
  406331:	44 8b 4c 24 24       	mov    0x24(%rsp),%r9d
  406336:	44 8b 44 24 68       	mov    0x68(%rsp),%r8d
  40633b:	89 c7                	mov    %eax,%edi
  40633d:	89 44 24 08          	mov    %eax,0x8(%rsp)
  406341:	e8 ca ef ff ff       	callq  405310 <__sprintf_chk@plt+0x2e10>
  406346:	31 d2                	xor    %edx,%edx
  406348:	85 ed                	test   %ebp,%ebp
  40634a:	4c 89 f9             	mov    %r15,%rcx
  40634d:	0f 49 d5             	cmovns %ebp,%edx
  406350:	48 f7 d1             	not    %rcx
  406353:	48 63 d2             	movslq %edx,%rdx
  406356:	48 39 d0             	cmp    %rdx,%rax
  406359:	49 89 d6             	mov    %rdx,%r14
  40635c:	4c 0f 43 f0          	cmovae %rax,%r14
  406360:	49 39 ce             	cmp    %rcx,%r14
  406363:	0f 83 57 f0 ff ff    	jae    4053c0 <__sprintf_chk@plt+0x2ec0>
  406369:	48 85 db             	test   %rbx,%rbx
  40636c:	74 58                	je     4063c6 <__sprintf_chk@plt+0x3ec6>
  40636e:	48 39 d0             	cmp    %rdx,%rax
  406371:	73 33                	jae    4063a6 <__sprintf_chk@plt+0x3ea6>
  406373:	48 63 ed             	movslq %ebp,%rbp
  406376:	48 29 c5             	sub    %rax,%rbp
  406379:	83 7c 24 10 30       	cmpl   $0x30,0x10(%rsp)
  40637e:	0f 84 a7 04 00 00    	je     40682b <__sprintf_chk@plt+0x432b>
  406384:	45 31 ed             	xor    %r13d,%r13d
  406387:	48 85 ed             	test   %rbp,%rbp
  40638a:	74 1a                	je     4063a6 <__sprintf_chk@plt+0x3ea6>
  40638c:	0f 1f 40 00          	nopl   0x0(%rax)
  406390:	48 89 de             	mov    %rbx,%rsi
  406393:	bf 20 00 00 00       	mov    $0x20,%edi
  406398:	49 83 c5 01          	add    $0x1,%r13
  40639c:	e8 bf bd ff ff       	callq  402160 <fputc@plt>
  4063a1:	49 39 ed             	cmp    %rbp,%r13
  4063a4:	75 ea                	jne    406390 <__sprintf_chk@plt+0x3e90>
  4063a6:	44 8b 4c 24 24       	mov    0x24(%rsp),%r9d
  4063ab:	44 8b 44 24 68       	mov    0x68(%rsp),%r8d
  4063b0:	48 89 de             	mov    %rbx,%rsi
  4063b3:	48 8b 4c 24 18       	mov    0x18(%rsp),%rcx
  4063b8:	48 8b 54 24 38       	mov    0x38(%rsp),%rdx
  4063bd:	8b 7c 24 08          	mov    0x8(%rsp),%edi
  4063c1:	e8 4a ef ff ff       	callq  405310 <__sprintf_chk@plt+0x2e10>
  4063c6:	4d 01 f7             	add    %r14,%r15
  4063c9:	4d 89 e5             	mov    %r12,%r13
  4063cc:	e9 d8 ef ff ff       	jmpq   4053a9 <__sprintf_chk@plt+0x2ea9>
  4063d1:	83 f9 45             	cmp    $0x45,%ecx
  4063d4:	0f 84 66 f1 ff ff    	je     405540 <__sprintf_chk@plt+0x3040>
  4063da:	8b 7c 24 0c          	mov    0xc(%rsp),%edi
  4063de:	41 ba 02 00 00 00    	mov    $0x2,%r10d
  4063e4:	e9 b7 f3 ff ff       	jmpq   4057a0 <__sprintf_chk@plt+0x32a0>
  4063e9:	48 c7 44 24 38 5c 52 	movq   $0x41525c,0x38(%rsp)
  4063f0:	41 00 
  4063f2:	e9 29 ff ff ff       	jmpq   406320 <__sprintf_chk@plt+0x3e20>
  4063f7:	83 f9 45             	cmp    $0x45,%ecx
  4063fa:	0f 84 40 f1 ff ff    	je     405540 <__sprintf_chk@plt+0x3040>
  406400:	48 8b 44 24 18       	mov    0x18(%rsp),%rax
  406405:	41 ba 02 00 00 00    	mov    $0x2,%r10d
  40640b:	8b 38                	mov    (%rax),%edi
  40640d:	e9 8e f3 ff ff       	jmpq   4057a0 <__sprintf_chk@plt+0x32a0>
  406412:	48 c7 44 24 38 36 32 	movq   $0x413236,0x38(%rsp)
  406419:	41 00 
  40641b:	e9 00 ff ff ff       	jmpq   406320 <__sprintf_chk@plt+0x3e20>
  406420:	85 c9                	test   %ecx,%ecx
  406422:	0f 85 18 f1 ff ff    	jne    405540 <__sprintf_chk@plt+0x3040>
  406428:	48 c7 44 24 38 3c 32 	movq   $0x41323c,0x38(%rsp)
  40642f:	41 00 
  406431:	e9 ea fe ff ff       	jmpq   406320 <__sprintf_chk@plt+0x3e20>
  406436:	83 f9 45             	cmp    $0x45,%ecx
  406439:	0f 84 01 f1 ff ff    	je     405540 <__sprintf_chk@plt+0x3040>
  40643f:	48 8b 44 24 18       	mov    0x18(%rsp),%rax
  406444:	ba 93 24 49 92       	mov    $0x92492493,%edx
  406449:	8b 70 1c             	mov    0x1c(%rax),%esi
  40644c:	2b 70 18             	sub    0x18(%rax),%esi
  40644f:	83 c6 07             	add    $0x7,%esi
  406452:	89 f0                	mov    %esi,%eax
  406454:	f7 ea                	imul   %edx
  406456:	e9 39 fb ff ff       	jmpq   405f94 <__sprintf_chk@plt+0x3a94>
  40645b:	c6 44 24 40 00       	movb   $0x0,0x40(%rsp)
  406460:	e9 b1 f8 ff ff       	jmpq   405d16 <__sprintf_chk@plt+0x3816>
  406465:	48 85 ed             	test   %rbp,%rbp
  406468:	0f 84 35 f2 ff ff    	je     4056a3 <__sprintf_chk@plt+0x31a3>
  40646e:	31 d2                	xor    %edx,%edx
  406470:	49 89 d6             	mov    %rdx,%r14
  406473:	0f 1f 44 00 00       	nopl   0x0(%rax,%rax,1)
  406478:	48 89 de             	mov    %rbx,%rsi
  40647b:	bf 30 00 00 00       	mov    $0x30,%edi
  406480:	49 83 c6 01          	add    $0x1,%r14
  406484:	e8 d7 bc ff ff       	callq  402160 <fputc@plt>
  406489:	49 39 ee             	cmp    %rbp,%r14
  40648c:	75 ea                	jne    406478 <__sprintf_chk@plt+0x3f78>
  40648e:	e9 10 f2 ff ff       	jmpq   4056a3 <__sprintf_chk@plt+0x31a3>
  406493:	4d 89 e5             	mov    %r12,%r13
  406496:	e9 64 f4 ff ff       	jmpq   4058ff <__sprintf_chk@plt+0x33ff>
  40649b:	0f 1f 44 00 00       	nopl   0x0(%rax,%rax,1)
  4064a0:	c6 44 24 40 2d       	movb   $0x2d,0x40(%rsp)
  4064a5:	83 7c 24 10 2d       	cmpl   $0x2d,0x10(%rsp)
  4064aa:	74 33                	je     4064df <__sprintf_chk@plt+0x3fdf>
  4064ac:	b8 01 00 00 00       	mov    $0x1,%eax
  4064b1:	c6 44 24 50 01       	movb   $0x1,0x50(%rsp)
  4064b6:	e9 85 f5 ff ff       	jmpq   405a40 <__sprintf_chk@plt+0x3540>
  4064bb:	0f 1f 44 00 00       	nopl   0x0(%rax,%rax,1)
  4064c0:	48 8b 74 24 40       	mov    0x40(%rsp),%rsi
  4064c5:	48 89 d9             	mov    %rbx,%rcx
  4064c8:	ba 01 00 00 00       	mov    $0x1,%edx
  4064cd:	4c 89 f7             	mov    %r14,%rdi
  4064d0:	e8 8b bf ff ff       	callq  402460 <fwrite@plt>
  4064d5:	e9 07 f7 ff ff       	jmpq   405be1 <__sprintf_chk@plt+0x36e1>
  4064da:	c6 44 24 40 2d       	movb   $0x2d,0x40(%rsp)
  4064df:	31 c0                	xor    %eax,%eax
  4064e1:	85 ed                	test   %ebp,%ebp
  4064e3:	0f 49 c5             	cmovns %ebp,%eax
  4064e6:	48 98                	cltq   
  4064e8:	48 89 c2             	mov    %rax,%rdx
  4064eb:	48 89 44 24 10       	mov    %rax,0x10(%rsp)
  4064f0:	b8 01 00 00 00       	mov    $0x1,%eax
  4064f5:	48 85 d2             	test   %rdx,%rdx
  4064f8:	48 0f 45 c2          	cmovne %rdx,%rax
  4064fc:	48 89 c1             	mov    %rax,%rcx
  4064ff:	48 89 44 24 48       	mov    %rax,0x48(%rsp)
  406504:	4c 89 f8             	mov    %r15,%rax
  406507:	48 f7 d0             	not    %rax
  40650a:	48 39 c1             	cmp    %rax,%rcx
  40650d:	0f 83 ad ee ff ff    	jae    4053c0 <__sprintf_chk@plt+0x2ec0>
  406513:	48 85 db             	test   %rbx,%rbx
  406516:	74 5d                	je     406575 <__sprintf_chk@plt+0x4075>
  406518:	48 83 fa 01          	cmp    $0x1,%rdx
  40651c:	76 4a                	jbe    406568 <__sprintf_chk@plt+0x4068>
  40651e:	8b 54 24 38          	mov    0x38(%rsp),%edx
  406522:	85 d2                	test   %edx,%edx
  406524:	75 42                	jne    406568 <__sprintf_chk@plt+0x4068>
  406526:	48 63 c5             	movslq %ebp,%rax
  406529:	48 83 e8 01          	sub    $0x1,%rax
  40652d:	74 39                	je     406568 <__sprintf_chk@plt+0x4068>
  40652f:	45 31 ed             	xor    %r13d,%r13d
  406532:	89 6c 24 50          	mov    %ebp,0x50(%rsp)
  406536:	48 89 dd             	mov    %rbx,%rbp
  406539:	48 89 c3             	mov    %rax,%rbx
  40653c:	4c 89 e0             	mov    %r12,%rax
  40653f:	4d 89 ec             	mov    %r13,%r12
  406542:	49 89 c5             	mov    %rax,%r13
  406545:	0f 1f 00             	nopl   (%rax)
  406548:	48 89 ee             	mov    %rbp,%rsi
  40654b:	bf 20 00 00 00       	mov    $0x20,%edi
  406550:	49 83 c4 01          	add    $0x1,%r12
  406554:	e8 07 bc ff ff       	callq  402160 <fputc@plt>
  406559:	4c 39 e3             	cmp    %r12,%rbx
  40655c:	77 ea                	ja     406548 <__sprintf_chk@plt+0x4048>
  40655e:	48 89 eb             	mov    %rbp,%rbx
  406561:	8b 6c 24 50          	mov    0x50(%rsp),%ebp
  406565:	4d 89 ec             	mov    %r13,%r12
  406568:	0f be 7c 24 40       	movsbl 0x40(%rsp),%edi
  40656d:	48 89 de             	mov    %rbx,%rsi
  406570:	e8 eb bb ff ff       	callq  402160 <fputc@plt>
  406575:	48 8d 84 24 d7 00 00 	lea    0xd7(%rsp),%rax
  40657c:	00 
  40657d:	4c 03 7c 24 48       	add    0x48(%rsp),%r15
  406582:	48 8b 54 24 10       	mov    0x10(%rsp),%rdx
  406587:	4d 89 e5             	mov    %r12,%r13
  40658a:	c7 44 24 10 2d 00 00 	movl   $0x2d,0x10(%rsp)
  406591:	00 
  406592:	48 89 44 24 48       	mov    %rax,0x48(%rsp)
  406597:	e9 b4 f5 ff ff       	jmpq   405b50 <__sprintf_chk@plt+0x3650>
  40659c:	c6 44 24 40 2b       	movb   $0x2b,0x40(%rsp)
  4065a1:	e9 ff fe ff ff       	jmpq   4064a5 <__sprintf_chk@plt+0x3fa5>
  4065a6:	48 8b 74 24 28       	mov    0x28(%rsp),%rsi
  4065ab:	4c 89 e2             	mov    %r12,%rdx
  4065ae:	48 89 df             	mov    %rbx,%rdi
  4065b1:	e8 ba ec ff ff       	callq  405270 <__sprintf_chk@plt+0x2d70>
  4065b6:	e9 2e f0 ff ff       	jmpq   4055e9 <__sprintf_chk@plt+0x30e9>
  4065bb:	80 7c 24 50 00       	cmpb   $0x0,0x50(%rsp)
  4065c0:	0f 84 2a 02 00 00    	je     4067f0 <__sprintf_chk@plt+0x42f0>
  4065c6:	31 c0                	xor    %eax,%eax
  4065c8:	85 ed                	test   %ebp,%ebp
  4065ca:	0f 49 c5             	cmovns %ebp,%eax
  4065cd:	48 98                	cltq   
  4065cf:	48 89 c1             	mov    %rax,%rcx
  4065d2:	48 89 44 24 58       	mov    %rax,0x58(%rsp)
  4065d7:	b8 01 00 00 00       	mov    $0x1,%eax
  4065dc:	48 85 c9             	test   %rcx,%rcx
  4065df:	48 0f 45 c1          	cmovne %rcx,%rax
  4065e3:	48 89 c2             	mov    %rax,%rdx
  4065e6:	48 89 44 24 60       	mov    %rax,0x60(%rsp)
  4065eb:	4c 89 f8             	mov    %r15,%rax
  4065ee:	48 f7 d0             	not    %rax
  4065f1:	48 39 c2             	cmp    %rax,%rdx
  4065f4:	0f 83 c6 ed ff ff    	jae    4053c0 <__sprintf_chk@plt+0x2ec0>
  4065fa:	48 85 db             	test   %rbx,%rbx
  4065fd:	74 76                	je     406675 <__sprintf_chk@plt+0x4175>
  4065ff:	48 83 f9 01          	cmp    $0x1,%rcx
  406603:	76 63                	jbe    406668 <__sprintf_chk@plt+0x4168>
  406605:	8b 44 24 38          	mov    0x38(%rsp),%eax
  406609:	85 c0                	test   %eax,%eax
  40660b:	75 5b                	jne    406668 <__sprintf_chk@plt+0x4168>
  40660d:	83 7c 24 10 30       	cmpl   $0x30,0x10(%rsp)
  406612:	4c 63 ed             	movslq %ebp,%r13
  406615:	49 8d 45 ff          	lea    -0x1(%r13),%rax
  406619:	48 89 44 24 50       	mov    %rax,0x50(%rsp)
  40661e:	0f 84 22 05 00 00    	je     406b46 <__sprintf_chk@plt+0x4646>
  406624:	45 31 ed             	xor    %r13d,%r13d
  406627:	48 85 c0             	test   %rax,%rax
  40662a:	74 3c                	je     406668 <__sprintf_chk@plt+0x4168>
  40662c:	89 6c 24 6c          	mov    %ebp,0x6c(%rsp)
  406630:	48 89 dd             	mov    %rbx,%rbp
  406633:	48 8b 5c 24 50       	mov    0x50(%rsp),%rbx
  406638:	4c 89 e0             	mov    %r12,%rax
  40663b:	4d 89 ec             	mov    %r13,%r12
  40663e:	49 89 c5             	mov    %rax,%r13
  406641:	0f 1f 80 00 00 00 00 	nopl   0x0(%rax)
  406648:	48 89 ee             	mov    %rbp,%rsi
  40664b:	bf 20 00 00 00       	mov    $0x20,%edi
  406650:	49 83 c4 01          	add    $0x1,%r12
  406654:	e8 07 bb ff ff       	callq  402160 <fputc@plt>
  406659:	4c 39 e3             	cmp    %r12,%rbx
  40665c:	77 ea                	ja     406648 <__sprintf_chk@plt+0x4148>
  40665e:	48 89 eb             	mov    %rbp,%rbx
  406661:	8b 6c 24 6c          	mov    0x6c(%rsp),%ebp
  406665:	4d 89 ec             	mov    %r13,%r12
  406668:	0f be 7c 24 40       	movsbl 0x40(%rsp),%edi
  40666d:	48 89 de             	mov    %rbx,%rsi
  406670:	e8 eb ba ff ff       	callq  402160 <fputc@plt>
  406675:	4c 03 7c 24 60       	add    0x60(%rsp),%r15
  40667a:	48 8b 54 24 58       	mov    0x58(%rsp),%rdx
  40667f:	4d 89 e5             	mov    %r12,%r13
  406682:	e9 c9 f4 ff ff       	jmpq   405b50 <__sprintf_chk@plt+0x3650>
  406687:	48 85 ed             	test   %rbp,%rbp
  40668a:	0f 84 3e ef ff ff    	je     4055ce <__sprintf_chk@plt+0x30ce>
  406690:	31 d2                	xor    %edx,%edx
  406692:	49 89 d4             	mov    %rdx,%r12
  406695:	0f 1f 00             	nopl   (%rax)
  406698:	48 89 de             	mov    %rbx,%rsi
  40669b:	bf 30 00 00 00       	mov    $0x30,%edi
  4066a0:	49 83 c4 01          	add    $0x1,%r12
  4066a4:	e8 b7 ba ff ff       	callq  402160 <fputc@plt>
  4066a9:	49 39 ec             	cmp    %rbp,%r12
  4066ac:	75 ea                	jne    406698 <__sprintf_chk@plt+0x4198>
  4066ae:	e9 1b ef ff ff       	jmpq   4055ce <__sprintf_chk@plt+0x30ce>
  4066b3:	48 98                	cltq   
  4066b5:	48 89 c2             	mov    %rax,%rdx
  4066b8:	48 89 44 24 60       	mov    %rax,0x60(%rsp)
  4066bd:	4c 89 f8             	mov    %r15,%rax
  4066c0:	48 f7 d0             	not    %rax
  4066c3:	48 39 c2             	cmp    %rax,%rdx
  4066c6:	0f 83 f4 ec ff ff    	jae    4053c0 <__sprintf_chk@plt+0x2ec0>
  4066cc:	45 31 ed             	xor    %r13d,%r13d
  4066cf:	48 85 db             	test   %rbx,%rbx
  4066d2:	74 26                	je     4066fa <__sprintf_chk@plt+0x41fa>
  4066d4:	89 6c 24 6c          	mov    %ebp,0x6c(%rsp)
  4066d8:	4c 89 ed             	mov    %r13,%rbp
  4066db:	4c 8b 6c 24 60       	mov    0x60(%rsp),%r13
  4066e0:	48 89 de             	mov    %rbx,%rsi
  4066e3:	bf 20 00 00 00       	mov    $0x20,%edi
  4066e8:	48 83 c5 01          	add    $0x1,%rbp
  4066ec:	e8 6f ba ff ff       	callq  402160 <fputc@plt>
  4066f1:	49 39 ed             	cmp    %rbp,%r13
  4066f4:	77 ea                	ja     4066e0 <__sprintf_chk@plt+0x41e0>
  4066f6:	8b 6c 24 6c          	mov    0x6c(%rsp),%ebp
  4066fa:	4c 03 7c 24 60       	add    0x60(%rsp),%r15
  4066ff:	3b 6c 24 58          	cmp    0x58(%rsp),%ebp
  406703:	0f 8f 01 01 00 00    	jg     40680a <__sprintf_chk@plt+0x430a>
  406709:	31 d2                	xor    %edx,%edx
  40670b:	31 ed                	xor    %ebp,%ebp
  40670d:	80 7c 24 50 00       	cmpb   $0x0,0x50(%rsp)
  406712:	0f 84 ea 00 00 00    	je     406802 <__sprintf_chk@plt+0x4302>
  406718:	48 85 d2             	test   %rdx,%rdx
  40671b:	b8 01 00 00 00       	mov    $0x1,%eax
  406720:	48 0f 45 c2          	cmovne %rdx,%rax
  406724:	48 89 c1             	mov    %rax,%rcx
  406727:	48 89 44 24 50       	mov    %rax,0x50(%rsp)
  40672c:	4c 89 f8             	mov    %r15,%rax
  40672f:	48 f7 d0             	not    %rax
  406732:	48 39 c1             	cmp    %rax,%rcx
  406735:	0f 83 85 ec ff ff    	jae    4053c0 <__sprintf_chk@plt+0x2ec0>
  40673b:	48 85 db             	test   %rbx,%rbx
  40673e:	74 68                	je     4067a8 <__sprintf_chk@plt+0x42a8>
  406740:	48 83 fa 01          	cmp    $0x1,%rdx
  406744:	76 4b                	jbe    406791 <__sprintf_chk@plt+0x4291>
  406746:	8b 44 24 38          	mov    0x38(%rsp),%eax
  40674a:	85 c0                	test   %eax,%eax
  40674c:	75 43                	jne    406791 <__sprintf_chk@plt+0x4291>
  40674e:	48 63 c5             	movslq %ebp,%rax
  406751:	48 83 e8 01          	sub    $0x1,%rax
  406755:	74 3a                	je     406791 <__sprintf_chk@plt+0x4291>
  406757:	45 31 ed             	xor    %r13d,%r13d
  40675a:	89 6c 24 58          	mov    %ebp,0x58(%rsp)
  40675e:	48 89 c5             	mov    %rax,%rbp
  406761:	4c 89 e0             	mov    %r12,%rax
  406764:	48 89 54 24 60       	mov    %rdx,0x60(%rsp)
  406769:	4d 89 ec             	mov    %r13,%r12
  40676c:	49 89 c5             	mov    %rax,%r13
  40676f:	48 89 de             	mov    %rbx,%rsi
  406772:	bf 20 00 00 00       	mov    $0x20,%edi
  406777:	49 83 c4 01          	add    $0x1,%r12
  40677b:	e8 e0 b9 ff ff       	callq  402160 <fputc@plt>
  406780:	4c 39 e5             	cmp    %r12,%rbp
  406783:	77 ea                	ja     40676f <__sprintf_chk@plt+0x426f>
  406785:	8b 6c 24 58          	mov    0x58(%rsp),%ebp
  406789:	48 8b 54 24 60       	mov    0x60(%rsp),%rdx
  40678e:	4d 89 ec             	mov    %r13,%r12
  406791:	0f be 7c 24 40       	movsbl 0x40(%rsp),%edi
  406796:	48 89 de             	mov    %rbx,%rsi
  406799:	48 89 54 24 58       	mov    %rdx,0x58(%rsp)
  40679e:	e8 bd b9 ff ff       	callq  402160 <fputc@plt>
  4067a3:	48 8b 54 24 58       	mov    0x58(%rsp),%rdx
  4067a8:	4c 03 7c 24 50       	add    0x50(%rsp),%r15
  4067ad:	4d 89 e5             	mov    %r12,%r13
  4067b0:	e9 9b f3 ff ff       	jmpq   405b50 <__sprintf_chk@plt+0x3650>
  4067b5:	48 85 ed             	test   %rbp,%rbp
  4067b8:	0f 84 08 f4 ff ff    	je     405bc6 <__sprintf_chk@plt+0x36c6>
  4067be:	45 31 e4             	xor    %r12d,%r12d
  4067c1:	0f 1f 80 00 00 00 00 	nopl   0x0(%rax)
  4067c8:	48 89 de             	mov    %rbx,%rsi
  4067cb:	bf 30 00 00 00       	mov    $0x30,%edi
  4067d0:	49 83 c4 01          	add    $0x1,%r12
  4067d4:	e8 87 b9 ff ff       	callq  402160 <fputc@plt>
  4067d9:	49 39 ec             	cmp    %rbp,%r12
  4067dc:	75 ea                	jne    4067c8 <__sprintf_chk@plt+0x42c8>
  4067de:	e9 e3 f3 ff ff       	jmpq   405bc6 <__sprintf_chk@plt+0x36c6>
  4067e3:	48 8d 84 24 d7 00 00 	lea    0xd7(%rsp),%rax
  4067ea:	00 
  4067eb:	48 89 44 24 48       	mov    %rax,0x48(%rsp)
  4067f0:	31 d2                	xor    %edx,%edx
  4067f2:	85 ed                	test   %ebp,%ebp
  4067f4:	4d 89 e5             	mov    %r12,%r13
  4067f7:	0f 49 d5             	cmovns %ebp,%edx
  4067fa:	48 63 d2             	movslq %edx,%rdx
  4067fd:	e9 4e f3 ff ff       	jmpq   405b50 <__sprintf_chk@plt+0x3650>
  406802:	4d 89 e5             	mov    %r12,%r13
  406805:	e9 46 f3 ff ff       	jmpq   405b50 <__sprintf_chk@plt+0x3650>
  40680a:	31 d2                	xor    %edx,%edx
  40680c:	2b 6c 24 58          	sub    0x58(%rsp),%ebp
  406810:	0f 49 d5             	cmovns %ebp,%edx
  406813:	48 63 d2             	movslq %edx,%rdx
  406816:	e9 f2 fe ff ff       	jmpq   40670d <__sprintf_chk@plt+0x420d>
  40681b:	45 31 d2             	xor    %r10d,%r10d
  40681e:	e9 9c ef ff ff       	jmpq   4057bf <__sprintf_chk@plt+0x32bf>
  406823:	4d 89 e5             	mov    %r12,%r13
  406826:	e9 de f0 ff ff       	jmpq   405909 <__sprintf_chk@plt+0x3409>
  40682b:	48 85 ed             	test   %rbp,%rbp
  40682e:	66 90                	xchg   %ax,%ax
  406830:	0f 84 70 fb ff ff    	je     4063a6 <__sprintf_chk@plt+0x3ea6>
  406836:	45 31 ed             	xor    %r13d,%r13d
  406839:	0f 1f 80 00 00 00 00 	nopl   0x0(%rax)
  406840:	48 89 de             	mov    %rbx,%rsi
  406843:	bf 30 00 00 00       	mov    $0x30,%edi
  406848:	49 83 c5 01          	add    $0x1,%r13
  40684c:	e8 0f b9 ff ff       	callq  402160 <fputc@plt>
  406851:	49 39 ed             	cmp    %rbp,%r13
  406854:	75 ea                	jne    406840 <__sprintf_chk@plt+0x4340>
  406856:	e9 4b fb ff ff       	jmpq   4063a6 <__sprintf_chk@plt+0x3ea6>
  40685b:	4d 89 e5             	mov    %r12,%r13
  40685e:	66 90                	xchg   %ax,%ax
  406860:	e9 44 eb ff ff       	jmpq   4053a9 <__sprintf_chk@plt+0x2ea9>
  406865:	48 8b 7c 24 30       	mov    0x30(%rsp),%rdi
  40686a:	48 89 d9             	mov    %rbx,%rcx
  40686d:	ba 01 00 00 00       	mov    $0x1,%edx
  406872:	4c 89 ee             	mov    %r13,%rsi
  406875:	e8 e6 bb ff ff       	callq  402460 <fwrite@plt>
  40687a:	e9 95 f6 ff ff       	jmpq   405f14 <__sprintf_chk@plt+0x3a14>
  40687f:	49 8d 74 24 02       	lea    0x2(%r12),%rsi
  406884:	41 bd 01 00 00 00    	mov    $0x1,%r13d
  40688a:	48 89 f2             	mov    %rsi,%rdx
  40688d:	48 83 c6 01          	add    $0x1,%rsi
  406891:	0f b6 46 ff          	movzbl -0x1(%rsi),%eax
  406895:	49 83 c5 01          	add    $0x1,%r13
  406899:	3c 3a                	cmp    $0x3a,%al
  40689b:	0f 85 b8 f3 ff ff    	jne    405c59 <__sprintf_chk@plt+0x3759>
  4068a1:	eb e7                	jmp    40688a <__sprintf_chk@plt+0x438a>
  4068a3:	be 64 00 00 00       	mov    $0x64,%esi
  4068a8:	41 c1 eb 1f          	shr    $0x1f,%r11d
  4068ac:	41 bd 01 00 00 00    	mov    $0x1,%r13d
  4068b2:	0f af c6             	imul   %esi,%eax
  4068b5:	41 ba 09 00 00 00    	mov    $0x9,%r10d
  4068bb:	be 14 00 00 00       	mov    $0x14,%esi
  4068c0:	41 69 f9 10 27 00 00 	imul   $0x2710,%r9d,%edi
  4068c7:	01 c7                	add    %eax,%edi
  4068c9:	01 d7                	add    %edx,%edi
  4068cb:	e9 dd ee ff ff       	jmpq   4057ad <__sprintf_chk@plt+0x32ad>
  4068d0:	44 89 cf             	mov    %r9d,%edi
  4068d3:	41 b9 64 00 00 00    	mov    $0x64,%r9d
  4068d9:	41 c1 eb 1f          	shr    $0x1f,%r11d
  4068dd:	41 0f af f9          	imul   %r9d,%edi
  4068e1:	be 04 00 00 00       	mov    $0x4,%esi
  4068e6:	41 bd 01 00 00 00    	mov    $0x1,%r13d
  4068ec:	41 ba 06 00 00 00    	mov    $0x6,%r10d
  4068f2:	01 c7                	add    %eax,%edi
  4068f4:	e9 b4 ee ff ff       	jmpq   4057ad <__sprintf_chk@plt+0x32ad>
  4068f9:	48 8b 74 24 30       	mov    0x30(%rsp),%rsi
  4068fe:	4c 89 ea             	mov    %r13,%rdx
  406901:	48 89 df             	mov    %rbx,%rdi
  406904:	e8 67 e9 ff ff       	callq  405270 <__sprintf_chk@plt+0x2d70>
  406909:	e9 06 f6 ff ff       	jmpq   405f14 <__sprintf_chk@plt+0x3a14>
  40690e:	b8 94 f8 ff ff       	mov    $0xfffff894,%eax
  406913:	43 8d bc 0d 6c 07 00 	lea    0x76c(%r13,%r9,1),%edi
  40691a:	00 
  40691b:	41 ba 04 00 00 00    	mov    $0x4,%r10d
  406921:	44 29 e8             	sub    %r13d,%eax
  406924:	41 39 c1             	cmp    %eax,%r9d
  406927:	41 0f 9c c3          	setl   %r11b
  40692b:	31 f6                	xor    %esi,%esi
  40692d:	45 31 ed             	xor    %r13d,%r13d
  406930:	e9 78 ee ff ff       	jmpq   4057ad <__sprintf_chk@plt+0x32ad>
  406935:	44 89 d0             	mov    %r10d,%eax
  406938:	ba 93 24 49 92       	mov    $0x92492493,%edx
  40693d:	f7 ea                	imul   %edx
  40693f:	42 8d 3c 12          	lea    (%rdx,%r10,1),%edi
  406943:	41 c1 fa 1f          	sar    $0x1f,%r10d
  406947:	c1 ff 02             	sar    $0x2,%edi
  40694a:	44 29 d7             	sub    %r10d,%edi
  40694d:	41 ba 02 00 00 00    	mov    $0x2,%r10d
  406953:	83 c7 01             	add    $0x1,%edi
  406956:	e9 45 ee ff ff       	jmpq   4057a0 <__sprintf_chk@plt+0x32a0>
  40695b:	8b 7c 24 24          	mov    0x24(%rsp),%edi
  40695f:	bd 09 00 00 00       	mov    $0x9,%ebp
  406964:	41 ba 09 00 00 00    	mov    $0x9,%r10d
  40696a:	e9 31 ee ff ff       	jmpq   4057a0 <__sprintf_chk@plt+0x32a0>
  40696f:	c6 84 24 b0 00 00 00 	movb   $0x20,0xb0(%rsp)
  406976:	20 
  406977:	c6 84 24 b1 00 00 00 	movb   $0x25,0xb1(%rsp)
  40697e:	25 
  40697f:	45 31 d2             	xor    %r10d,%r10d
  406982:	c6 44 24 40 00       	movb   $0x0,0x40(%rsp)
  406987:	e9 48 ee ff ff       	jmpq   4057d4 <__sprintf_chk@plt+0x32d4>
  40698c:	85 d2                	test   %edx,%edx
  40698e:	0f 85 0f ff ff ff    	jne    4068a3 <__sprintf_chk@plt+0x43a3>
  406994:	85 c0                	test   %eax,%eax
  406996:	0f 85 34 ff ff ff    	jne    4068d0 <__sprintf_chk@plt+0x43d0>
  40699c:	41 c1 eb 1f          	shr    $0x1f,%r11d
  4069a0:	44 89 cf             	mov    %r9d,%edi
  4069a3:	31 f6                	xor    %esi,%esi
  4069a5:	41 bd 01 00 00 00    	mov    $0x1,%r13d
  4069ab:	41 ba 03 00 00 00    	mov    $0x3,%r10d
  4069b1:	e9 f7 ed ff ff       	jmpq   4057ad <__sprintf_chk@plt+0x32ad>
  4069b6:	48 85 c0             	test   %rax,%rax
  4069b9:	0f 84 4f f1 ff ff    	je     405b0e <__sprintf_chk@plt+0x360e>
  4069bf:	31 ed                	xor    %ebp,%ebp
  4069c1:	4c 89 64 24 50       	mov    %r12,0x50(%rsp)
  4069c6:	49 89 ec             	mov    %rbp,%r12
  4069c9:	48 89 dd             	mov    %rbx,%rbp
  4069cc:	48 89 c3             	mov    %rax,%rbx
  4069cf:	48 89 ee             	mov    %rbp,%rsi
  4069d2:	bf 30 00 00 00       	mov    $0x30,%edi
  4069d7:	49 83 c4 01          	add    $0x1,%r12
  4069db:	e8 80 b7 ff ff       	callq  402160 <fputc@plt>
  4069e0:	4c 39 e3             	cmp    %r12,%rbx
  4069e3:	77 ea                	ja     4069cf <__sprintf_chk@plt+0x44cf>
  4069e5:	e9 1c f1 ff ff       	jmpq   405b06 <__sprintf_chk@plt+0x3606>
  4069ea:	41 83 eb 01          	sub    $0x1,%r11d
  4069ee:	b8 6d 01 00 00       	mov    $0x16d,%eax
  4069f3:	41 f6 c3 03          	test   $0x3,%r11b
  4069f7:	75 47                	jne    406a40 <__sprintf_chk@plt+0x4540>
  4069f9:	bf 1f 85 eb 51       	mov    $0x51eb851f,%edi
  4069fe:	44 89 d8             	mov    %r11d,%eax
  406a01:	45 89 de             	mov    %r11d,%r14d
  406a04:	f7 ef                	imul   %edi
  406a06:	41 c1 fe 1f          	sar    $0x1f,%r14d
  406a0a:	b8 64 00 00 00       	mov    $0x64,%eax
  406a0f:	89 d7                	mov    %edx,%edi
  406a11:	c1 fa 05             	sar    $0x5,%edx
  406a14:	44 29 f2             	sub    %r14d,%edx
  406a17:	0f af d0             	imul   %eax,%edx
  406a1a:	b8 6e 01 00 00       	mov    $0x16e,%eax
  406a1f:	41 39 d3             	cmp    %edx,%r11d
  406a22:	75 1c                	jne    406a40 <__sprintf_chk@plt+0x4540>
  406a24:	c1 ff 07             	sar    $0x7,%edi
  406a27:	44 29 f7             	sub    %r14d,%edi
  406a2a:	69 ff 90 01 00 00    	imul   $0x190,%edi,%edi
  406a30:	41 29 fb             	sub    %edi,%r11d
  406a33:	41 83 fb 01          	cmp    $0x1,%r11d
  406a37:	19 c0                	sbb    %eax,%eax
  406a39:	f7 d0                	not    %eax
  406a3b:	05 6e 01 00 00       	add    $0x16e,%eax
  406a40:	41 01 c2             	add    %eax,%r10d
  406a43:	ba 93 24 49 92       	mov    $0x92492493,%edx
  406a48:	44 89 d7             	mov    %r10d,%edi
  406a4b:	44 29 ef             	sub    %r13d,%edi
  406a4e:	41 bd ff ff ff ff    	mov    $0xffffffff,%r13d
  406a54:	81 c7 7e 01 00 00    	add    $0x17e,%edi
  406a5a:	89 f8                	mov    %edi,%eax
  406a5c:	41 29 fa             	sub    %edi,%r10d
  406a5f:	f7 ea                	imul   %edx
  406a61:	8d 04 3a             	lea    (%rdx,%rdi,1),%eax
  406a64:	89 fa                	mov    %edi,%edx
  406a66:	c1 fa 1f             	sar    $0x1f,%edx
  406a69:	c1 f8 02             	sar    $0x2,%eax
  406a6c:	29 d0                	sub    %edx,%eax
  406a6e:	8d 14 c5 00 00 00 00 	lea    0x0(,%rax,8),%edx
  406a75:	29 c2                	sub    %eax,%edx
  406a77:	45 8d 54 12 03       	lea    0x3(%r10,%rdx,1),%r10d
  406a7c:	e9 09 f7 ff ff       	jmpq   40618a <__sprintf_chk@plt+0x3c8a>
  406a81:	41 ba 64 00 00 00    	mov    $0x64,%r10d
  406a87:	44 89 cf             	mov    %r9d,%edi
  406a8a:	41 c1 eb 1f          	shr    $0x1f,%r11d
  406a8e:	41 0f af fa          	imul   %r10d,%edi
  406a92:	31 f6                	xor    %esi,%esi
  406a94:	41 bd 01 00 00 00    	mov    $0x1,%r13d
  406a9a:	41 ba 05 00 00 00    	mov    $0x5,%r10d
  406aa0:	01 c7                	add    %eax,%edi
  406aa2:	e9 06 ed ff ff       	jmpq   4057ad <__sprintf_chk@plt+0x32ad>
  406aa7:	48 85 ed             	test   %rbp,%rbp
  406aaa:	0f 84 9e f5 ff ff    	je     40604e <__sprintf_chk@plt+0x3b4e>
  406ab0:	45 31 f6             	xor    %r14d,%r14d
  406ab3:	48 89 de             	mov    %rbx,%rsi
  406ab6:	bf 30 00 00 00       	mov    $0x30,%edi
  406abb:	49 83 c6 01          	add    $0x1,%r14
  406abf:	e8 9c b6 ff ff       	callq  402160 <fputc@plt>
  406ac4:	4c 39 f5             	cmp    %r14,%rbp
  406ac7:	77 ea                	ja     406ab3 <__sprintf_chk@plt+0x45b3>
  406ac9:	e9 80 f5 ff ff       	jmpq   40604e <__sprintf_chk@plt+0x3b4e>
  406ace:	48 85 ed             	test   %rbp,%rbp
  406ad1:	0f 84 67 f3 ff ff    	je     405e3e <__sprintf_chk@plt+0x393e>
  406ad7:	45 31 f6             	xor    %r14d,%r14d
  406ada:	48 89 de             	mov    %rbx,%rsi
  406add:	bf 30 00 00 00       	mov    $0x30,%edi
  406ae2:	49 83 c6 01          	add    $0x1,%r14
  406ae6:	e8 75 b6 ff ff       	callq  402160 <fputc@plt>
  406aeb:	4c 39 f5             	cmp    %r14,%rbp
  406aee:	77 ea                	ja     406ada <__sprintf_chk@plt+0x45da>
  406af0:	e9 49 f3 ff ff       	jmpq   405e3e <__sprintf_chk@plt+0x393e>
  406af5:	31 c0                	xor    %eax,%eax
  406af7:	85 ff                	test   %edi,%edi
  406af9:	0f 9f c0             	setg   %al
  406afc:	e9 96 ee ff ff       	jmpq   405997 <__sprintf_chk@plt+0x3497>
  406b01:	45 31 ed             	xor    %r13d,%r13d
  406b04:	48 c7 44 24 30 ab 5d 	movq   $0x415dab,0x30(%rsp)
  406b0b:	41 00 
  406b0d:	e9 75 f3 ff ff       	jmpq   405e87 <__sprintf_chk@plt+0x3987>
  406b12:	41 89 fa             	mov    %edi,%r10d
  406b15:	45 30 ed             	xor    %r13b,%r13b
  406b18:	e9 6d f6 ff ff       	jmpq   40618a <__sprintf_chk@plt+0x3c8a>
  406b1d:	48 85 ed             	test   %rbp,%rbp
  406b20:	0f 84 c8 f3 ff ff    	je     405eee <__sprintf_chk@plt+0x39ee>
  406b26:	31 d2                	xor    %edx,%edx
  406b28:	49 89 d6             	mov    %rdx,%r14
  406b2b:	48 89 de             	mov    %rbx,%rsi
  406b2e:	bf 30 00 00 00       	mov    $0x30,%edi
  406b33:	49 83 c6 01          	add    $0x1,%r14
  406b37:	e8 24 b6 ff ff       	callq  402160 <fputc@plt>
  406b3c:	49 39 ee             	cmp    %rbp,%r14
  406b3f:	75 ea                	jne    406b2b <__sprintf_chk@plt+0x462b>
  406b41:	e9 a8 f3 ff ff       	jmpq   405eee <__sprintf_chk@plt+0x39ee>
  406b46:	48 83 7c 24 50 00    	cmpq   $0x0,0x50(%rsp)
  406b4c:	0f 84 16 fb ff ff    	je     406668 <__sprintf_chk@plt+0x4168>
  406b52:	31 d2                	xor    %edx,%edx
  406b54:	49 89 d5             	mov    %rdx,%r13
  406b57:	48 89 de             	mov    %rbx,%rsi
  406b5a:	bf 30 00 00 00       	mov    $0x30,%edi
  406b5f:	49 83 c5 01          	add    $0x1,%r13
  406b63:	e8 f8 b5 ff ff       	callq  402160 <fputc@plt>
  406b68:	4c 39 6c 24 50       	cmp    %r13,0x50(%rsp)
  406b6d:	77 e8                	ja     406b57 <__sprintf_chk@plt+0x4657>
  406b6f:	e9 f4 fa ff ff       	jmpq   406668 <__sprintf_chk@plt+0x4168>
  406b74:	48 85 ed             	test   %rbp,%rbp
  406b77:	0f 84 60 f1 ff ff    	je     405cdd <__sprintf_chk@plt+0x37dd>
  406b7d:	45 31 f6             	xor    %r14d,%r14d
  406b80:	48 89 de             	mov    %rbx,%rsi
  406b83:	bf 30 00 00 00       	mov    $0x30,%edi
  406b88:	49 83 c6 01          	add    $0x1,%r14
  406b8c:	e8 cf b5 ff ff       	callq  402160 <fputc@plt>
  406b91:	4c 39 f5             	cmp    %r14,%rbp
  406b94:	77 ea                	ja     406b80 <__sprintf_chk@plt+0x4680>
  406b96:	e9 3d f1 ff ff       	jmpq   405cd8 <__sprintf_chk@plt+0x37d8>
  406b9b:	8b 7c 24 24          	mov    0x24(%rsp),%edi
  406b9f:	41 89 ea             	mov    %ebp,%r10d
  406ba2:	e9 f9 eb ff ff       	jmpq   4057a0 <__sprintf_chk@plt+0x32a0>
  406ba7:	e8 94 b4 ff ff       	callq  402040 <__stack_chk_fail@plt>
  406bac:	45 31 d2             	xor    %r10d,%r10d
  406baf:	e9 20 ec ff ff       	jmpq   4057d4 <__sprintf_chk@plt+0x32d4>
  406bb4:	4d 89 ec             	mov    %r13,%r12
  406bb7:	e9 84 e9 ff ff       	jmpq   405540 <__sprintf_chk@plt+0x3040>
  406bbc:	0f 1f 40 00          	nopl   0x0(%rax)
  406bc0:	45 89 c1             	mov    %r8d,%r9d
  406bc3:	41 89 c8             	mov    %ecx,%r8d
  406bc6:	48 89 d1             	mov    %rdx,%rcx
  406bc9:	48 89 f2             	mov    %rsi,%rdx
  406bcc:	48 89 fe             	mov    %rdi,%rsi
  406bcf:	31 ff                	xor    %edi,%edi
  406bd1:	e9 3a e7 ff ff       	jmpq   405310 <__sprintf_chk@plt+0x2e10>
  406bd6:	66 2e 0f 1f 84 00 00 	nopw   %cs:0x0(%rax,%rax,1)
  406bdd:	00 00 00 
  406be0:	53                   	push   %rbx
  406be1:	31 f6                	xor    %esi,%esi
  406be3:	89 fb                	mov    %edi,%ebx
  406be5:	31 c0                	xor    %eax,%eax
  406be7:	bf 40 56 41 00       	mov    $0x415640,%edi
  406bec:	e8 df b7 ff ff       	callq  4023d0 <open@plt>
  406bf1:	39 c3                	cmp    %eax,%ebx
  406bf3:	74 23                	je     406c18 <__sprintf_chk@plt+0x4718>
  406bf5:	31 db                	xor    %ebx,%ebx
  406bf7:	85 c0                	test   %eax,%eax
  406bf9:	78 12                	js     406c0d <__sprintf_chk@plt+0x470d>
  406bfb:	89 c7                	mov    %eax,%edi
  406bfd:	e8 3e b5 ff ff       	callq  402140 <close@plt>
  406c02:	e8 09 b3 ff ff       	callq  401f10 <__errno_location@plt>
  406c07:	c7 00 09 00 00 00    	movl   $0x9,(%rax)
  406c0d:	89 d8                	mov    %ebx,%eax
  406c0f:	5b                   	pop    %rbx
  406c10:	c3                   	retq   
  406c11:	0f 1f 80 00 00 00 00 	nopl   0x0(%rax)
  406c18:	bb 01 00 00 00       	mov    $0x1,%ebx
  406c1d:	89 d8                	mov    %ebx,%eax
  406c1f:	5b                   	pop    %rbx
  406c20:	c3                   	retq   
  406c21:	66 66 66 66 66 66 2e 	data32 data32 data32 data32 data32 nopw %cs:0x0(%rax,%rax,1)
  406c28:	0f 1f 84 00 00 00 00 
  406c2f:	00 
  406c30:	41 57                	push   %r15
  406c32:	49 89 f7             	mov    %rsi,%r15
  406c35:	41 56                	push   %r14
  406c37:	49 89 fe             	mov    %rdi,%r14
  406c3a:	48 89 d7             	mov    %rdx,%rdi
  406c3d:	41 55                	push   %r13
  406c3f:	41 54                	push   %r12
  406c41:	55                   	push   %rbp
  406c42:	53                   	push   %rbx
  406c43:	48 89 d3             	mov    %rdx,%rbx
  406c46:	48 83 ec 08          	sub    $0x8,%rsp
  406c4a:	e8 f1 b5 ff ff       	callq  402240 <fileno@plt>
  406c4f:	83 f8 01             	cmp    $0x1,%eax
  406c52:	0f 84 48 01 00 00    	je     406da0 <__sprintf_chk@plt+0x48a0>
  406c58:	83 f8 02             	cmp    $0x2,%eax
  406c5b:	0f 84 2f 01 00 00    	je     406d90 <__sprintf_chk@plt+0x4890>
  406c61:	85 c0                	test   %eax,%eax
  406c63:	0f 84 b7 00 00 00    	je     406d20 <__sprintf_chk@plt+0x4820>
  406c69:	be 02 00 00 00       	mov    $0x2,%esi
  406c6e:	bf 02 00 00 00       	mov    $0x2,%edi
  406c73:	e8 f8 b3 ff ff       	callq  402070 <dup2@plt>
  406c78:	83 f8 02             	cmp    $0x2,%eax
  406c7b:	40 0f 95 c5          	setne  %bpl
  406c7f:	be 01 00 00 00       	mov    $0x1,%esi
  406c84:	bf 01 00 00 00       	mov    $0x1,%edi
  406c89:	e8 e2 b3 ff ff       	callq  402070 <dup2@plt>
  406c8e:	83 f8 01             	cmp    $0x1,%eax
  406c91:	41 0f 95 c4          	setne  %r12b
  406c95:	31 f6                	xor    %esi,%esi
  406c97:	31 ff                	xor    %edi,%edi
  406c99:	e8 d2 b3 ff ff       	callq  402070 <dup2@plt>
  406c9e:	85 c0                	test   %eax,%eax
  406ca0:	0f 84 7f 00 00 00    	je     406d25 <__sprintf_chk@plt+0x4825>
  406ca6:	31 ff                	xor    %edi,%edi
  406ca8:	41 bd 01 00 00 00    	mov    $0x1,%r13d
  406cae:	e8 2d ff ff ff       	callq  406be0 <__sprintf_chk@plt+0x46e0>
  406cb3:	84 c0                	test   %al,%al
  406cb5:	0f 84 80 00 00 00    	je     406d3b <__sprintf_chk@plt+0x483b>
  406cbb:	45 84 e4             	test   %r12b,%r12b
  406cbe:	75 6d                	jne    406d2d <__sprintf_chk@plt+0x482d>
  406cc0:	40 84 ed             	test   %bpl,%bpl
  406cc3:	74 12                	je     406cd7 <__sprintf_chk@plt+0x47d7>
  406cc5:	bf 02 00 00 00       	mov    $0x2,%edi
  406cca:	e8 11 ff ff ff       	callq  406be0 <__sprintf_chk@plt+0x46e0>
  406ccf:	84 c0                	test   %al,%al
  406cd1:	0f 84 91 00 00 00    	je     406d68 <__sprintf_chk@plt+0x4868>
  406cd7:	48 89 da             	mov    %rbx,%rdx
  406cda:	4c 89 fe             	mov    %r15,%rsi
  406cdd:	4c 89 f7             	mov    %r14,%rdi
  406ce0:	e8 2b b4 ff ff       	callq  402110 <freopen@plt>
  406ce5:	48 89 c3             	mov    %rax,%rbx
  406ce8:	e8 23 b2 ff ff       	callq  401f10 <__errno_location@plt>
  406ced:	40 84 ed             	test   %bpl,%bpl
  406cf0:	49 89 c6             	mov    %rax,%r14
  406cf3:	44 8b 38             	mov    (%rax),%r15d
  406cf6:	0f 85 7c 00 00 00    	jne    406d78 <__sprintf_chk@plt+0x4878>
  406cfc:	45 84 e4             	test   %r12b,%r12b
  406cff:	75 57                	jne    406d58 <__sprintf_chk@plt+0x4858>
  406d01:	45 84 ed             	test   %r13b,%r13b
  406d04:	75 3a                	jne    406d40 <__sprintf_chk@plt+0x4840>
  406d06:	48 85 db             	test   %rbx,%rbx
  406d09:	74 41                	je     406d4c <__sprintf_chk@plt+0x484c>
  406d0b:	48 83 c4 08          	add    $0x8,%rsp
  406d0f:	48 89 d8             	mov    %rbx,%rax
  406d12:	5b                   	pop    %rbx
  406d13:	5d                   	pop    %rbp
  406d14:	41 5c                	pop    %r12
  406d16:	41 5d                	pop    %r13
  406d18:	41 5e                	pop    %r14
  406d1a:	41 5f                	pop    %r15
  406d1c:	c3                   	retq   
  406d1d:	0f 1f 00             	nopl   (%rax)
  406d20:	31 ed                	xor    %ebp,%ebp
  406d22:	45 31 e4             	xor    %r12d,%r12d
  406d25:	45 31 ed             	xor    %r13d,%r13d
  406d28:	45 84 e4             	test   %r12b,%r12b
  406d2b:	74 93                	je     406cc0 <__sprintf_chk@plt+0x47c0>
  406d2d:	bf 01 00 00 00       	mov    $0x1,%edi
  406d32:	e8 a9 fe ff ff       	callq  406be0 <__sprintf_chk@plt+0x46e0>
  406d37:	84 c0                	test   %al,%al
  406d39:	75 85                	jne    406cc0 <__sprintf_chk@plt+0x47c0>
  406d3b:	31 db                	xor    %ebx,%ebx
  406d3d:	eb a9                	jmp    406ce8 <__sprintf_chk@plt+0x47e8>
  406d3f:	90                   	nop
  406d40:	31 ff                	xor    %edi,%edi
  406d42:	e8 f9 b3 ff ff       	callq  402140 <close@plt>
  406d47:	48 85 db             	test   %rbx,%rbx
  406d4a:	75 bf                	jne    406d0b <__sprintf_chk@plt+0x480b>
  406d4c:	45 89 3e             	mov    %r15d,(%r14)
  406d4f:	eb ba                	jmp    406d0b <__sprintf_chk@plt+0x480b>
  406d51:	0f 1f 80 00 00 00 00 	nopl   0x0(%rax)
  406d58:	bf 01 00 00 00       	mov    $0x1,%edi
  406d5d:	e8 de b3 ff ff       	callq  402140 <close@plt>
  406d62:	eb 9d                	jmp    406d01 <__sprintf_chk@plt+0x4801>
  406d64:	0f 1f 40 00          	nopl   0x0(%rax)
  406d68:	e8 a3 b1 ff ff       	callq  401f10 <__errno_location@plt>
  406d6d:	44 8b 38             	mov    (%rax),%r15d
  406d70:	49 89 c6             	mov    %rax,%r14
  406d73:	31 db                	xor    %ebx,%ebx
  406d75:	0f 1f 00             	nopl   (%rax)
  406d78:	bf 02 00 00 00       	mov    $0x2,%edi
  406d7d:	e8 be b3 ff ff       	callq  402140 <close@plt>
  406d82:	e9 75 ff ff ff       	jmpq   406cfc <__sprintf_chk@plt+0x47fc>
  406d87:	66 0f 1f 84 00 00 00 	nopw   0x0(%rax,%rax,1)
  406d8e:	00 00 
  406d90:	31 ed                	xor    %ebp,%ebp
  406d92:	e9 e8 fe ff ff       	jmpq   406c7f <__sprintf_chk@plt+0x477f>
  406d97:	66 0f 1f 84 00 00 00 	nopw   0x0(%rax,%rax,1)
  406d9e:	00 00 
  406da0:	31 ed                	xor    %ebp,%ebp
  406da2:	45 31 e4             	xor    %r12d,%r12d
  406da5:	e9 eb fe ff ff       	jmpq   406c95 <__sprintf_chk@plt+0x4795>
  406daa:	66 0f 1f 44 00 00    	nopw   0x0(%rax,%rax,1)
  406db0:	48 83 ff 09          	cmp    $0x9,%rdi
  406db4:	0f 87 85 00 00 00    	ja     406e3f <__sprintf_chk@plt+0x493f>
  406dba:	bf 0b 00 00 00       	mov    $0xb,%edi
  406dbf:	49 b9 ab aa aa aa aa 	movabs $0xaaaaaaaaaaaaaaab,%r9
  406dc6:	aa aa aa 
  406dc9:	0f 1f 80 00 00 00 00 	nopl   0x0(%rax)
  406dd0:	48 83 ff 09          	cmp    $0x9,%rdi
  406dd4:	76 62                	jbe    406e38 <__sprintf_chk@plt+0x4938>
  406dd6:	48 89 f8             	mov    %rdi,%rax
  406dd9:	49 f7 e1             	mul    %r9
  406ddc:	48 d1 ea             	shr    %rdx
  406ddf:	48 8d 04 52          	lea    (%rdx,%rdx,2),%rax
  406de3:	48 39 c7             	cmp    %rax,%rdi
  406de6:	74 42                	je     406e2a <__sprintf_chk@plt+0x492a>
  406de8:	41 b8 10 00 00 00    	mov    $0x10,%r8d
  406dee:	be 09 00 00 00       	mov    $0x9,%esi
  406df3:	b9 03 00 00 00       	mov    $0x3,%ecx
  406df8:	eb 17                	jmp    406e11 <__sprintf_chk@plt+0x4911>
  406dfa:	66 0f 1f 44 00 00    	nopw   0x0(%rax,%rax,1)
  406e00:	31 d2                	xor    %edx,%edx
  406e02:	48 89 f8             	mov    %rdi,%rax
  406e05:	49 83 c0 08          	add    $0x8,%r8
  406e09:	48 f7 f1             	div    %rcx
  406e0c:	48 85 d2             	test   %rdx,%rdx
  406e0f:	74 19                	je     406e2a <__sprintf_chk@plt+0x492a>
  406e11:	4c 01 c6             	add    %r8,%rsi
  406e14:	48 83 c1 02          	add    $0x2,%rcx
  406e18:	48 39 fe             	cmp    %rdi,%rsi
  406e1b:	72 e3                	jb     406e00 <__sprintf_chk@plt+0x4900>
  406e1d:	31 d2                	xor    %edx,%edx
  406e1f:	48 89 f8             	mov    %rdi,%rax
  406e22:	48 f7 f1             	div    %rcx
  406e25:	48 85 d2             	test   %rdx,%rdx
  406e28:	75 0a                	jne    406e34 <__sprintf_chk@plt+0x4934>
  406e2a:	48 83 c7 02          	add    $0x2,%rdi
  406e2e:	48 83 ff ff          	cmp    $0xffffffffffffffff,%rdi
  406e32:	75 9c                	jne    406dd0 <__sprintf_chk@plt+0x48d0>
  406e34:	48 89 f8             	mov    %rdi,%rax
  406e37:	c3                   	retq   
  406e38:	b9 03 00 00 00       	mov    $0x3,%ecx
  406e3d:	eb de                	jmp    406e1d <__sprintf_chk@plt+0x491d>
  406e3f:	48 83 cf 01          	or     $0x1,%rdi
  406e43:	48 83 ff ff          	cmp    $0xffffffffffffffff,%rdi
  406e47:	0f 85 72 ff ff ff    	jne    406dbf <__sprintf_chk@plt+0x48bf>
  406e4d:	eb e5                	jmp    406e34 <__sprintf_chk@plt+0x4934>
  406e4f:	90                   	nop
  406e50:	48 c1 cf 03          	ror    $0x3,%rdi
  406e54:	31 d2                	xor    %edx,%edx
  406e56:	48 89 f8             	mov    %rdi,%rax
  406e59:	48 f7 f6             	div    %rsi
  406e5c:	48 89 d0             	mov    %rdx,%rax
  406e5f:	c3                   	retq   
  406e60:	48 39 f7             	cmp    %rsi,%rdi
  406e63:	0f 94 c0             	sete   %al
  406e66:	c3                   	retq   
  406e67:	66 0f 1f 84 00 00 00 	nopw   0x0(%rax,%rax,1)
  406e6e:	00 00 
  406e70:	53                   	push   %rbx
  406e71:	48 89 fb             	mov    %rdi,%rbx
  406e74:	48 89 f7             	mov    %rsi,%rdi
  406e77:	48 8b 73 10          	mov    0x10(%rbx),%rsi
  406e7b:	ff 53 30             	callq  *0x30(%rbx)
  406e7e:	48 3b 43 10          	cmp    0x10(%rbx),%rax
  406e82:	73 09                	jae    406e8d <__sprintf_chk@plt+0x498d>
  406e84:	48 c1 e0 04          	shl    $0x4,%rax
  406e88:	48 03 03             	add    (%rbx),%rax
  406e8b:	5b                   	pop    %rbx
  406e8c:	c3                   	retq   
  406e8d:	e8 6e b0 ff ff       	callq  401f00 <abort@plt>
  406e92:	66 66 66 66 66 2e 0f 	data32 data32 data32 data32 nopw %cs:0x0(%rax,%rax,1)
  406e99:	1f 84 00 00 00 00 00 
  406ea0:	41 56                	push   %r14
  406ea2:	49 89 d6             	mov    %rdx,%r14
  406ea5:	41 55                	push   %r13
  406ea7:	41 89 cd             	mov    %ecx,%r13d
  406eaa:	41 54                	push   %r12
  406eac:	49 89 f4             	mov    %rsi,%r12
  406eaf:	55                   	push   %rbp
  406eb0:	48 89 fd             	mov    %rdi,%rbp
  406eb3:	53                   	push   %rbx
  406eb4:	e8 b7 ff ff ff       	callq  406e70 <__sprintf_chk@plt+0x4970>
  406eb9:	49 89 06             	mov    %rax,(%r14)
  406ebc:	48 8b 30             	mov    (%rax),%rsi
  406ebf:	48 89 c3             	mov    %rax,%rbx
  406ec2:	48 85 f6             	test   %rsi,%rsi
  406ec5:	74 78                	je     406f3f <__sprintf_chk@plt+0x4a3f>
  406ec7:	49 39 f4             	cmp    %rsi,%r12
  406eca:	74 0d                	je     406ed9 <__sprintf_chk@plt+0x49d9>
  406ecc:	4c 89 e7             	mov    %r12,%rdi
  406ecf:	ff 55 38             	callq  *0x38(%rbp)
  406ed2:	84 c0                	test   %al,%al
  406ed4:	74 60                	je     406f36 <__sprintf_chk@plt+0x4a36>
  406ed6:	48 8b 33             	mov    (%rbx),%rsi
  406ed9:	45 84 ed             	test   %r13b,%r13b
  406edc:	74 2e                	je     406f0c <__sprintf_chk@plt+0x4a0c>
  406ede:	48 8b 43 08          	mov    0x8(%rbx),%rax
  406ee2:	48 85 c0             	test   %rax,%rax
  406ee5:	0f 84 9d 00 00 00    	je     406f88 <__sprintf_chk@plt+0x4a88>
  406eeb:	4c 8b 08             	mov    (%rax),%r9
  406eee:	4c 8b 50 08          	mov    0x8(%rax),%r10
  406ef2:	4c 89 0b             	mov    %r9,(%rbx)
  406ef5:	4c 89 53 08          	mov    %r10,0x8(%rbx)
  406ef9:	48 c7 00 00 00 00 00 	movq   $0x0,(%rax)
  406f00:	48 8b 4d 48          	mov    0x48(%rbp),%rcx
  406f04:	48 89 48 08          	mov    %rcx,0x8(%rax)
  406f08:	48 89 45 48          	mov    %rax,0x48(%rbp)
  406f0c:	5b                   	pop    %rbx
  406f0d:	5d                   	pop    %rbp
  406f0e:	41 5c                	pop    %r12
  406f10:	41 5d                	pop    %r13
  406f12:	48 89 f0             	mov    %rsi,%rax
  406f15:	41 5e                	pop    %r14
  406f17:	c3                   	retq   
  406f18:	0f 1f 84 00 00 00 00 	nopl   0x0(%rax,%rax,1)
  406f1f:	00 
  406f20:	48 8b 30             	mov    (%rax),%rsi
  406f23:	4c 39 e6             	cmp    %r12,%rsi
  406f26:	74 2f                	je     406f57 <__sprintf_chk@plt+0x4a57>
  406f28:	4c 89 e7             	mov    %r12,%rdi
  406f2b:	ff 55 38             	callq  *0x38(%rbp)
  406f2e:	84 c0                	test   %al,%al
  406f30:	75 1e                	jne    406f50 <__sprintf_chk@plt+0x4a50>
  406f32:	48 8b 5b 08          	mov    0x8(%rbx),%rbx
  406f36:	48 8b 43 08          	mov    0x8(%rbx),%rax
  406f3a:	48 85 c0             	test   %rax,%rax
  406f3d:	75 e1                	jne    406f20 <__sprintf_chk@plt+0x4a20>
  406f3f:	5b                   	pop    %rbx
  406f40:	5d                   	pop    %rbp
  406f41:	41 5c                	pop    %r12
  406f43:	31 f6                	xor    %esi,%esi
  406f45:	41 5d                	pop    %r13
  406f47:	48 89 f0             	mov    %rsi,%rax
  406f4a:	41 5e                	pop    %r14
  406f4c:	c3                   	retq   
  406f4d:	0f 1f 00             	nopl   (%rax)
  406f50:	48 8b 43 08          	mov    0x8(%rbx),%rax
  406f54:	48 8b 30             	mov    (%rax),%rsi
  406f57:	45 84 ed             	test   %r13b,%r13b
  406f5a:	74 b0                	je     406f0c <__sprintf_chk@plt+0x4a0c>
  406f5c:	48 8b 48 08          	mov    0x8(%rax),%rcx
  406f60:	48 89 4b 08          	mov    %rcx,0x8(%rbx)
  406f64:	48 c7 00 00 00 00 00 	movq   $0x0,(%rax)
  406f6b:	48 8b 4d 48          	mov    0x48(%rbp),%rcx
  406f6f:	48 89 48 08          	mov    %rcx,0x8(%rax)
  406f73:	48 89 45 48          	mov    %rax,0x48(%rbp)
  406f77:	48 89 f0             	mov    %rsi,%rax
  406f7a:	5b                   	pop    %rbx
  406f7b:	5d                   	pop    %rbp
  406f7c:	41 5c                	pop    %r12
  406f7e:	41 5d                	pop    %r13
  406f80:	41 5e                	pop    %r14
  406f82:	c3                   	retq   
  406f83:	0f 1f 44 00 00       	nopl   0x0(%rax,%rax,1)
  406f88:	48 c7 03 00 00 00 00 	movq   $0x0,(%rbx)
  406f8f:	e9 78 ff ff ff       	jmpq   406f0c <__sprintf_chk@plt+0x4a0c>
  406f94:	66 66 66 2e 0f 1f 84 	data32 data32 nopw %cs:0x0(%rax,%rax,1)
  406f9b:	00 00 00 00 00 
  406fa0:	48 8b 07             	mov    (%rdi),%rax
  406fa3:	48 3d c0 56 41 00    	cmp    $0x4156c0,%rax
  406fa9:	74 75                	je     407020 <__sprintf_chk@plt+0x4b20>
  406fab:	f3 0f 10 40 08       	movss  0x8(%rax),%xmm0
  406fb0:	0f 2e 05 1d e7 00 00 	ucomiss 0xe71d(%rip),%xmm0        # 4156d4 <fts_children+0x5d14>
  406fb7:	76 57                	jbe    407010 <__sprintf_chk@plt+0x4b10>
  406fb9:	f3 0f 10 0d 17 e7 00 	movss  0xe717(%rip),%xmm1        # 4156d8 <fts_children+0x5d18>
  406fc0:	00 
  406fc1:	0f 2e c8             	ucomiss %xmm0,%xmm1
  406fc4:	76 4a                	jbe    407010 <__sprintf_chk@plt+0x4b10>
  406fc6:	f3 0f 10 48 0c       	movss  0xc(%rax),%xmm1
  406fcb:	0f 2e 0d 0a e7 00 00 	ucomiss 0xe70a(%rip),%xmm1        # 4156dc <fts_children+0x5d1c>
  406fd2:	76 3c                	jbe    407010 <__sprintf_chk@plt+0x4b10>
  406fd4:	f3 0f 10 08          	movss  (%rax),%xmm1
  406fd8:	0f 2e 0d 01 e7 00 00 	ucomiss 0xe701(%rip),%xmm1        # 4156e0 <fts_children+0x5d20>
  406fdf:	72 2f                	jb     407010 <__sprintf_chk@plt+0x4b10>
  406fe1:	f3 0f 58 0d eb e6 00 	addss  0xe6eb(%rip),%xmm1        # 4156d4 <fts_children+0x5d14>
  406fe8:	00 
  406fe9:	f3 0f 10 50 04       	movss  0x4(%rax),%xmm2
  406fee:	0f 2e d1             	ucomiss %xmm1,%xmm2
  406ff1:	76 1d                	jbe    407010 <__sprintf_chk@plt+0x4b10>
  406ff3:	f3 0f 10 1d e9 e6 00 	movss  0xe6e9(%rip),%xmm3        # 4156e4 <fts_children+0x5d24>
  406ffa:	00 
  406ffb:	0f 2e da             	ucomiss %xmm2,%xmm3
  406ffe:	72 10                	jb     407010 <__sprintf_chk@plt+0x4b10>
  407000:	0f 2e c1             	ucomiss %xmm1,%xmm0
  407003:	b8 01 00 00 00       	mov    $0x1,%eax
  407008:	77 1b                	ja     407025 <__sprintf_chk@plt+0x4b25>
  40700a:	66 0f 1f 44 00 00    	nopw   0x0(%rax,%rax,1)
  407010:	48 c7 07 c0 56 41 00 	movq   $0x4156c0,(%rdi)
  407017:	31 c0                	xor    %eax,%eax
  407019:	c3                   	retq   
  40701a:	66 0f 1f 44 00 00    	nopw   0x0(%rax,%rax,1)
  407020:	b8 01 00 00 00       	mov    $0x1,%eax
  407025:	f3 c3                	repz retq 
  407027:	66 0f 1f 84 00 00 00 	nopw   0x0(%rax,%rax,1)
  40702e:	00 00 
  407030:	41 57                	push   %r15
  407032:	41 89 d7             	mov    %edx,%r15d
  407035:	41 56                	push   %r14
  407037:	49 89 f6             	mov    %rsi,%r14
  40703a:	41 55                	push   %r13
  40703c:	41 54                	push   %r12
  40703e:	49 89 fc             	mov    %rdi,%r12
  407041:	55                   	push   %rbp
  407042:	53                   	push   %rbx
  407043:	48 83 ec 08          	sub    $0x8,%rsp
  407047:	4c 8b 2e             	mov    (%rsi),%r13
  40704a:	4c 3b 6e 08          	cmp    0x8(%rsi),%r13
  40704e:	0f 83 8b 00 00 00    	jae    4070df <__sprintf_chk@plt+0x4bdf>
  407054:	0f 1f 40 00          	nopl   0x0(%rax)
  407058:	49 8b 6d 00          	mov    0x0(%r13),%rbp
  40705c:	48 85 ed             	test   %rbp,%rbp
  40705f:	74 70                	je     4070d1 <__sprintf_chk@plt+0x4bd1>
  407061:	49 8b 5d 08          	mov    0x8(%r13),%rbx
  407065:	48 85 db             	test   %rbx,%rbx
  407068:	75 1a                	jne    407084 <__sprintf_chk@plt+0x4b84>
  40706a:	eb 58                	jmp    4070c4 <__sprintf_chk@plt+0x4bc4>
  40706c:	0f 1f 40 00          	nopl   0x0(%rax)
  407070:	48 8b 48 08          	mov    0x8(%rax),%rcx
  407074:	48 85 d2             	test   %rdx,%rdx
  407077:	48 89 4b 08          	mov    %rcx,0x8(%rbx)
  40707b:	48 89 58 08          	mov    %rbx,0x8(%rax)
  40707f:	74 3f                	je     4070c0 <__sprintf_chk@plt+0x4bc0>
  407081:	48 89 d3             	mov    %rdx,%rbx
  407084:	48 8b 2b             	mov    (%rbx),%rbp
  407087:	4c 89 e7             	mov    %r12,%rdi
  40708a:	48 89 ee             	mov    %rbp,%rsi
  40708d:	e8 de fd ff ff       	callq  406e70 <__sprintf_chk@plt+0x4970>
  407092:	48 83 38 00          	cmpq   $0x0,(%rax)
  407096:	48 8b 53 08          	mov    0x8(%rbx),%rdx
  40709a:	75 d4                	jne    407070 <__sprintf_chk@plt+0x4b70>
  40709c:	48 89 28             	mov    %rbp,(%rax)
  40709f:	49 83 44 24 18 01    	addq   $0x1,0x18(%r12)
  4070a5:	48 85 d2             	test   %rdx,%rdx
  4070a8:	48 c7 03 00 00 00 00 	movq   $0x0,(%rbx)
  4070af:	49 8b 44 24 48       	mov    0x48(%r12),%rax
  4070b4:	48 89 43 08          	mov    %rax,0x8(%rbx)
  4070b8:	49 89 5c 24 48       	mov    %rbx,0x48(%r12)
  4070bd:	75 c2                	jne    407081 <__sprintf_chk@plt+0x4b81>
  4070bf:	90                   	nop
  4070c0:	49 8b 6d 00          	mov    0x0(%r13),%rbp
  4070c4:	45 84 ff             	test   %r15b,%r15b
  4070c7:	49 c7 45 08 00 00 00 	movq   $0x0,0x8(%r13)
  4070ce:	00 
  4070cf:	74 27                	je     4070f8 <__sprintf_chk@plt+0x4bf8>
  4070d1:	49 83 c5 10          	add    $0x10,%r13
  4070d5:	4d 39 6e 08          	cmp    %r13,0x8(%r14)
  4070d9:	0f 87 79 ff ff ff    	ja     407058 <__sprintf_chk@plt+0x4b58>
  4070df:	48 83 c4 08          	add    $0x8,%rsp
  4070e3:	b8 01 00 00 00       	mov    $0x1,%eax
  4070e8:	5b                   	pop    %rbx
  4070e9:	5d                   	pop    %rbp
  4070ea:	41 5c                	pop    %r12
  4070ec:	41 5d                	pop    %r13
  4070ee:	41 5e                	pop    %r14
  4070f0:	41 5f                	pop    %r15
  4070f2:	c3                   	retq   
  4070f3:	0f 1f 44 00 00       	nopl   0x0(%rax,%rax,1)
  4070f8:	48 89 ee             	mov    %rbp,%rsi
  4070fb:	4c 89 e7             	mov    %r12,%rdi
  4070fe:	e8 6d fd ff ff       	callq  406e70 <__sprintf_chk@plt+0x4970>
  407103:	48 83 38 00          	cmpq   $0x0,(%rax)
  407107:	48 89 c3             	mov    %rax,%rbx
  40710a:	74 3f                	je     40714b <__sprintf_chk@plt+0x4c4b>
  40710c:	49 8b 44 24 48       	mov    0x48(%r12),%rax
  407111:	48 85 c0             	test   %rax,%rax
  407114:	74 40                	je     407156 <__sprintf_chk@plt+0x4c56>
  407116:	48 8b 50 08          	mov    0x8(%rax),%rdx
  40711a:	49 89 54 24 48       	mov    %rdx,0x48(%r12)
  40711f:	48 8b 53 08          	mov    0x8(%rbx),%rdx
  407123:	48 89 28             	mov    %rbp,(%rax)
  407126:	48 89 50 08          	mov    %rdx,0x8(%rax)
  40712a:	48 89 43 08          	mov    %rax,0x8(%rbx)
  40712e:	49 c7 45 00 00 00 00 	movq   $0x0,0x0(%r13)
  407135:	00 
  407136:	49 83 6e 18 01       	subq   $0x1,0x18(%r14)
  40713b:	49 83 c5 10          	add    $0x10,%r13
  40713f:	4d 39 6e 08          	cmp    %r13,0x8(%r14)
  407143:	0f 87 0f ff ff ff    	ja     407058 <__sprintf_chk@plt+0x4b58>
  407149:	eb 94                	jmp    4070df <__sprintf_chk@plt+0x4bdf>
  40714b:	48 89 28             	mov    %rbp,(%rax)
  40714e:	49 83 44 24 18 01    	addq   $0x1,0x18(%r12)
  407154:	eb d8                	jmp    40712e <__sprintf_chk@plt+0x4c2e>
  407156:	bf 10 00 00 00       	mov    $0x10,%edi
  40715b:	e8 30 b1 ff ff       	callq  402290 <malloc@plt>
  407160:	48 85 c0             	test   %rax,%rax
  407163:	75 ba                	jne    40711f <__sprintf_chk@plt+0x4c1f>
  407165:	48 83 c4 08          	add    $0x8,%rsp
  407169:	31 c0                	xor    %eax,%eax
  40716b:	5b                   	pop    %rbx
  40716c:	5d                   	pop    %rbp
  40716d:	41 5c                	pop    %r12
  40716f:	41 5d                	pop    %r13
  407171:	41 5e                	pop    %r14
  407173:	41 5f                	pop    %r15
  407175:	c3                   	retq   
  407176:	66 2e 0f 1f 84 00 00 	nopw   %cs:0x0(%rax,%rax,1)
  40717d:	00 00 00 
  407180:	48 8b 47 10          	mov    0x10(%rdi),%rax
  407184:	c3                   	retq   
  407185:	66 66 2e 0f 1f 84 00 	data32 nopw %cs:0x0(%rax,%rax,1)
  40718c:	00 00 00 00 
  407190:	48 8b 47 18          	mov    0x18(%rdi),%rax
  407194:	c3                   	retq   
  407195:	66 66 2e 0f 1f 84 00 	data32 nopw %cs:0x0(%rax,%rax,1)
  40719c:	00 00 00 00 
  4071a0:	48 8b 47 20          	mov    0x20(%rdi),%rax
  4071a4:	c3                   	retq   
  4071a5:	66 66 2e 0f 1f 84 00 	data32 nopw %cs:0x0(%rax,%rax,1)
  4071ac:	00 00 00 00 
  4071b0:	48 8b 37             	mov    (%rdi),%rsi
  4071b3:	48 8b 7f 08          	mov    0x8(%rdi),%rdi
  4071b7:	31 c0                	xor    %eax,%eax
  4071b9:	48 39 fe             	cmp    %rdi,%rsi
  4071bc:	73 39                	jae    4071f7 <__sprintf_chk@plt+0x4cf7>
  4071be:	66 90                	xchg   %ax,%ax
  4071c0:	48 83 3e 00          	cmpq   $0x0,(%rsi)
  4071c4:	74 26                	je     4071ec <__sprintf_chk@plt+0x4cec>
  4071c6:	48 8b 56 08          	mov    0x8(%rsi),%rdx
  4071ca:	b9 01 00 00 00       	mov    $0x1,%ecx
  4071cf:	48 85 d2             	test   %rdx,%rdx
  4071d2:	74 11                	je     4071e5 <__sprintf_chk@plt+0x4ce5>
  4071d4:	0f 1f 40 00          	nopl   0x0(%rax)
  4071d8:	48 8b 52 08          	mov    0x8(%rdx),%rdx
  4071dc:	48 83 c1 01          	add    $0x1,%rcx
  4071e0:	48 85 d2             	test   %rdx,%rdx
  4071e3:	75 f3                	jne    4071d8 <__sprintf_chk@plt+0x4cd8>
  4071e5:	48 39 c8             	cmp    %rcx,%rax
  4071e8:	48 0f 42 c1          	cmovb  %rcx,%rax
  4071ec:	48 83 c6 10          	add    $0x10,%rsi
  4071f0:	48 39 fe             	cmp    %rdi,%rsi
  4071f3:	72 cb                	jb     4071c0 <__sprintf_chk@plt+0x4cc0>
  4071f5:	f3 c3                	repz retq 
  4071f7:	f3 c3                	repz retq 
  4071f9:	0f 1f 80 00 00 00 00 	nopl   0x0(%rax)
  407200:	48 8b 0f             	mov    (%rdi),%rcx
  407203:	4c 8b 47 08          	mov    0x8(%rdi),%r8
  407207:	31 d2                	xor    %edx,%edx
  407209:	31 f6                	xor    %esi,%esi
  40720b:	4c 39 c1             	cmp    %r8,%rcx
  40720e:	73 36                	jae    407246 <__sprintf_chk@plt+0x4d46>
  407210:	48 83 39 00          	cmpq   $0x0,(%rcx)
  407214:	74 27                	je     40723d <__sprintf_chk@plt+0x4d3d>
  407216:	48 8b 41 08          	mov    0x8(%rcx),%rax
  40721a:	48 83 c6 01          	add    $0x1,%rsi
  40721e:	48 83 c2 01          	add    $0x1,%rdx
  407222:	48 85 c0             	test   %rax,%rax
  407225:	74 16                	je     40723d <__sprintf_chk@plt+0x4d3d>
  407227:	66 0f 1f 84 00 00 00 	nopw   0x0(%rax,%rax,1)
  40722e:	00 00 
  407230:	48 8b 40 08          	mov    0x8(%rax),%rax
  407234:	48 83 c2 01          	add    $0x1,%rdx
  407238:	48 85 c0             	test   %rax,%rax
  40723b:	75 f3                	jne    407230 <__sprintf_chk@plt+0x4d30>
  40723d:	48 83 c1 10          	add    $0x10,%rcx
  407241:	4c 39 c1             	cmp    %r8,%rcx
  407244:	72 ca                	jb     407210 <__sprintf_chk@plt+0x4d10>
  407246:	31 c0                	xor    %eax,%eax
  407248:	48 39 77 18          	cmp    %rsi,0x18(%rdi)
  40724c:	74 02                	je     407250 <__sprintf_chk@plt+0x4d50>
  40724e:	f3 c3                	repz retq 
  407250:	48 39 57 20          	cmp    %rdx,0x20(%rdi)
  407254:	0f 94 c0             	sete   %al
  407257:	c3                   	retq   
  407258:	0f 1f 84 00 00 00 00 	nopl   0x0(%rax,%rax,1)
  40725f:	00 
  407260:	41 55                	push   %r13
  407262:	41 54                	push   %r12
  407264:	55                   	push   %rbp
  407265:	48 89 f5             	mov    %rsi,%rbp
  407268:	53                   	push   %rbx
  407269:	31 db                	xor    %ebx,%ebx
  40726b:	48 83 ec 08          	sub    $0x8,%rsp
  40726f:	4c 8b 07             	mov    (%rdi),%r8
  407272:	48 8b 77 08          	mov    0x8(%rdi),%rsi
  407276:	48 8b 4f 20          	mov    0x20(%rdi),%rcx
  40727a:	4c 8b 67 10          	mov    0x10(%rdi),%r12
  40727e:	4c 8b 6f 18          	mov    0x18(%rdi),%r13
  407282:	49 39 f0             	cmp    %rsi,%r8
  407285:	73 3e                	jae    4072c5 <__sprintf_chk@plt+0x4dc5>
  407287:	66 0f 1f 84 00 00 00 	nopw   0x0(%rax,%rax,1)
  40728e:	00 00 
  407290:	49 83 38 00          	cmpq   $0x0,(%r8)
  407294:	74 26                	je     4072bc <__sprintf_chk@plt+0x4dbc>
  407296:	49 8b 40 08          	mov    0x8(%r8),%rax
  40729a:	ba 01 00 00 00       	mov    $0x1,%edx
  40729f:	48 85 c0             	test   %rax,%rax
  4072a2:	74 11                	je     4072b5 <__sprintf_chk@plt+0x4db5>
  4072a4:	0f 1f 40 00          	nopl   0x0(%rax)
  4072a8:	48 8b 40 08          	mov    0x8(%rax),%rax
  4072ac:	48 83 c2 01          	add    $0x1,%rdx
  4072b0:	48 85 c0             	test   %rax,%rax
  4072b3:	75 f3                	jne    4072a8 <__sprintf_chk@plt+0x4da8>
  4072b5:	48 39 d3             	cmp    %rdx,%rbx
  4072b8:	48 0f 42 da          	cmovb  %rdx,%rbx
  4072bc:	49 83 c0 10          	add    $0x10,%r8
  4072c0:	49 39 f0             	cmp    %rsi,%r8
  4072c3:	72 cb                	jb     407290 <__sprintf_chk@plt+0x4d90>
  4072c5:	ba 4a 56 41 00       	mov    $0x41564a,%edx
  4072ca:	be 01 00 00 00       	mov    $0x1,%esi
  4072cf:	48 89 ef             	mov    %rbp,%rdi
  4072d2:	31 c0                	xor    %eax,%eax
  4072d4:	e8 97 b1 ff ff       	callq  402470 <__fprintf_chk@plt>
  4072d9:	31 c0                	xor    %eax,%eax
  4072db:	4c 89 e1             	mov    %r12,%rcx
  4072de:	ba 62 56 41 00       	mov    $0x415662,%edx
  4072e3:	be 01 00 00 00       	mov    $0x1,%esi
  4072e8:	48 89 ef             	mov    %rbp,%rdi
  4072eb:	e8 80 b1 ff ff       	callq  402470 <__fprintf_chk@plt>
  4072f0:	4d 85 ed             	test   %r13,%r13
  4072f3:	78 56                	js     40734b <__sprintf_chk@plt+0x4e4b>
  4072f5:	f2 49 0f 2a c5       	cvtsi2sd %r13,%xmm0
  4072fa:	4d 85 e4             	test   %r12,%r12
  4072fd:	f2 0f 59 05 eb e3 00 	mulsd  0xe3eb(%rip),%xmm0        # 4156f0 <fts_children+0x5d30>
  407304:	00 
  407305:	78 69                	js     407370 <__sprintf_chk@plt+0x4e70>
  407307:	f2 49 0f 2a cc       	cvtsi2sd %r12,%xmm1
  40730c:	f2 0f 5e c1          	divsd  %xmm1,%xmm0
  407310:	4c 89 e9             	mov    %r13,%rcx
  407313:	48 89 ef             	mov    %rbp,%rdi
  407316:	ba 98 56 41 00       	mov    $0x415698,%edx
  40731b:	be 01 00 00 00       	mov    $0x1,%esi
  407320:	b8 01 00 00 00       	mov    $0x1,%eax
  407325:	e8 46 b1 ff ff       	callq  402470 <__fprintf_chk@plt>
  40732a:	48 83 c4 08          	add    $0x8,%rsp
  40732e:	48 89 d9             	mov    %rbx,%rcx
  407331:	48 89 ef             	mov    %rbp,%rdi
  407334:	5b                   	pop    %rbx
  407335:	5d                   	pop    %rbp
  407336:	41 5c                	pop    %r12
  407338:	41 5d                	pop    %r13
  40733a:	ba 7a 56 41 00       	mov    $0x41567a,%edx
  40733f:	be 01 00 00 00       	mov    $0x1,%esi
  407344:	31 c0                	xor    %eax,%eax
  407346:	e9 25 b1 ff ff       	jmpq   402470 <__fprintf_chk@plt>
  40734b:	4c 89 e8             	mov    %r13,%rax
  40734e:	4c 89 ea             	mov    %r13,%rdx
  407351:	48 d1 e8             	shr    %rax
  407354:	83 e2 01             	and    $0x1,%edx
  407357:	48 09 d0             	or     %rdx,%rax
  40735a:	4d 85 e4             	test   %r12,%r12
  40735d:	f2 48 0f 2a c0       	cvtsi2sd %rax,%xmm0
  407362:	f2 0f 58 c0          	addsd  %xmm0,%xmm0
  407366:	f2 0f 59 05 82 e3 00 	mulsd  0xe382(%rip),%xmm0        # 4156f0 <fts_children+0x5d30>
  40736d:	00 
  40736e:	79 97                	jns    407307 <__sprintf_chk@plt+0x4e07>
  407370:	4c 89 e0             	mov    %r12,%rax
  407373:	41 83 e4 01          	and    $0x1,%r12d
  407377:	48 d1 e8             	shr    %rax
  40737a:	4c 09 e0             	or     %r12,%rax
  40737d:	f2 48 0f 2a c8       	cvtsi2sd %rax,%xmm1
  407382:	f2 0f 58 c9          	addsd  %xmm1,%xmm1
  407386:	eb 84                	jmp    40730c <__sprintf_chk@plt+0x4e0c>
  407388:	0f 1f 84 00 00 00 00 	nopl   0x0(%rax,%rax,1)
  40738f:	00 
  407390:	41 54                	push   %r12
  407392:	49 89 fc             	mov    %rdi,%r12
  407395:	55                   	push   %rbp
  407396:	48 89 f5             	mov    %rsi,%rbp
  407399:	53                   	push   %rbx
  40739a:	e8 d1 fa ff ff       	callq  406e70 <__sprintf_chk@plt+0x4970>
  40739f:	48 89 c3             	mov    %rax,%rbx
  4073a2:	48 8b 00             	mov    (%rax),%rax
  4073a5:	48 85 c0             	test   %rax,%rax
  4073a8:	74 23                	je     4073cd <__sprintf_chk@plt+0x4ecd>
  4073aa:	48 89 c6             	mov    %rax,%rsi
  4073ad:	eb 04                	jmp    4073b3 <__sprintf_chk@plt+0x4eb3>
  4073af:	90                   	nop
  4073b0:	48 8b 33             	mov    (%rbx),%rsi
  4073b3:	48 39 f5             	cmp    %rsi,%rbp
  4073b6:	74 23                	je     4073db <__sprintf_chk@plt+0x4edb>
  4073b8:	48 89 ef             	mov    %rbp,%rdi
  4073bb:	41 ff 54 24 38       	callq  *0x38(%r12)
  4073c0:	84 c0                	test   %al,%al
  4073c2:	75 14                	jne    4073d8 <__sprintf_chk@plt+0x4ed8>
  4073c4:	48 8b 5b 08          	mov    0x8(%rbx),%rbx
  4073c8:	48 85 db             	test   %rbx,%rbx
  4073cb:	75 e3                	jne    4073b0 <__sprintf_chk@plt+0x4eb0>
  4073cd:	5b                   	pop    %rbx
  4073ce:	5d                   	pop    %rbp
  4073cf:	31 c0                	xor    %eax,%eax
  4073d1:	41 5c                	pop    %r12
  4073d3:	c3                   	retq   
  4073d4:	0f 1f 40 00          	nopl   0x0(%rax)
  4073d8:	48 8b 33             	mov    (%rbx),%rsi
  4073db:	5b                   	pop    %rbx
  4073dc:	5d                   	pop    %rbp
  4073dd:	48 89 f0             	mov    %rsi,%rax
  4073e0:	41 5c                	pop    %r12
  4073e2:	c3                   	retq   
  4073e3:	66 66 66 66 2e 0f 1f 	data32 data32 data32 nopw %cs:0x0(%rax,%rax,1)
  4073ea:	84 00 00 00 00 00 
  4073f0:	48 83 ec 08          	sub    $0x8,%rsp
  4073f4:	48 83 7f 20 00       	cmpq   $0x0,0x20(%rdi)
  4073f9:	74 2b                	je     407426 <__sprintf_chk@plt+0x4f26>
  4073fb:	48 8b 17             	mov    (%rdi),%rdx
  4073fe:	48 8b 4f 08          	mov    0x8(%rdi),%rcx
  407402:	48 39 ca             	cmp    %rcx,%rdx
  407405:	72 12                	jb     407419 <__sprintf_chk@plt+0x4f19>
  407407:	eb 24                	jmp    40742d <__sprintf_chk@plt+0x4f2d>
  407409:	0f 1f 80 00 00 00 00 	nopl   0x0(%rax)
  407410:	48 83 c2 10          	add    $0x10,%rdx
  407414:	48 39 ca             	cmp    %rcx,%rdx
  407417:	73 14                	jae    40742d <__sprintf_chk@plt+0x4f2d>
  407419:	48 8b 02             	mov    (%rdx),%rax
  40741c:	48 85 c0             	test   %rax,%rax
  40741f:	74 ef                	je     407410 <__sprintf_chk@plt+0x4f10>
  407421:	48 83 c4 08          	add    $0x8,%rsp
  407425:	c3                   	retq   
  407426:	31 c0                	xor    %eax,%eax
  407428:	48 83 c4 08          	add    $0x8,%rsp
  40742c:	c3                   	retq   
  40742d:	e8 ce aa ff ff       	callq  401f00 <abort@plt>
  407432:	66 66 66 66 66 2e 0f 	data32 data32 data32 data32 nopw %cs:0x0(%rax,%rax,1)
  407439:	1f 84 00 00 00 00 00 
  407440:	55                   	push   %rbp
  407441:	48 89 fd             	mov    %rdi,%rbp
  407444:	53                   	push   %rbx
  407445:	48 89 f3             	mov    %rsi,%rbx
  407448:	48 83 ec 08          	sub    $0x8,%rsp
  40744c:	e8 1f fa ff ff       	callq  406e70 <__sprintf_chk@plt+0x4970>
  407451:	48 89 c1             	mov    %rax,%rcx
  407454:	48 89 c2             	mov    %rax,%rdx
  407457:	eb 10                	jmp    407469 <__sprintf_chk@plt+0x4f69>
  407459:	0f 1f 80 00 00 00 00 	nopl   0x0(%rax)
  407460:	48 8b 52 08          	mov    0x8(%rdx),%rdx
  407464:	48 85 d2             	test   %rdx,%rdx
  407467:	74 0e                	je     407477 <__sprintf_chk@plt+0x4f77>
  407469:	48 39 1a             	cmp    %rbx,(%rdx)
  40746c:	75 f2                	jne    407460 <__sprintf_chk@plt+0x4f60>
  40746e:	48 8b 42 08          	mov    0x8(%rdx),%rax
  407472:	48 85 c0             	test   %rax,%rax
  407475:	75 23                	jne    40749a <__sprintf_chk@plt+0x4f9a>
  407477:	48 8b 55 08          	mov    0x8(%rbp),%rdx
  40747b:	eb 0b                	jmp    407488 <__sprintf_chk@plt+0x4f88>
  40747d:	0f 1f 00             	nopl   (%rax)
  407480:	48 8b 01             	mov    (%rcx),%rax
  407483:	48 85 c0             	test   %rax,%rax
  407486:	75 0b                	jne    407493 <__sprintf_chk@plt+0x4f93>
  407488:	48 83 c1 10          	add    $0x10,%rcx
  40748c:	48 39 d1             	cmp    %rdx,%rcx
  40748f:	72 ef                	jb     407480 <__sprintf_chk@plt+0x4f80>
  407491:	31 c0                	xor    %eax,%eax
  407493:	48 83 c4 08          	add    $0x8,%rsp
  407497:	5b                   	pop    %rbx
  407498:	5d                   	pop    %rbp
  407499:	c3                   	retq   
  40749a:	48 8b 00             	mov    (%rax),%rax
  40749d:	48 83 c4 08          	add    $0x8,%rsp
  4074a1:	5b                   	pop    %rbx
  4074a2:	5d                   	pop    %rbp
  4074a3:	c3                   	retq   
  4074a4:	66 66 66 2e 0f 1f 84 	data32 data32 nopw %cs:0x0(%rax,%rax,1)
  4074ab:	00 00 00 00 00 
  4074b0:	4c 8b 0f             	mov    (%rdi),%r9
  4074b3:	31 c0                	xor    %eax,%eax
  4074b5:	4c 39 4f 08          	cmp    %r9,0x8(%rdi)
  4074b9:	76 57                	jbe    407512 <__sprintf_chk@plt+0x5012>
  4074bb:	49 8b 09             	mov    (%r9),%rcx
  4074be:	48 85 c9             	test   %rcx,%rcx
  4074c1:	74 37                	je     4074fa <__sprintf_chk@plt+0x4ffa>
  4074c3:	48 39 c2             	cmp    %rax,%rdx
  4074c6:	76 48                	jbe    407510 <__sprintf_chk@plt+0x5010>
  4074c8:	48 89 0c c6          	mov    %rcx,(%rsi,%rax,8)
  4074cc:	49 8b 49 08          	mov    0x8(%r9),%rcx
  4074d0:	4c 8d 40 01          	lea    0x1(%rax),%r8
  4074d4:	4c 89 c0             	mov    %r8,%rax
  4074d7:	48 85 c9             	test   %rcx,%rcx
  4074da:	74 1e                	je     4074fa <__sprintf_chk@plt+0x4ffa>
  4074dc:	0f 1f 40 00          	nopl   0x0(%rax)
  4074e0:	48 39 d0             	cmp    %rdx,%rax
  4074e3:	74 2b                	je     407510 <__sprintf_chk@plt+0x5010>
  4074e5:	4c 8b 01             	mov    (%rcx),%r8
  4074e8:	48 83 c0 01          	add    $0x1,%rax
  4074ec:	4c 89 44 c6 f8       	mov    %r8,-0x8(%rsi,%rax,8)
  4074f1:	48 8b 49 08          	mov    0x8(%rcx),%rcx
  4074f5:	48 85 c9             	test   %rcx,%rcx
  4074f8:	75 e6                	jne    4074e0 <__sprintf_chk@plt+0x4fe0>
  4074fa:	49 83 c1 10          	add    $0x10,%r9
  4074fe:	4c 39 4f 08          	cmp    %r9,0x8(%rdi)
  407502:	77 b7                	ja     4074bb <__sprintf_chk@plt+0x4fbb>
  407504:	f3 c3                	repz retq 
  407506:	66 2e 0f 1f 84 00 00 	nopw   %cs:0x0(%rax,%rax,1)
  40750d:	00 00 00 
  407510:	f3 c3                	repz retq 
  407512:	f3 c3                	repz retq 
  407514:	66 66 66 2e 0f 1f 84 	data32 data32 nopw %cs:0x0(%rax,%rax,1)
  40751b:	00 00 00 00 00 
  407520:	41 57                	push   %r15
  407522:	49 89 ff             	mov    %rdi,%r15
  407525:	41 56                	push   %r14
  407527:	41 55                	push   %r13
  407529:	41 54                	push   %r12
  40752b:	55                   	push   %rbp
  40752c:	53                   	push   %rbx
  40752d:	48 83 ec 08          	sub    $0x8,%rsp
  407531:	4c 8b 37             	mov    (%rdi),%r14
  407534:	4c 39 77 08          	cmp    %r14,0x8(%rdi)
  407538:	76 50                	jbe    40758a <__sprintf_chk@plt+0x508a>
  40753a:	49 89 f4             	mov    %rsi,%r12
  40753d:	49 89 d5             	mov    %rdx,%r13
  407540:	31 ed                	xor    %ebp,%ebp
  407542:	49 8b 3e             	mov    (%r14),%rdi
  407545:	48 85 ff             	test   %rdi,%rdi
  407548:	74 20                	je     40756a <__sprintf_chk@plt+0x506a>
  40754a:	4c 89 f3             	mov    %r14,%rbx
  40754d:	eb 04                	jmp    407553 <__sprintf_chk@plt+0x5053>
  40754f:	90                   	nop
  407550:	48 8b 3b             	mov    (%rbx),%rdi
  407553:	4c 89 ee             	mov    %r13,%rsi
  407556:	41 ff d4             	callq  *%r12
  407559:	84 c0                	test   %al,%al
  40755b:	74 1b                	je     407578 <__sprintf_chk@plt+0x5078>
  40755d:	48 8b 5b 08          	mov    0x8(%rbx),%rbx
  407561:	48 83 c5 01          	add    $0x1,%rbp
  407565:	48 85 db             	test   %rbx,%rbx
  407568:	75 e6                	jne    407550 <__sprintf_chk@plt+0x5050>
  40756a:	49 83 c6 10          	add    $0x10,%r14
  40756e:	4d 39 77 08          	cmp    %r14,0x8(%r15)
  407572:	77 ce                	ja     407542 <__sprintf_chk@plt+0x5042>
  407574:	0f 1f 40 00          	nopl   0x0(%rax)
  407578:	48 83 c4 08          	add    $0x8,%rsp
  40757c:	48 89 e8             	mov    %rbp,%rax
  40757f:	5b                   	pop    %rbx
  407580:	5d                   	pop    %rbp
  407581:	41 5c                	pop    %r12
  407583:	41 5d                	pop    %r13
  407585:	41 5e                	pop    %r14
  407587:	41 5f                	pop    %r15
  407589:	c3                   	retq   
  40758a:	31 ed                	xor    %ebp,%ebp
  40758c:	eb ea                	jmp    407578 <__sprintf_chk@plt+0x5078>
  40758e:	66 90                	xchg   %ax,%ax
  407590:	44 0f b6 07          	movzbl (%rdi),%r8d
  407594:	31 d2                	xor    %edx,%edx
  407596:	45 84 c0             	test   %r8b,%r8b
  407599:	74 25                	je     4075c0 <__sprintf_chk@plt+0x50c0>
  40759b:	0f 1f 44 00 00       	nopl   0x0(%rax,%rax,1)
  4075a0:	48 89 d1             	mov    %rdx,%rcx
  4075a3:	48 83 c7 01          	add    $0x1,%rdi
  4075a7:	48 c1 e1 05          	shl    $0x5,%rcx
  4075ab:	48 29 d1             	sub    %rdx,%rcx
  4075ae:	31 d2                	xor    %edx,%edx
  4075b0:	49 8d 04 08          	lea    (%r8,%rcx,1),%rax
  4075b4:	44 0f b6 07          	movzbl (%rdi),%r8d
  4075b8:	48 f7 f6             	div    %rsi
  4075bb:	45 84 c0             	test   %r8b,%r8b
  4075be:	75 e0                	jne    4075a0 <__sprintf_chk@plt+0x50a0>
  4075c0:	48 89 d0             	mov    %rdx,%rax
  4075c3:	c3                   	retq   
  4075c4:	66 66 66 2e 0f 1f 84 	data32 data32 nopw %cs:0x0(%rax,%rax,1)
  4075cb:	00 00 00 00 00 
  4075d0:	c7 07 00 00 00 00    	movl   $0x0,(%rdi)
  4075d6:	c7 47 04 00 00 80 3f 	movl   $0x3f800000,0x4(%rdi)
  4075dd:	c7 47 08 cd cc 4c 3f 	movl   $0x3f4ccccd,0x8(%rdi)
  4075e4:	c7 47 0c f4 fd b4 3f 	movl   $0x3fb4fdf4,0xc(%rdi)
  4075eb:	c6 47 10 00          	movb   $0x0,0x10(%rdi)
  4075ef:	c3                   	retq   
  4075f0:	41 57                	push   %r15
  4075f2:	b8 50 6e 40 00       	mov    $0x406e50,%eax
  4075f7:	49 89 ff             	mov    %rdi,%r15
  4075fa:	bf 50 00 00 00       	mov    $0x50,%edi
  4075ff:	41 56                	push   %r14
  407601:	4d 89 c6             	mov    %r8,%r14
  407604:	41 55                	push   %r13
  407606:	49 89 d5             	mov    %rdx,%r13
  407609:	41 54                	push   %r12
  40760b:	49 89 cc             	mov    %rcx,%r12
  40760e:	55                   	push   %rbp
  40760f:	48 89 f5             	mov    %rsi,%rbp
  407612:	53                   	push   %rbx
  407613:	48 83 ec 08          	sub    $0x8,%rsp
  407617:	48 85 d2             	test   %rdx,%rdx
  40761a:	4c 0f 44 e8          	cmove  %rax,%r13
  40761e:	48 85 c9             	test   %rcx,%rcx
  407621:	b8 60 6e 40 00       	mov    $0x406e60,%eax
  407626:	4c 0f 44 e0          	cmove  %rax,%r12
  40762a:	e8 61 ac ff ff       	callq  402290 <malloc@plt>
  40762f:	48 85 c0             	test   %rax,%rax
  407632:	48 89 c3             	mov    %rax,%rbx
  407635:	0f 84 4d 01 00 00    	je     407788 <__sprintf_chk@plt+0x5288>
  40763b:	48 85 ed             	test   %rbp,%rbp
  40763e:	b8 c0 56 41 00       	mov    $0x4156c0,%eax
  407643:	48 8d 7b 28          	lea    0x28(%rbx),%rdi
  407647:	48 0f 44 e8          	cmove  %rax,%rbp
  40764b:	48 89 6b 28          	mov    %rbp,0x28(%rbx)
  40764f:	e8 4c f9 ff ff       	callq  406fa0 <__sprintf_chk@plt+0x4aa0>
  407654:	84 c0                	test   %al,%al
  407656:	0f 84 dc 00 00 00    	je     407738 <__sprintf_chk@plt+0x5238>
  40765c:	80 7d 10 00          	cmpb   $0x0,0x10(%rbp)
  407660:	f3 0f 10 4d 08       	movss  0x8(%rbp),%xmm1
  407665:	75 49                	jne    4076b0 <__sprintf_chk@plt+0x51b0>
  407667:	4d 85 ff             	test   %r15,%r15
  40766a:	0f 88 f8 00 00 00    	js     407768 <__sprintf_chk@plt+0x5268>
  407670:	f3 49 0f 2a c7       	cvtsi2ss %r15,%xmm0
  407675:	f3 0f 5e c1          	divss  %xmm1,%xmm0
  407679:	0f 2e 05 68 e0 00 00 	ucomiss 0xe068(%rip),%xmm0        # 4156e8 <fts_children+0x5d28>
  407680:	0f 83 aa 00 00 00    	jae    407730 <__sprintf_chk@plt+0x5230>
  407686:	0f 2e 05 5f e0 00 00 	ucomiss 0xe05f(%rip),%xmm0        # 4156ec <fts_children+0x5d2c>
  40768d:	0f 82 c5 00 00 00    	jb     407758 <__sprintf_chk@plt+0x5258>
  407693:	f3 0f 5c 05 51 e0 00 	subss  0xe051(%rip),%xmm0        # 4156ec <fts_children+0x5d2c>
  40769a:	00 
  40769b:	48 b8 00 00 00 00 00 	movabs $0x8000000000000000,%rax
  4076a2:	00 00 80 
  4076a5:	f3 4c 0f 2c f8       	cvttss2si %xmm0,%r15
  4076aa:	49 31 c7             	xor    %rax,%r15
  4076ad:	0f 1f 00             	nopl   (%rax)
  4076b0:	4c 89 ff             	mov    %r15,%rdi
  4076b3:	e8 f8 f6 ff ff       	callq  406db0 <__sprintf_chk@plt+0x48b0>
  4076b8:	48 89 c5             	mov    %rax,%rbp
  4076bb:	48 b8 ff ff ff ff ff 	movabs $0x1fffffffffffffff,%rax
  4076c2:	ff ff 1f 
  4076c5:	48 39 c5             	cmp    %rax,%rbp
  4076c8:	77 66                	ja     407730 <__sprintf_chk@plt+0x5230>
  4076ca:	48 85 ed             	test   %rbp,%rbp
  4076cd:	48 89 6b 10          	mov    %rbp,0x10(%rbx)
  4076d1:	74 65                	je     407738 <__sprintf_chk@plt+0x5238>
  4076d3:	be 10 00 00 00       	mov    $0x10,%esi
  4076d8:	48 89 ef             	mov    %rbp,%rdi
  4076db:	e8 e0 aa ff ff       	callq  4021c0 <calloc@plt>
  4076e0:	48 85 c0             	test   %rax,%rax
  4076e3:	48 89 03             	mov    %rax,(%rbx)
  4076e6:	74 50                	je     407738 <__sprintf_chk@plt+0x5238>
  4076e8:	48 c1 e5 04          	shl    $0x4,%rbp
  4076ec:	48 c7 43 18 00 00 00 	movq   $0x0,0x18(%rbx)
  4076f3:	00 
  4076f4:	48 c7 43 20 00 00 00 	movq   $0x0,0x20(%rbx)
  4076fb:	00 
  4076fc:	48 01 e8             	add    %rbp,%rax
  4076ff:	4c 89 6b 30          	mov    %r13,0x30(%rbx)
  407703:	4c 89 63 38          	mov    %r12,0x38(%rbx)
  407707:	48 89 43 08          	mov    %rax,0x8(%rbx)
  40770b:	4c 89 73 40          	mov    %r14,0x40(%rbx)
  40770f:	48 89 d8             	mov    %rbx,%rax
  407712:	48 c7 43 48 00 00 00 	movq   $0x0,0x48(%rbx)
  407719:	00 
  40771a:	48 83 c4 08          	add    $0x8,%rsp
  40771e:	5b                   	pop    %rbx
  40771f:	5d                   	pop    %rbp
  407720:	41 5c                	pop    %r12
  407722:	41 5d                	pop    %r13
  407724:	41 5e                	pop    %r14
  407726:	41 5f                	pop    %r15
  407728:	c3                   	retq   
  407729:	0f 1f 80 00 00 00 00 	nopl   0x0(%rax)
  407730:	48 c7 43 10 00 00 00 	movq   $0x0,0x10(%rbx)
  407737:	00 
  407738:	48 89 df             	mov    %rbx,%rdi
  40773b:	e8 90 a7 ff ff       	callq  401ed0 <free@plt>
  407740:	48 83 c4 08          	add    $0x8,%rsp
  407744:	31 c0                	xor    %eax,%eax
  407746:	5b                   	pop    %rbx
  407747:	5d                   	pop    %rbp
  407748:	41 5c                	pop    %r12
  40774a:	41 5d                	pop    %r13
  40774c:	41 5e                	pop    %r14
  40774e:	41 5f                	pop    %r15
  407750:	c3                   	retq   
  407751:	0f 1f 80 00 00 00 00 	nopl   0x0(%rax)
  407758:	f3 4c 0f 2c f8       	cvttss2si %xmm0,%r15
  40775d:	e9 4e ff ff ff       	jmpq   4076b0 <__sprintf_chk@plt+0x51b0>
  407762:	66 0f 1f 44 00 00    	nopw   0x0(%rax,%rax,1)
  407768:	4c 89 f8             	mov    %r15,%rax
  40776b:	41 83 e7 01          	and    $0x1,%r15d
  40776f:	48 d1 e8             	shr    %rax
  407772:	4c 09 f8             	or     %r15,%rax
  407775:	f3 48 0f 2a c0       	cvtsi2ss %rax,%xmm0
  40777a:	f3 0f 58 c0          	addss  %xmm0,%xmm0
  40777e:	e9 f2 fe ff ff       	jmpq   407675 <__sprintf_chk@plt+0x5175>
  407783:	0f 1f 44 00 00       	nopl   0x0(%rax,%rax,1)
  407788:	31 c0                	xor    %eax,%eax
  40778a:	eb 8e                	jmp    40771a <__sprintf_chk@plt+0x521a>
  40778c:	0f 1f 40 00          	nopl   0x0(%rax)
  407790:	41 54                	push   %r12
  407792:	55                   	push   %rbp
  407793:	48 89 fd             	mov    %rdi,%rbp
  407796:	53                   	push   %rbx
  407797:	4c 8b 27             	mov    (%rdi),%r12
  40779a:	4c 3b 67 08          	cmp    0x8(%rdi),%r12
  40779e:	73 73                	jae    407813 <__sprintf_chk@plt+0x5313>
  4077a0:	49 83 3c 24 00       	cmpq   $0x0,(%r12)
  4077a5:	74 62                	je     407809 <__sprintf_chk@plt+0x5309>
  4077a7:	49 8b 5c 24 08       	mov    0x8(%r12),%rbx
  4077ac:	48 8b 55 40          	mov    0x40(%rbp),%rdx
  4077b0:	48 85 db             	test   %rbx,%rbx
  4077b3:	75 0e                	jne    4077c3 <__sprintf_chk@plt+0x52c3>
  4077b5:	eb 36                	jmp    4077ed <__sprintf_chk@plt+0x52ed>
  4077b7:	66 0f 1f 84 00 00 00 	nopw   0x0(%rax,%rax,1)
  4077be:	00 00 
  4077c0:	48 89 c3             	mov    %rax,%rbx
  4077c3:	48 85 d2             	test   %rdx,%rdx
  4077c6:	74 09                	je     4077d1 <__sprintf_chk@plt+0x52d1>
  4077c8:	48 8b 3b             	mov    (%rbx),%rdi
  4077cb:	ff d2                	callq  *%rdx
  4077cd:	48 8b 55 40          	mov    0x40(%rbp),%rdx
  4077d1:	48 8b 43 08          	mov    0x8(%rbx),%rax
  4077d5:	48 8b 4d 48          	mov    0x48(%rbp),%rcx
  4077d9:	48 c7 03 00 00 00 00 	movq   $0x0,(%rbx)
  4077e0:	48 85 c0             	test   %rax,%rax
  4077e3:	48 89 4b 08          	mov    %rcx,0x8(%rbx)
  4077e7:	48 89 5d 48          	mov    %rbx,0x48(%rbp)
  4077eb:	75 d3                	jne    4077c0 <__sprintf_chk@plt+0x52c0>
  4077ed:	48 85 d2             	test   %rdx,%rdx
  4077f0:	74 06                	je     4077f8 <__sprintf_chk@plt+0x52f8>
  4077f2:	49 8b 3c 24          	mov    (%r12),%rdi
  4077f6:	ff d2                	callq  *%rdx
  4077f8:	49 c7 04 24 00 00 00 	movq   $0x0,(%r12)
  4077ff:	00 
  407800:	49 c7 44 24 08 00 00 	movq   $0x0,0x8(%r12)
  407807:	00 00 
  407809:	49 83 c4 10          	add    $0x10,%r12
  40780d:	4c 39 65 08          	cmp    %r12,0x8(%rbp)
  407811:	77 8d                	ja     4077a0 <__sprintf_chk@plt+0x52a0>
  407813:	48 c7 45 18 00 00 00 	movq   $0x0,0x18(%rbp)
  40781a:	00 
  40781b:	48 c7 45 20 00 00 00 	movq   $0x0,0x20(%rbp)
  407822:	00 
  407823:	5b                   	pop    %rbx
  407824:	5d                   	pop    %rbp
  407825:	41 5c                	pop    %r12
  407827:	c3                   	retq   
  407828:	0f 1f 84 00 00 00 00 	nopl   0x0(%rax,%rax,1)
  40782f:	00 
  407830:	41 54                	push   %r12
  407832:	55                   	push   %rbp
  407833:	48 89 fd             	mov    %rdi,%rbp
  407836:	53                   	push   %rbx
  407837:	48 83 7f 40 00       	cmpq   $0x0,0x40(%rdi)
  40783c:	74 07                	je     407845 <__sprintf_chk@plt+0x5345>
  40783e:	48 83 7f 20 00       	cmpq   $0x0,0x20(%rdi)
  407843:	75 71                	jne    4078b6 <__sprintf_chk@plt+0x53b6>
  407845:	48 8b 45 08          	mov    0x8(%rbp),%rax
  407849:	4c 8b 65 00          	mov    0x0(%rbp),%r12
  40784d:	49 39 c4             	cmp    %rax,%r12
  407850:	73 31                	jae    407883 <__sprintf_chk@plt+0x5383>
  407852:	66 0f 1f 44 00 00    	nopw   0x0(%rax,%rax,1)
  407858:	49 8b 7c 24 08       	mov    0x8(%r12),%rdi
  40785d:	48 85 ff             	test   %rdi,%rdi
  407860:	75 09                	jne    40786b <__sprintf_chk@plt+0x536b>
  407862:	eb 15                	jmp    407879 <__sprintf_chk@plt+0x5379>
  407864:	0f 1f 40 00          	nopl   0x0(%rax)
  407868:	48 89 df             	mov    %rbx,%rdi
  40786b:	48 8b 5f 08          	mov    0x8(%rdi),%rbx
  40786f:	e8 5c a6 ff ff       	callq  401ed0 <free@plt>
  407874:	48 85 db             	test   %rbx,%rbx
  407877:	75 ef                	jne    407868 <__sprintf_chk@plt+0x5368>
  407879:	49 83 c4 10          	add    $0x10,%r12
  40787d:	4c 39 65 08          	cmp    %r12,0x8(%rbp)
  407881:	77 d5                	ja     407858 <__sprintf_chk@plt+0x5358>
  407883:	48 8b 7d 48          	mov    0x48(%rbp),%rdi
  407887:	48 85 ff             	test   %rdi,%rdi
  40788a:	75 07                	jne    407893 <__sprintf_chk@plt+0x5393>
  40788c:	eb 13                	jmp    4078a1 <__sprintf_chk@plt+0x53a1>
  40788e:	66 90                	xchg   %ax,%ax
  407890:	48 89 df             	mov    %rbx,%rdi
  407893:	48 8b 5f 08          	mov    0x8(%rdi),%rbx
  407897:	e8 34 a6 ff ff       	callq  401ed0 <free@plt>
  40789c:	48 85 db             	test   %rbx,%rbx
  40789f:	75 ef                	jne    407890 <__sprintf_chk@plt+0x5390>
  4078a1:	48 8b 7d 00          	mov    0x0(%rbp),%rdi
  4078a5:	e8 26 a6 ff ff       	callq  401ed0 <free@plt>
  4078aa:	5b                   	pop    %rbx
  4078ab:	48 89 ef             	mov    %rbp,%rdi
  4078ae:	5d                   	pop    %rbp
  4078af:	41 5c                	pop    %r12
  4078b1:	e9 1a a6 ff ff       	jmpq   401ed0 <free@plt>
  4078b6:	4c 8b 27             	mov    (%rdi),%r12
  4078b9:	4c 3b 67 08          	cmp    0x8(%rdi),%r12
  4078bd:	73 c4                	jae    407883 <__sprintf_chk@plt+0x5383>
  4078bf:	90                   	nop
  4078c0:	49 8b 3c 24          	mov    (%r12),%rdi
  4078c4:	4c 89 e3             	mov    %r12,%rbx
  4078c7:	48 85 ff             	test   %rdi,%rdi
  4078ca:	75 07                	jne    4078d3 <__sprintf_chk@plt+0x53d3>
  4078cc:	eb 11                	jmp    4078df <__sprintf_chk@plt+0x53df>
  4078ce:	66 90                	xchg   %ax,%ax
  4078d0:	48 8b 3b             	mov    (%rbx),%rdi
  4078d3:	ff 55 40             	callq  *0x40(%rbp)
  4078d6:	48 8b 5b 08          	mov    0x8(%rbx),%rbx
  4078da:	48 85 db             	test   %rbx,%rbx
  4078dd:	75 f1                	jne    4078d0 <__sprintf_chk@plt+0x53d0>
  4078df:	48 8b 45 08          	mov    0x8(%rbp),%rax
  4078e3:	49 83 c4 10          	add    $0x10,%r12
  4078e7:	4c 39 e0             	cmp    %r12,%rax
  4078ea:	77 d4                	ja     4078c0 <__sprintf_chk@plt+0x53c0>
  4078ec:	e9 58 ff ff ff       	jmpq   407849 <__sprintf_chk@plt+0x5349>
  4078f1:	66 66 66 66 66 66 2e 	data32 data32 data32 data32 data32 nopw %cs:0x0(%rax,%rax,1)
  4078f8:	0f 1f 84 00 00 00 00 
  4078ff:	00 
  407900:	41 54                	push   %r12
  407902:	55                   	push   %rbp
  407903:	53                   	push   %rbx
  407904:	48 89 fb             	mov    %rdi,%rbx
  407907:	48 83 ec 50          	sub    $0x50,%rsp
  40790b:	48 8b 6f 28          	mov    0x28(%rdi),%rbp
  40790f:	80 7d 10 00          	cmpb   $0x0,0x10(%rbp)
  407913:	f3 0f 10 4d 08       	movss  0x8(%rbp),%xmm1
  407918:	75 46                	jne    407960 <__sprintf_chk@plt+0x5460>
  40791a:	48 85 f6             	test   %rsi,%rsi
  40791d:	0f 88 9d 01 00 00    	js     407ac0 <__sprintf_chk@plt+0x55c0>
  407923:	f3 48 0f 2a c6       	cvtsi2ss %rsi,%xmm0
  407928:	f3 0f 5e c1          	divss  %xmm1,%xmm0
  40792c:	0f 2e 05 b5 dd 00 00 	ucomiss 0xddb5(%rip),%xmm0        # 4156e8 <fts_children+0x5d28>
  407933:	0f 83 27 01 00 00    	jae    407a60 <__sprintf_chk@plt+0x5560>
  407939:	0f 2e 05 ac dd 00 00 	ucomiss 0xddac(%rip),%xmm0        # 4156ec <fts_children+0x5d2c>
  407940:	0f 82 2a 01 00 00    	jb     407a70 <__sprintf_chk@plt+0x5570>
  407946:	f3 0f 5c 05 9e dd 00 	subss  0xdd9e(%rip),%xmm0        # 4156ec <fts_children+0x5d2c>
  40794d:	00 
  40794e:	48 b8 00 00 00 00 00 	movabs $0x8000000000000000,%rax
  407955:	00 00 80 
  407958:	f3 48 0f 2c f0       	cvttss2si %xmm0,%rsi
  40795d:	48 31 c6             	xor    %rax,%rsi
  407960:	48 89 f7             	mov    %rsi,%rdi
  407963:	e8 48 f4 ff ff       	callq  406db0 <__sprintf_chk@plt+0x48b0>
  407968:	48 8d 50 ff          	lea    -0x1(%rax),%rdx
  40796c:	49 89 c4             	mov    %rax,%r12
  40796f:	48 b8 fe ff ff ff ff 	movabs $0x1ffffffffffffffe,%rax
  407976:	ff ff 1f 
  407979:	48 39 c2             	cmp    %rax,%rdx
  40797c:	0f 87 de 00 00 00    	ja     407a60 <__sprintf_chk@plt+0x5560>
  407982:	4c 39 63 10          	cmp    %r12,0x10(%rbx)
  407986:	0f 84 c4 00 00 00    	je     407a50 <__sprintf_chk@plt+0x5550>
  40798c:	be 10 00 00 00       	mov    $0x10,%esi
  407991:	4c 89 e7             	mov    %r12,%rdi
  407994:	e8 27 a8 ff ff       	callq  4021c0 <calloc@plt>
  407999:	48 85 c0             	test   %rax,%rax
  40799c:	48 89 04 24          	mov    %rax,(%rsp)
  4079a0:	0f 84 ba 00 00 00    	je     407a60 <__sprintf_chk@plt+0x5560>
  4079a6:	4c 89 64 24 10       	mov    %r12,0x10(%rsp)
  4079ab:	49 c1 e4 04          	shl    $0x4,%r12
  4079af:	31 d2                	xor    %edx,%edx
  4079b1:	4c 01 e0             	add    %r12,%rax
  4079b4:	48 89 de             	mov    %rbx,%rsi
  4079b7:	48 89 e7             	mov    %rsp,%rdi
  4079ba:	48 89 44 24 08       	mov    %rax,0x8(%rsp)
  4079bf:	48 8b 43 30          	mov    0x30(%rbx),%rax
  4079c3:	48 89 6c 24 28       	mov    %rbp,0x28(%rsp)
  4079c8:	48 c7 44 24 18 00 00 	movq   $0x0,0x18(%rsp)
  4079cf:	00 00 
  4079d1:	48 c7 44 24 20 00 00 	movq   $0x0,0x20(%rsp)
  4079d8:	00 00 
  4079da:	48 89 44 24 30       	mov    %rax,0x30(%rsp)
  4079df:	48 8b 43 38          	mov    0x38(%rbx),%rax
  4079e3:	48 89 44 24 38       	mov    %rax,0x38(%rsp)
  4079e8:	48 8b 43 40          	mov    0x40(%rbx),%rax
  4079ec:	48 89 44 24 40       	mov    %rax,0x40(%rsp)
  4079f1:	48 8b 43 48          	mov    0x48(%rbx),%rax
  4079f5:	48 89 44 24 48       	mov    %rax,0x48(%rsp)
  4079fa:	e8 31 f6 ff ff       	callq  407030 <__sprintf_chk@plt+0x4b30>
  4079ff:	84 c0                	test   %al,%al
  407a01:	89 c5                	mov    %eax,%ebp
  407a03:	75 7b                	jne    407a80 <__sprintf_chk@plt+0x5580>
  407a05:	48 8b 44 24 48       	mov    0x48(%rsp),%rax
  407a0a:	ba 01 00 00 00       	mov    $0x1,%edx
  407a0f:	48 89 e6             	mov    %rsp,%rsi
  407a12:	48 89 df             	mov    %rbx,%rdi
  407a15:	48 89 43 48          	mov    %rax,0x48(%rbx)
  407a19:	e8 12 f6 ff ff       	callq  407030 <__sprintf_chk@plt+0x4b30>
  407a1e:	84 c0                	test   %al,%al
  407a20:	0f 84 b4 00 00 00    	je     407ada <__sprintf_chk@plt+0x55da>
  407a26:	31 d2                	xor    %edx,%edx
  407a28:	48 89 e6             	mov    %rsp,%rsi
  407a2b:	48 89 df             	mov    %rbx,%rdi
  407a2e:	e8 fd f5 ff ff       	callq  407030 <__sprintf_chk@plt+0x4b30>
  407a33:	84 c0                	test   %al,%al
  407a35:	0f 84 9f 00 00 00    	je     407ada <__sprintf_chk@plt+0x55da>
  407a3b:	48 8b 3c 24          	mov    (%rsp),%rdi
  407a3f:	e8 8c a4 ff ff       	callq  401ed0 <free@plt>
  407a44:	48 83 c4 50          	add    $0x50,%rsp
  407a48:	89 e8                	mov    %ebp,%eax
  407a4a:	5b                   	pop    %rbx
  407a4b:	5d                   	pop    %rbp
  407a4c:	41 5c                	pop    %r12
  407a4e:	c3                   	retq   
  407a4f:	90                   	nop
  407a50:	48 83 c4 50          	add    $0x50,%rsp
  407a54:	bd 01 00 00 00       	mov    $0x1,%ebp
  407a59:	5b                   	pop    %rbx
  407a5a:	89 e8                	mov    %ebp,%eax
  407a5c:	5d                   	pop    %rbp
  407a5d:	41 5c                	pop    %r12
  407a5f:	c3                   	retq   
  407a60:	48 83 c4 50          	add    $0x50,%rsp
  407a64:	31 ed                	xor    %ebp,%ebp
  407a66:	5b                   	pop    %rbx
  407a67:	89 e8                	mov    %ebp,%eax
  407a69:	5d                   	pop    %rbp
  407a6a:	41 5c                	pop    %r12
  407a6c:	c3                   	retq   
  407a6d:	0f 1f 00             	nopl   (%rax)
  407a70:	f3 48 0f 2c f0       	cvttss2si %xmm0,%rsi
  407a75:	e9 e6 fe ff ff       	jmpq   407960 <__sprintf_chk@plt+0x5460>
  407a7a:	66 0f 1f 44 00 00    	nopw   0x0(%rax,%rax,1)
  407a80:	48 8b 3b             	mov    (%rbx),%rdi
  407a83:	e8 48 a4 ff ff       	callq  401ed0 <free@plt>
  407a88:	48 8b 04 24          	mov    (%rsp),%rax
  407a8c:	48 89 03             	mov    %rax,(%rbx)
  407a8f:	48 8b 44 24 08       	mov    0x8(%rsp),%rax
  407a94:	48 89 43 08          	mov    %rax,0x8(%rbx)
  407a98:	48 8b 44 24 10       	mov    0x10(%rsp),%rax
  407a9d:	48 89 43 10          	mov    %rax,0x10(%rbx)
  407aa1:	48 8b 44 24 18       	mov    0x18(%rsp),%rax
  407aa6:	48 89 43 18          	mov    %rax,0x18(%rbx)
  407aaa:	48 8b 44 24 48       	mov    0x48(%rsp),%rax
  407aaf:	48 89 43 48          	mov    %rax,0x48(%rbx)
  407ab3:	48 83 c4 50          	add    $0x50,%rsp
  407ab7:	89 e8                	mov    %ebp,%eax
  407ab9:	5b                   	pop    %rbx
  407aba:	5d                   	pop    %rbp
  407abb:	41 5c                	pop    %r12
  407abd:	c3                   	retq   
  407abe:	66 90                	xchg   %ax,%ax
  407ac0:	48 89 f0             	mov    %rsi,%rax
  407ac3:	83 e6 01             	and    $0x1,%esi
  407ac6:	48 d1 e8             	shr    %rax
  407ac9:	48 09 f0             	or     %rsi,%rax
  407acc:	f3 48 0f 2a c0       	cvtsi2ss %rax,%xmm0
  407ad1:	f3 0f 58 c0          	addss  %xmm0,%xmm0
  407ad5:	e9 4e fe ff ff       	jmpq   407928 <__sprintf_chk@plt+0x5428>
  407ada:	e8 21 a4 ff ff       	callq  401f00 <abort@plt>
  407adf:	90                   	nop
  407ae0:	41 54                	push   %r12
  407ae2:	55                   	push   %rbp
  407ae3:	48 89 f5             	mov    %rsi,%rbp
  407ae6:	53                   	push   %rbx
  407ae7:	48 83 ec 10          	sub    $0x10,%rsp
  407aeb:	48 85 f6             	test   %rsi,%rsi
  407aee:	0f 84 63 01 00 00    	je     407c57 <__sprintf_chk@plt+0x5757>
  407af4:	49 89 d4             	mov    %rdx,%r12
  407af7:	48 8d 54 24 08       	lea    0x8(%rsp),%rdx
  407afc:	31 c9                	xor    %ecx,%ecx
  407afe:	48 89 fb             	mov    %rdi,%rbx
  407b01:	e8 9a f3 ff ff       	callq  406ea0 <__sprintf_chk@plt+0x49a0>
  407b06:	48 85 c0             	test   %rax,%rax
  407b09:	74 1d                	je     407b28 <__sprintf_chk@plt+0x5628>
  407b0b:	4d 85 e4             	test   %r12,%r12
  407b0e:	0f 84 94 00 00 00    	je     407ba8 <__sprintf_chk@plt+0x56a8>
  407b14:	49 89 04 24          	mov    %rax,(%r12)
  407b18:	31 c0                	xor    %eax,%eax
  407b1a:	48 83 c4 10          	add    $0x10,%rsp
  407b1e:	5b                   	pop    %rbx
  407b1f:	5d                   	pop    %rbp
  407b20:	41 5c                	pop    %r12
  407b22:	c3                   	retq   
  407b23:	0f 1f 44 00 00       	nopl   0x0(%rax,%rax,1)
  407b28:	48 8b 43 18          	mov    0x18(%rbx),%rax
  407b2c:	48 85 c0             	test   %rax,%rax
  407b2f:	0f 88 2b 01 00 00    	js     407c60 <__sprintf_chk@plt+0x5760>
  407b35:	f3 48 0f 2a c0       	cvtsi2ss %rax,%xmm0
  407b3a:	48 8b 43 10          	mov    0x10(%rbx),%rax
  407b3e:	48 8b 53 28          	mov    0x28(%rbx),%rdx
  407b42:	48 85 c0             	test   %rax,%rax
  407b45:	0f 88 35 01 00 00    	js     407c80 <__sprintf_chk@plt+0x5780>
  407b4b:	f3 48 0f 2a c8       	cvtsi2ss %rax,%xmm1
  407b50:	f3 0f 59 4a 08       	mulss  0x8(%rdx),%xmm1
  407b55:	0f 2e c1             	ucomiss %xmm1,%xmm0
  407b58:	77 5e                	ja     407bb8 <__sprintf_chk@plt+0x56b8>
  407b5a:	4c 8b 64 24 08       	mov    0x8(%rsp),%r12
  407b5f:	49 83 3c 24 00       	cmpq   $0x0,(%r12)
  407b64:	0f 84 36 01 00 00    	je     407ca0 <__sprintf_chk@plt+0x57a0>
  407b6a:	48 8b 43 48          	mov    0x48(%rbx),%rax
  407b6e:	48 85 c0             	test   %rax,%rax
  407b71:	0f 84 94 01 00 00    	je     407d0b <__sprintf_chk@plt+0x580b>
  407b77:	48 8b 50 08          	mov    0x8(%rax),%rdx
  407b7b:	48 89 53 48          	mov    %rdx,0x48(%rbx)
  407b7f:	49 8b 54 24 08       	mov    0x8(%r12),%rdx
  407b84:	48 89 28             	mov    %rbp,(%rax)
  407b87:	48 89 50 08          	mov    %rdx,0x8(%rax)
  407b8b:	49 89 44 24 08       	mov    %rax,0x8(%r12)
  407b90:	b8 01 00 00 00       	mov    $0x1,%eax
  407b95:	48 83 43 20 01       	addq   $0x1,0x20(%rbx)
  407b9a:	48 83 c4 10          	add    $0x10,%rsp
  407b9e:	5b                   	pop    %rbx
  407b9f:	5d                   	pop    %rbp
  407ba0:	41 5c                	pop    %r12
  407ba2:	c3                   	retq   
  407ba3:	0f 1f 44 00 00       	nopl   0x0(%rax,%rax,1)
  407ba8:	48 83 c4 10          	add    $0x10,%rsp
  407bac:	31 c0                	xor    %eax,%eax
  407bae:	5b                   	pop    %rbx
  407baf:	5d                   	pop    %rbp
  407bb0:	41 5c                	pop    %r12
  407bb2:	c3                   	retq   
  407bb3:	0f 1f 44 00 00       	nopl   0x0(%rax,%rax,1)
  407bb8:	48 8d 7b 28          	lea    0x28(%rbx),%rdi
  407bbc:	e8 df f3 ff ff       	callq  406fa0 <__sprintf_chk@plt+0x4aa0>
  407bc1:	48 8b 43 10          	mov    0x10(%rbx),%rax
  407bc5:	48 8b 53 28          	mov    0x28(%rbx),%rdx
  407bc9:	48 85 c0             	test   %rax,%rax
  407bcc:	f3 0f 10 52 08       	movss  0x8(%rdx),%xmm2
  407bd1:	0f 88 00 01 00 00    	js     407cd7 <__sprintf_chk@plt+0x57d7>
  407bd7:	f3 48 0f 2a c0       	cvtsi2ss %rax,%xmm0
  407bdc:	48 8b 43 18          	mov    0x18(%rbx),%rax
  407be0:	48 85 c0             	test   %rax,%rax
  407be3:	0f 88 08 01 00 00    	js     407cf1 <__sprintf_chk@plt+0x57f1>
  407be9:	f3 48 0f 2a c8       	cvtsi2ss %rax,%xmm1
  407bee:	0f 28 da             	movaps %xmm2,%xmm3
  407bf1:	f3 0f 59 d8          	mulss  %xmm0,%xmm3
  407bf5:	0f 2e cb             	ucomiss %xmm3,%xmm1
  407bf8:	0f 86 5c ff ff ff    	jbe    407b5a <__sprintf_chk@plt+0x565a>
  407bfe:	80 7a 10 00          	cmpb   $0x0,0x10(%rdx)
  407c02:	f3 0f 59 42 0c       	mulss  0xc(%rdx),%xmm0
  407c07:	75 04                	jne    407c0d <__sprintf_chk@plt+0x570d>
  407c09:	f3 0f 59 c2          	mulss  %xmm2,%xmm0
  407c0d:	0f 2e 05 d4 da 00 00 	ucomiss 0xdad4(%rip),%xmm0        # 4156e8 <fts_children+0x5d28>
  407c14:	0f 83 04 01 00 00    	jae    407d1e <__sprintf_chk@plt+0x581e>
  407c1a:	0f 2e 05 cb da 00 00 	ucomiss 0xdacb(%rip),%xmm0        # 4156ec <fts_children+0x5d2c>
  407c21:	0f 83 91 00 00 00    	jae    407cb8 <__sprintf_chk@plt+0x57b8>
  407c27:	f3 48 0f 2c f0       	cvttss2si %xmm0,%rsi
  407c2c:	48 89 df             	mov    %rbx,%rdi
  407c2f:	e8 cc fc ff ff       	callq  407900 <__sprintf_chk@plt+0x5400>
  407c34:	84 c0                	test   %al,%al
  407c36:	0f 84 e2 00 00 00    	je     407d1e <__sprintf_chk@plt+0x581e>
  407c3c:	48 8d 54 24 08       	lea    0x8(%rsp),%rdx
  407c41:	31 c9                	xor    %ecx,%ecx
  407c43:	48 89 ee             	mov    %rbp,%rsi
  407c46:	48 89 df             	mov    %rbx,%rdi
  407c49:	e8 52 f2 ff ff       	callq  406ea0 <__sprintf_chk@plt+0x49a0>
  407c4e:	48 85 c0             	test   %rax,%rax
  407c51:	0f 84 03 ff ff ff    	je     407b5a <__sprintf_chk@plt+0x565a>
  407c57:	e8 a4 a2 ff ff       	callq  401f00 <abort@plt>
  407c5c:	0f 1f 40 00          	nopl   0x0(%rax)
  407c60:	48 89 c2             	mov    %rax,%rdx
  407c63:	83 e0 01             	and    $0x1,%eax
  407c66:	48 d1 ea             	shr    %rdx
  407c69:	48 09 c2             	or     %rax,%rdx
  407c6c:	f3 48 0f 2a c2       	cvtsi2ss %rdx,%xmm0
  407c71:	f3 0f 58 c0          	addss  %xmm0,%xmm0
  407c75:	e9 c0 fe ff ff       	jmpq   407b3a <__sprintf_chk@plt+0x563a>
  407c7a:	66 0f 1f 44 00 00    	nopw   0x0(%rax,%rax,1)
  407c80:	48 89 c1             	mov    %rax,%rcx
  407c83:	83 e0 01             	and    $0x1,%eax
  407c86:	48 d1 e9             	shr    %rcx
  407c89:	48 09 c1             	or     %rax,%rcx
  407c8c:	f3 48 0f 2a c9       	cvtsi2ss %rcx,%xmm1
  407c91:	f3 0f 58 c9          	addss  %xmm1,%xmm1
  407c95:	e9 b6 fe ff ff       	jmpq   407b50 <__sprintf_chk@plt+0x5650>
  407c9a:	66 0f 1f 44 00 00    	nopw   0x0(%rax,%rax,1)
  407ca0:	49 89 2c 24          	mov    %rbp,(%r12)
  407ca4:	b8 01 00 00 00       	mov    $0x1,%eax
  407ca9:	48 83 43 20 01       	addq   $0x1,0x20(%rbx)
  407cae:	48 83 43 18 01       	addq   $0x1,0x18(%rbx)
  407cb3:	e9 62 fe ff ff       	jmpq   407b1a <__sprintf_chk@plt+0x561a>
  407cb8:	f3 0f 5c 05 2c da 00 	subss  0xda2c(%rip),%xmm0        # 4156ec <fts_children+0x5d2c>
  407cbf:	00 
  407cc0:	48 b8 00 00 00 00 00 	movabs $0x8000000000000000,%rax
  407cc7:	00 00 80 
  407cca:	f3 48 0f 2c f0       	cvttss2si %xmm0,%rsi
  407ccf:	48 31 c6             	xor    %rax,%rsi
  407cd2:	e9 55 ff ff ff       	jmpq   407c2c <__sprintf_chk@plt+0x572c>
  407cd7:	48 89 c1             	mov    %rax,%rcx
  407cda:	83 e0 01             	and    $0x1,%eax
  407cdd:	48 d1 e9             	shr    %rcx
  407ce0:	48 09 c1             	or     %rax,%rcx
  407ce3:	f3 48 0f 2a c1       	cvtsi2ss %rcx,%xmm0
  407ce8:	f3 0f 58 c0          	addss  %xmm0,%xmm0
  407cec:	e9 eb fe ff ff       	jmpq   407bdc <__sprintf_chk@plt+0x56dc>
  407cf1:	48 89 c1             	mov    %rax,%rcx
  407cf4:	83 e0 01             	and    $0x1,%eax
  407cf7:	48 d1 e9             	shr    %rcx
  407cfa:	48 09 c1             	or     %rax,%rcx
  407cfd:	f3 48 0f 2a c9       	cvtsi2ss %rcx,%xmm1
  407d02:	f3 0f 58 c9          	addss  %xmm1,%xmm1
  407d06:	e9 e3 fe ff ff       	jmpq   407bee <__sprintf_chk@plt+0x56ee>
  407d0b:	bf 10 00 00 00       	mov    $0x10,%edi
  407d10:	e8 7b a5 ff ff       	callq  402290 <malloc@plt>
  407d15:	48 85 c0             	test   %rax,%rax
  407d18:	0f 85 61 fe ff ff    	jne    407b7f <__sprintf_chk@plt+0x567f>
  407d1e:	b8 ff ff ff ff       	mov    $0xffffffff,%eax
  407d23:	e9 f2 fd ff ff       	jmpq   407b1a <__sprintf_chk@plt+0x561a>
  407d28:	0f 1f 84 00 00 00 00 	nopl   0x0(%rax,%rax,1)
  407d2f:	00 
  407d30:	e9 ab fd ff ff       	jmpq   407ae0 <__sprintf_chk@plt+0x55e0>
  407d35:	66 66 2e 0f 1f 84 00 	data32 nopw %cs:0x0(%rax,%rax,1)
  407d3c:	00 00 00 00 
  407d40:	53                   	push   %rbx
  407d41:	48 89 f3             	mov    %rsi,%rbx
  407d44:	48 83 ec 10          	sub    $0x10,%rsp
  407d48:	48 8d 54 24 08       	lea    0x8(%rsp),%rdx
  407d4d:	e8 8e fd ff ff       	callq  407ae0 <__sprintf_chk@plt+0x55e0>
  407d52:	83 f8 ff             	cmp    $0xffffffff,%eax
  407d55:	74 19                	je     407d70 <__sprintf_chk@plt+0x5870>
  407d57:	85 c0                	test   %eax,%eax
  407d59:	48 89 d8             	mov    %rbx,%rax
  407d5c:	48 0f 44 44 24 08    	cmove  0x8(%rsp),%rax
  407d62:	48 83 c4 10          	add    $0x10,%rsp
  407d66:	5b                   	pop    %rbx
  407d67:	c3                   	retq   
  407d68:	0f 1f 84 00 00 00 00 	nopl   0x0(%rax,%rax,1)
  407d6f:	00 
  407d70:	31 c0                	xor    %eax,%eax
  407d72:	eb ee                	jmp    407d62 <__sprintf_chk@plt+0x5862>
  407d74:	66 66 66 2e 0f 1f 84 	data32 data32 nopw %cs:0x0(%rax,%rax,1)
  407d7b:	00 00 00 00 00 
  407d80:	41 54                	push   %r12
  407d82:	b9 01 00 00 00       	mov    $0x1,%ecx
  407d87:	55                   	push   %rbp
  407d88:	53                   	push   %rbx
  407d89:	48 89 fb             	mov    %rdi,%rbx
  407d8c:	48 83 ec 10          	sub    $0x10,%rsp
  407d90:	48 8d 54 24 08       	lea    0x8(%rsp),%rdx
  407d95:	e8 06 f1 ff ff       	callq  406ea0 <__sprintf_chk@plt+0x49a0>
  407d9a:	48 85 c0             	test   %rax,%rax
  407d9d:	48 89 c5             	mov    %rax,%rbp
  407da0:	0f 84 52 01 00 00    	je     407ef8 <__sprintf_chk@plt+0x59f8>
  407da6:	48 8b 54 24 08       	mov    0x8(%rsp),%rdx
  407dab:	48 83 6b 20 01       	subq   $0x1,0x20(%rbx)
  407db0:	48 83 3a 00          	cmpq   $0x0,(%rdx)
  407db4:	74 0a                	je     407dc0 <__sprintf_chk@plt+0x58c0>
  407db6:	48 83 c4 10          	add    $0x10,%rsp
  407dba:	5b                   	pop    %rbx
  407dbb:	5d                   	pop    %rbp
  407dbc:	41 5c                	pop    %r12
  407dbe:	c3                   	retq   
  407dbf:	90                   	nop
  407dc0:	48 8b 43 18          	mov    0x18(%rbx),%rax
  407dc4:	48 83 e8 01          	sub    $0x1,%rax
  407dc8:	48 85 c0             	test   %rax,%rax
  407dcb:	48 89 43 18          	mov    %rax,0x18(%rbx)
  407dcf:	0f 88 03 01 00 00    	js     407ed8 <__sprintf_chk@plt+0x59d8>
  407dd5:	f3 48 0f 2a c0       	cvtsi2ss %rax,%xmm0
  407dda:	48 8b 43 10          	mov    0x10(%rbx),%rax
  407dde:	48 8b 53 28          	mov    0x28(%rbx),%rdx
  407de2:	48 85 c0             	test   %rax,%rax
  407de5:	0f 88 cd 00 00 00    	js     407eb8 <__sprintf_chk@plt+0x59b8>
  407deb:	f3 48 0f 2a c8       	cvtsi2ss %rax,%xmm1
  407df0:	f3 0f 59 0a          	mulss  (%rdx),%xmm1
  407df4:	0f 2e c8             	ucomiss %xmm0,%xmm1
  407df7:	77 0f                	ja     407e08 <__sprintf_chk@plt+0x5908>
  407df9:	48 83 c4 10          	add    $0x10,%rsp
  407dfd:	48 89 e8             	mov    %rbp,%rax
  407e00:	5b                   	pop    %rbx
  407e01:	5d                   	pop    %rbp
  407e02:	41 5c                	pop    %r12
  407e04:	c3                   	retq   
  407e05:	0f 1f 00             	nopl   (%rax)
  407e08:	48 8d 7b 28          	lea    0x28(%rbx),%rdi
  407e0c:	e8 8f f1 ff ff       	callq  406fa0 <__sprintf_chk@plt+0x4aa0>
  407e11:	48 8b 53 10          	mov    0x10(%rbx),%rdx
  407e15:	48 8b 43 28          	mov    0x28(%rbx),%rax
  407e19:	48 85 d2             	test   %rdx,%rdx
  407e1c:	0f 88 fd 00 00 00    	js     407f1f <__sprintf_chk@plt+0x5a1f>
  407e22:	f3 48 0f 2a c2       	cvtsi2ss %rdx,%xmm0
  407e27:	48 8b 53 18          	mov    0x18(%rbx),%rdx
  407e2b:	48 85 d2             	test   %rdx,%rdx
  407e2e:	0f 88 05 01 00 00    	js     407f39 <__sprintf_chk@plt+0x5a39>
  407e34:	f3 48 0f 2a ca       	cvtsi2ss %rdx,%xmm1
  407e39:	f3 0f 10 10          	movss  (%rax),%xmm2
  407e3d:	f3 0f 59 d0          	mulss  %xmm0,%xmm2
  407e41:	0f 2e d1             	ucomiss %xmm1,%xmm2
  407e44:	76 b3                	jbe    407df9 <__sprintf_chk@plt+0x58f9>
  407e46:	80 78 10 00          	cmpb   $0x0,0x10(%rax)
  407e4a:	f3 0f 59 40 04       	mulss  0x4(%rax),%xmm0
  407e4f:	75 05                	jne    407e56 <__sprintf_chk@plt+0x5956>
  407e51:	f3 0f 59 40 08       	mulss  0x8(%rax),%xmm0
  407e56:	0f 2e 05 8f d8 00 00 	ucomiss 0xd88f(%rip),%xmm0        # 4156ec <fts_children+0x5d2c>
  407e5d:	0f 83 9d 00 00 00    	jae    407f00 <__sprintf_chk@plt+0x5a00>
  407e63:	f3 48 0f 2c f0       	cvttss2si %xmm0,%rsi
  407e68:	48 89 df             	mov    %rbx,%rdi
  407e6b:	e8 90 fa ff ff       	callq  407900 <__sprintf_chk@plt+0x5400>
  407e70:	89 c2                	mov    %eax,%edx
  407e72:	48 89 e8             	mov    %rbp,%rax
  407e75:	84 d2                	test   %dl,%dl
  407e77:	0f 85 39 ff ff ff    	jne    407db6 <__sprintf_chk@plt+0x58b6>
  407e7d:	48 8b 7b 48          	mov    0x48(%rbx),%rdi
  407e81:	48 85 ff             	test   %rdi,%rdi
  407e84:	75 0d                	jne    407e93 <__sprintf_chk@plt+0x5993>
  407e86:	eb 19                	jmp    407ea1 <__sprintf_chk@plt+0x59a1>
  407e88:	0f 1f 84 00 00 00 00 	nopl   0x0(%rax,%rax,1)
  407e8f:	00 
  407e90:	4c 89 e7             	mov    %r12,%rdi
  407e93:	4c 8b 67 08          	mov    0x8(%rdi),%r12
  407e97:	e8 34 a0 ff ff       	callq  401ed0 <free@plt>
  407e9c:	4d 85 e4             	test   %r12,%r12
  407e9f:	75 ef                	jne    407e90 <__sprintf_chk@plt+0x5990>
  407ea1:	48 c7 43 48 00 00 00 	movq   $0x0,0x48(%rbx)
  407ea8:	00 
  407ea9:	48 89 e8             	mov    %rbp,%rax
  407eac:	e9 05 ff ff ff       	jmpq   407db6 <__sprintf_chk@plt+0x58b6>
  407eb1:	0f 1f 80 00 00 00 00 	nopl   0x0(%rax)
  407eb8:	48 89 c1             	mov    %rax,%rcx
  407ebb:	83 e0 01             	and    $0x1,%eax
  407ebe:	48 d1 e9             	shr    %rcx
  407ec1:	48 09 c1             	or     %rax,%rcx
  407ec4:	f3 48 0f 2a c9       	cvtsi2ss %rcx,%xmm1
  407ec9:	f3 0f 58 c9          	addss  %xmm1,%xmm1
  407ecd:	e9 1e ff ff ff       	jmpq   407df0 <__sprintf_chk@plt+0x58f0>
  407ed2:	66 0f 1f 44 00 00    	nopw   0x0(%rax,%rax,1)
  407ed8:	48 89 c2             	mov    %rax,%rdx
  407edb:	83 e0 01             	and    $0x1,%eax
  407ede:	48 d1 ea             	shr    %rdx
  407ee1:	48 09 c2             	or     %rax,%rdx
  407ee4:	f3 48 0f 2a c2       	cvtsi2ss %rdx,%xmm0
  407ee9:	f3 0f 58 c0          	addss  %xmm0,%xmm0
  407eed:	e9 e8 fe ff ff       	jmpq   407dda <__sprintf_chk@plt+0x58da>
  407ef2:	66 0f 1f 44 00 00    	nopw   0x0(%rax,%rax,1)
  407ef8:	31 c0                	xor    %eax,%eax
  407efa:	e9 b7 fe ff ff       	jmpq   407db6 <__sprintf_chk@plt+0x58b6>
  407eff:	90                   	nop
  407f00:	f3 0f 5c 05 e4 d7 00 	subss  0xd7e4(%rip),%xmm0        # 4156ec <fts_children+0x5d2c>
  407f07:	00 
  407f08:	48 b8 00 00 00 00 00 	movabs $0x8000000000000000,%rax
  407f0f:	00 00 80 
  407f12:	f3 48 0f 2c f0       	cvttss2si %xmm0,%rsi
  407f17:	48 31 c6             	xor    %rax,%rsi
  407f1a:	e9 49 ff ff ff       	jmpq   407e68 <__sprintf_chk@plt+0x5968>
  407f1f:	48 89 d1             	mov    %rdx,%rcx
  407f22:	83 e2 01             	and    $0x1,%edx
  407f25:	48 d1 e9             	shr    %rcx
  407f28:	48 09 d1             	or     %rdx,%rcx
  407f2b:	f3 48 0f 2a c1       	cvtsi2ss %rcx,%xmm0
  407f30:	f3 0f 58 c0          	addss  %xmm0,%xmm0
  407f34:	e9 ee fe ff ff       	jmpq   407e27 <__sprintf_chk@plt+0x5927>
  407f39:	48 89 d1             	mov    %rdx,%rcx
  407f3c:	83 e2 01             	and    $0x1,%edx
  407f3f:	48 d1 e9             	shr    %rcx
  407f42:	48 09 d1             	or     %rdx,%rcx
  407f45:	f3 48 0f 2a c9       	cvtsi2ss %rcx,%xmm1
  407f4a:	f3 0f 58 c9          	addss  %xmm1,%xmm1
  407f4e:	e9 e6 fe ff ff       	jmpq   407e39 <__sprintf_chk@plt+0x5939>
  407f53:	66 2e 0f 1f 84 00 00 	nopw   %cs:0x0(%rax,%rax,1)
  407f5a:	00 00 00 
  407f5d:	0f 1f 00             	nopl   (%rax)
  407f60:	41 57                	push   %r15
  407f62:	89 d0                	mov    %edx,%eax
  407f64:	83 e0 03             	and    $0x3,%eax
  407f67:	41 56                	push   %r14
  407f69:	49 89 f6             	mov    %rsi,%r14
  407f6c:	41 55                	push   %r13
  407f6e:	41 54                	push   %r12
  407f70:	49 89 fc             	mov    %rdi,%r12
  407f73:	55                   	push   %rbp
  407f74:	53                   	push   %rbx
  407f75:	48 89 cb             	mov    %rcx,%rbx
  407f78:	48 81 ec b8 00 00 00 	sub    $0xb8,%rsp
  407f7f:	89 44 24 38          	mov    %eax,0x38(%rsp)
  407f83:	89 d0                	mov    %edx,%eax
  407f85:	48 89 74 24 30       	mov    %rsi,0x30(%rsp)
  407f8a:	83 e0 20             	and    $0x20,%eax
  407f8d:	89 54 24 20          	mov    %edx,0x20(%rsp)
  407f91:	4c 89 44 24 28       	mov    %r8,0x28(%rsp)
  407f96:	64 48 8b 0c 25 28 00 	mov    %fs:0x28,%rcx
  407f9d:	00 00 
  407f9f:	48 89 8c 24 a8 00 00 	mov    %rcx,0xa8(%rsp)
  407fa6:	00 
  407fa7:	31 c9                	xor    %ecx,%ecx
  407fa9:	83 f8 01             	cmp    $0x1,%eax
  407fac:	89 44 24 58          	mov    %eax,0x58(%rsp)
  407fb0:	19 c0                	sbb    %eax,%eax
  407fb2:	89 44 24 24          	mov    %eax,0x24(%rsp)
  407fb6:	83 64 24 24 e8       	andl   $0xffffffe8,0x24(%rsp)
  407fbb:	81 44 24 24 00 04 00 	addl   $0x400,0x24(%rsp)
  407fc2:	00 
  407fc3:	e8 c8 9f ff ff       	callq  401f90 <localeconv@plt>
  407fc8:	4c 8b 38             	mov    (%rax),%r15
  407fcb:	49 89 c5             	mov    %rax,%r13
  407fce:	4c 89 ff             	mov    %r15,%rdi
  407fd1:	e8 3a a0 ff ff       	callq  402010 <strlen@plt>
  407fd6:	49 8b 6d 10          	mov    0x10(%r13),%rbp
  407fda:	49 89 c3             	mov    %rax,%r11
  407fdd:	4d 8b 6d 08          	mov    0x8(%r13),%r13
  407fe1:	48 8d 40 ff          	lea    -0x1(%rax),%rax
  407fe5:	ba 01 00 00 00       	mov    $0x1,%edx
  407fea:	48 83 f8 10          	cmp    $0x10,%rax
  407fee:	4c 89 ef             	mov    %r13,%rdi
  407ff1:	b8 84 66 41 00       	mov    $0x416684,%eax
  407ff6:	4c 0f 43 da          	cmovae %rdx,%r11
  407ffa:	4c 0f 43 f8          	cmovae %rax,%r15
  407ffe:	4c 89 5c 24 50       	mov    %r11,0x50(%rsp)
  408003:	e8 08 a0 ff ff       	callq  402010 <strlen@plt>
  408008:	48 83 f8 11          	cmp    $0x11,%rax
  40800c:	b8 ab 5d 41 00       	mov    $0x415dab,%eax
  408011:	4c 8b 5c 24 50       	mov    0x50(%rsp),%r11
  408016:	4c 0f 43 e8          	cmovae %rax,%r13
  40801a:	4c 89 f0             	mov    %r14,%rax
  40801d:	48 05 88 02 00 00    	add    $0x288,%rax
  408023:	48 39 5c 24 28       	cmp    %rbx,0x28(%rsp)
  408028:	48 89 44 24 18       	mov    %rax,0x18(%rsp)
  40802d:	0f 87 9d 02 00 00    	ja     4082d0 <__sprintf_chk@plt+0x5dd0>
  408033:	31 d2                	xor    %edx,%edx
  408035:	48 89 d8             	mov    %rbx,%rax
  408038:	48 f7 74 24 28       	divq   0x28(%rsp)
  40803d:	48 85 d2             	test   %rdx,%rdx
  408040:	48 89 c1             	mov    %rax,%rcx
  408043:	0f 84 97 04 00 00    	je     4084e0 <__sprintf_chk@plt+0x5fe0>
  408049:	4c 89 64 24 68       	mov    %r12,0x68(%rsp)
  40804e:	4d 85 e4             	test   %r12,%r12
  408051:	df 6c 24 68          	fildll 0x68(%rsp)
  408055:	0f 88 85 07 00 00    	js     4087e0 <__sprintf_chk@plt+0x62e0>
  40805b:	48 89 5c 24 68       	mov    %rbx,0x68(%rsp)
  408060:	48 85 db             	test   %rbx,%rbx
  408063:	df 6c 24 68          	fildll 0x68(%rsp)
  408067:	0f 88 8b 07 00 00    	js     4087f8 <__sprintf_chk@plt+0x62f8>
  40806d:	48 8b 44 24 28       	mov    0x28(%rsp),%rax
  408072:	48 89 44 24 68       	mov    %rax,0x68(%rsp)
  408077:	48 85 c0             	test   %rax,%rax
  40807a:	df 6c 24 68          	fildll 0x68(%rsp)
  40807e:	0f 88 4c 07 00 00    	js     4087d0 <__sprintf_chk@plt+0x62d0>
  408084:	f6 44 24 20 10       	testb  $0x10,0x20(%rsp)
  408089:	de f9                	fdivrp %st,%st(1)
  40808b:	de c9                	fmulp  %st,%st(1)
  40808d:	0f 84 15 03 00 00    	je     4083a8 <__sprintf_chk@plt+0x5ea8>
  408093:	db 44 24 24          	fildl  0x24(%rsp)
  408097:	31 db                	xor    %ebx,%ebx
  408099:	d9 c0                	fld    %st(0)
  40809b:	eb 07                	jmp    4080a4 <__sprintf_chk@plt+0x5ba4>
  40809d:	0f 1f 00             	nopl   (%rax)
  4080a0:	dd d9                	fstp   %st(1)
  4080a2:	d9 ca                	fxch   %st(2)
  4080a4:	d9 c0                	fld    %st(0)
  4080a6:	83 c3 01             	add    $0x1,%ebx
  4080a9:	d8 ca                	fmul   %st(2),%st
  4080ab:	d9 cb                	fxch   %st(3)
  4080ad:	db eb                	fucomi %st(3),%st
  4080af:	72 0f                	jb     4080c0 <__sprintf_chk@plt+0x5bc0>
  4080b1:	83 fb 08             	cmp    $0x8,%ebx
  4080b4:	75 ea                	jne    4080a0 <__sprintf_chk@plt+0x5ba0>
  4080b6:	dd da                	fstp   %st(2)
  4080b8:	dd da                	fstp   %st(2)
  4080ba:	eb 08                	jmp    4080c4 <__sprintf_chk@plt+0x5bc4>
  4080bc:	0f 1f 40 00          	nopl   0x0(%rax)
  4080c0:	dd da                	fstp   %st(2)
  4080c2:	dd da                	fstp   %st(2)
  4080c4:	de f1                	fdivp  %st,%st(1)
  4080c6:	83 7c 24 38 01       	cmpl   $0x1,0x38(%rsp)
  4080cb:	d9 c0                	fld    %st(0)
  4080cd:	0f 84 8d 00 00 00    	je     408160 <__sprintf_chk@plt+0x5c60>
  4080d3:	dd d8                	fstp   %st(0)
  4080d5:	db 2d 95 d6 00 00    	fldt   0xd695(%rip)        # 415770 <fts_children+0x5db0>
  4080db:	df e9                	fucomip %st(1),%st
  4080dd:	0f 86 a5 05 00 00    	jbe    408688 <__sprintf_chk@plt+0x6188>
  4080e3:	d9 05 03 d6 00 00    	flds   0xd603(%rip)        # 4156ec <fts_children+0x5d2c>
  4080e9:	d9 c9                	fxch   %st(1)
  4080eb:	db e9                	fucomi %st(1),%st
  4080ed:	0f 83 5d 07 00 00    	jae    408850 <__sprintf_chk@plt+0x6350>
  4080f3:	dd d9                	fstp   %st(1)
  4080f5:	d9 7c 24 66          	fnstcw 0x66(%rsp)
  4080f9:	0f b7 44 24 66       	movzwl 0x66(%rsp),%eax
  4080fe:	80 cc 0c             	or     $0xc,%ah
  408101:	66 89 44 24 64       	mov    %ax,0x64(%rsp)
  408106:	d9 c0                	fld    %st(0)
  408108:	d9 6c 24 64          	fldcw  0x64(%rsp)
  40810c:	df 7c 24 68          	fistpll 0x68(%rsp)
  408110:	d9 6c 24 66          	fldcw  0x66(%rsp)
  408114:	48 8b 44 24 68       	mov    0x68(%rsp),%rax
  408119:	8b 4c 24 38          	mov    0x38(%rsp),%ecx
  40811d:	31 d2                	xor    %edx,%edx
  40811f:	85 c9                	test   %ecx,%ecx
  408121:	75 22                	jne    408145 <__sprintf_chk@plt+0x5c45>
  408123:	48 89 44 24 68       	mov    %rax,0x68(%rsp)
  408128:	48 85 c0             	test   %rax,%rax
  40812b:	df 6c 24 68          	fildll 0x68(%rsp)
  40812f:	0f 88 38 08 00 00    	js     40896d <__sprintf_chk@plt+0x646d>
  408135:	31 c9                	xor    %ecx,%ecx
  408137:	ba 01 00 00 00       	mov    $0x1,%edx
  40813c:	df e9                	fucomip %st(1),%st
  40813e:	0f 9a c1             	setp   %cl
  408141:	48 0f 44 d1          	cmove  %rcx,%rdx
  408145:	48 01 d0             	add    %rdx,%rax
  408148:	48 89 44 24 68       	mov    %rax,0x68(%rsp)
  40814d:	48 85 c0             	test   %rax,%rax
  408150:	df 6c 24 68          	fildll 0x68(%rsp)
  408154:	0f 88 ee 07 00 00    	js     408948 <__sprintf_chk@plt+0x6448>
  40815a:	d9 c9                	fxch   %st(1)
  40815c:	eb 04                	jmp    408162 <__sprintf_chk@plt+0x5c62>
  40815e:	66 90                	xchg   %ax,%ax
  408160:	d9 c9                	fxch   %st(1)
  408162:	4c 8b 74 24 30       	mov    0x30(%rsp),%r14
  408167:	48 c7 c2 ff ff ff ff 	mov    $0xffffffffffffffff,%rdx
  40816e:	b9 fe 56 41 00       	mov    $0x4156fe,%ecx
  408173:	be 01 00 00 00       	mov    $0x1,%esi
  408178:	31 c0                	xor    %eax,%eax
  40817a:	4c 89 5c 24 50       	mov    %r11,0x50(%rsp)
  40817f:	4c 89 f7             	mov    %r14,%rdi
  408182:	db 7c 24 40          	fstpt  0x40(%rsp)
  408186:	db 3c 24             	fstpt  (%rsp)
  408189:	e8 72 a3 ff ff       	callq  402500 <__sprintf_chk@plt>
  40818e:	4c 89 f7             	mov    %r14,%rdi
  408191:	e8 7a 9e ff ff       	callq  402010 <strlen@plt>
  408196:	4c 8b 5c 24 50       	mov    0x50(%rsp),%r11
  40819b:	8b 54 24 58          	mov    0x58(%rsp),%edx
  40819f:	49 89 c7             	mov    %rax,%r15
  4081a2:	31 c0                	xor    %eax,%eax
  4081a4:	db 6c 24 40          	fldt   0x40(%rsp)
  4081a8:	85 d2                	test   %edx,%edx
  4081aa:	4d 8d 73 01          	lea    0x1(%r11),%r14
  4081ae:	0f 94 c0             	sete   %al
  4081b1:	49 8d 44 06 01       	lea    0x1(%r14,%rax,1),%rax
  4081b6:	49 39 c7             	cmp    %rax,%r15
  4081b9:	77 25                	ja     4081e0 <__sprintf_chk@plt+0x5ce0>
  4081bb:	f6 44 24 20 08       	testb  $0x8,0x20(%rsp)
  4081c0:	0f 84 32 02 00 00    	je     4083f8 <__sprintf_chk@plt+0x5ef8>
  4081c6:	48 8b 44 24 30       	mov    0x30(%rsp),%rax
  4081cb:	42 80 7c 38 ff 30    	cmpb   $0x30,-0x1(%rax,%r15,1)
  4081d1:	0f 85 29 02 00 00    	jne    408400 <__sprintf_chk@plt+0x5f00>
  4081d7:	66 0f 1f 84 00 00 00 	nopw   0x0(%rax,%rax,1)
  4081de:	00 00 
  4081e0:	83 7c 24 38 01       	cmpl   $0x1,0x38(%rsp)
  4081e5:	d8 0d 79 d5 00 00    	fmuls  0xd579(%rip)        # 415764 <fts_children+0x5da4>
  4081eb:	0f 84 9f 00 00 00    	je     408290 <__sprintf_chk@plt+0x5d90>
  4081f1:	db 2d 79 d5 00 00    	fldt   0xd579(%rip)        # 415770 <fts_children+0x5db0>
  4081f7:	df e9                	fucomip %st(1),%st
  4081f9:	0f 86 91 00 00 00    	jbe    408290 <__sprintf_chk@plt+0x5d90>
  4081ff:	d9 05 e7 d4 00 00    	flds   0xd4e7(%rip)        # 4156ec <fts_children+0x5d2c>
  408205:	d9 c9                	fxch   %st(1)
  408207:	db e9                	fucomi %st(1),%st
  408209:	0f 83 01 07 00 00    	jae    408910 <__sprintf_chk@plt+0x6410>
  40820f:	dd d9                	fstp   %st(1)
  408211:	d9 7c 24 66          	fnstcw 0x66(%rsp)
  408215:	0f b7 44 24 66       	movzwl 0x66(%rsp),%eax
  40821a:	80 cc 0c             	or     $0xc,%ah
  40821d:	66 89 44 24 64       	mov    %ax,0x64(%rsp)
  408222:	d9 c0                	fld    %st(0)
  408224:	d9 6c 24 64          	fldcw  0x64(%rsp)
  408228:	df 7c 24 68          	fistpll 0x68(%rsp)
  40822c:	d9 6c 24 66          	fldcw  0x66(%rsp)
  408230:	48 8b 44 24 68       	mov    0x68(%rsp),%rax
  408235:	44 8b 74 24 38       	mov    0x38(%rsp),%r14d
  40823a:	31 d2                	xor    %edx,%edx
  40823c:	45 85 f6             	test   %r14d,%r14d
  40823f:	75 2f                	jne    408270 <__sprintf_chk@plt+0x5d70>
  408241:	48 89 44 24 68       	mov    %rax,0x68(%rsp)
  408246:	48 85 c0             	test   %rax,%rax
  408249:	df 6c 24 68          	fildll 0x68(%rsp)
  40824d:	0f 88 3b 07 00 00    	js     40898e <__sprintf_chk@plt+0x648e>
  408253:	31 c9                	xor    %ecx,%ecx
  408255:	ba 01 00 00 00       	mov    $0x1,%edx
  40825a:	df e9                	fucomip %st(1),%st
  40825c:	dd d8                	fstp   %st(0)
  40825e:	0f 9a c1             	setp   %cl
  408261:	48 0f 44 d1          	cmove  %rcx,%rdx
  408265:	eb 0b                	jmp    408272 <__sprintf_chk@plt+0x5d72>
  408267:	66 0f 1f 84 00 00 00 	nopw   0x0(%rax,%rax,1)
  40826e:	00 00 
  408270:	dd d8                	fstp   %st(0)
  408272:	48 01 d0             	add    %rdx,%rax
  408275:	48 89 44 24 68       	mov    %rax,0x68(%rsp)
  40827a:	48 85 c0             	test   %rax,%rax
  40827d:	df 6c 24 68          	fildll 0x68(%rsp)
  408281:	79 0d                	jns    408290 <__sprintf_chk@plt+0x5d90>
  408283:	d8 05 5f d4 00 00    	fadds  0xd45f(%rip)        # 4156e8 <fts_children+0x5d28>
  408289:	0f 1f 80 00 00 00 00 	nopl   0x0(%rax)
  408290:	d8 35 ce d4 00 00    	fdivs  0xd4ce(%rip)        # 415764 <fts_children+0x5da4>
  408296:	4c 8b 74 24 30       	mov    0x30(%rsp),%r14
  40829b:	b9 f8 56 41 00       	mov    $0x4156f8,%ecx
  4082a0:	48 c7 c2 ff ff ff ff 	mov    $0xffffffffffffffff,%rdx
  4082a7:	be 01 00 00 00       	mov    $0x1,%esi
  4082ac:	31 c0                	xor    %eax,%eax
  4082ae:	4c 89 f7             	mov    %r14,%rdi
  4082b1:	db 3c 24             	fstpt  (%rsp)
  4082b4:	e8 47 a2 ff ff       	callq  402500 <__sprintf_chk@plt>
  4082b9:	4c 89 f7             	mov    %r14,%rdi
  4082bc:	45 31 f6             	xor    %r14d,%r14d
  4082bf:	e8 4c 9d ff ff       	callq  402010 <strlen@plt>
  4082c4:	49 89 c7             	mov    %rax,%r15
  4082c7:	e9 3c 01 00 00       	jmpq   408408 <__sprintf_chk@plt+0x5f08>
  4082cc:	0f 1f 40 00          	nopl   0x0(%rax)
  4082d0:	48 85 db             	test   %rbx,%rbx
  4082d3:	0f 84 70 fd ff ff    	je     408049 <__sprintf_chk@plt+0x5b49>
  4082d9:	48 8b 44 24 28       	mov    0x28(%rsp),%rax
  4082de:	31 d2                	xor    %edx,%edx
  4082e0:	48 f7 f3             	div    %rbx
  4082e3:	48 85 d2             	test   %rdx,%rdx
  4082e6:	48 89 c6             	mov    %rax,%rsi
  4082e9:	0f 85 5a fd ff ff    	jne    408049 <__sprintf_chk@plt+0x5b49>
  4082ef:	31 d2                	xor    %edx,%edx
  4082f1:	4c 89 e0             	mov    %r12,%rax
  4082f4:	48 f7 f6             	div    %rsi
  4082f7:	48 8d 3c 92          	lea    (%rdx,%rdx,4),%rdi
  4082fb:	49 89 c2             	mov    %rax,%r10
  4082fe:	31 d2                	xor    %edx,%edx
  408300:	48 8d 04 3f          	lea    (%rdi,%rdi,1),%rax
  408304:	48 f7 f6             	div    %rsi
  408307:	48 01 d2             	add    %rdx,%rdx
  40830a:	89 c7                	mov    %eax,%edi
  40830c:	48 39 d6             	cmp    %rdx,%rsi
  40830f:	0f 86 bb 05 00 00    	jbe    4088d0 <__sprintf_chk@plt+0x63d0>
  408315:	31 c9                	xor    %ecx,%ecx
  408317:	48 85 d2             	test   %rdx,%rdx
  40831a:	0f 95 c1             	setne  %cl
  40831d:	44 8b 4c 24 20       	mov    0x20(%rsp),%r9d
  408322:	4c 8b 44 24 18       	mov    0x18(%rsp),%r8
  408327:	bb ff ff ff ff       	mov    $0xffffffff,%ebx
  40832c:	41 83 e1 10          	and    $0x10,%r9d
  408330:	0f 84 ea 03 00 00    	je     408720 <__sprintf_chk@plt+0x6220>
  408336:	8b 74 24 24          	mov    0x24(%rsp),%esi
  40833a:	49 39 f2             	cmp    %rsi,%r10
  40833d:	0f 82 bd 05 00 00    	jb     408900 <__sprintf_chk@plt+0x6400>
  408343:	31 db                	xor    %ebx,%ebx
  408345:	44 8b 64 24 24       	mov    0x24(%rsp),%r12d
  40834a:	eb 21                	jmp    40836d <__sprintf_chk@plt+0x5e6d>
  40834c:	0f 1f 40 00          	nopl   0x0(%rax)
  408350:	85 c9                	test   %ecx,%ecx
  408352:	0f 95 c1             	setne  %cl
  408355:	0f b6 c9             	movzbl %cl,%ecx
  408358:	83 c3 01             	add    $0x1,%ebx
  40835b:	4c 39 c6             	cmp    %r8,%rsi
  40835e:	0f 87 2b 03 00 00    	ja     40868f <__sprintf_chk@plt+0x618f>
  408364:	83 fb 08             	cmp    $0x8,%ebx
  408367:	0f 84 eb 05 00 00    	je     408958 <__sprintf_chk@plt+0x6458>
  40836d:	4c 89 d0             	mov    %r10,%rax
  408370:	31 d2                	xor    %edx,%edx
  408372:	48 f7 f6             	div    %rsi
  408375:	49 89 c0             	mov    %rax,%r8
  408378:	8d 04 92             	lea    (%rdx,%rdx,4),%eax
  40837b:	31 d2                	xor    %edx,%edx
  40837d:	4d 89 c2             	mov    %r8,%r10
  408380:	8d 04 47             	lea    (%rdi,%rax,2),%eax
  408383:	89 cf                	mov    %ecx,%edi
  408385:	d1 ff                	sar    %edi
  408387:	41 f7 f4             	div    %r12d
  40838a:	44 8d 34 57          	lea    (%rdi,%rdx,2),%r14d
  40838e:	89 c7                	mov    %eax,%edi
  408390:	44 01 f1             	add    %r14d,%ecx
  408393:	45 39 f4             	cmp    %r14d,%r12d
  408396:	77 b8                	ja     408350 <__sprintf_chk@plt+0x5e50>
  408398:	41 39 cc             	cmp    %ecx,%r12d
  40839b:	19 c9                	sbb    %ecx,%ecx
  40839d:	f7 d1                	not    %ecx
  40839f:	83 c1 03             	add    $0x3,%ecx
  4083a2:	eb b4                	jmp    408358 <__sprintf_chk@plt+0x5e58>
  4083a4:	0f 1f 40 00          	nopl   0x0(%rax)
  4083a8:	83 7c 24 38 01       	cmpl   $0x1,0x38(%rsp)
  4083ad:	74 0e                	je     4083bd <__sprintf_chk@plt+0x5ebd>
  4083af:	db 2d bb d3 00 00    	fldt   0xd3bb(%rip)        # 415770 <fts_children+0x5db0>
  4083b5:	df e9                	fucomip %st(1),%st
  4083b7:	0f 87 3b 02 00 00    	ja     4085f8 <__sprintf_chk@plt+0x60f8>
  4083bd:	db 3c 24             	fstpt  (%rsp)
  4083c0:	48 8b 5c 24 30       	mov    0x30(%rsp),%rbx
  4083c5:	b9 f8 56 41 00       	mov    $0x4156f8,%ecx
  4083ca:	48 c7 c2 ff ff ff ff 	mov    $0xffffffffffffffff,%rdx
  4083d1:	be 01 00 00 00       	mov    $0x1,%esi
  4083d6:	31 c0                	xor    %eax,%eax
  4083d8:	45 31 f6             	xor    %r14d,%r14d
  4083db:	48 89 df             	mov    %rbx,%rdi
  4083de:	e8 1d a1 ff ff       	callq  402500 <__sprintf_chk@plt>
  4083e3:	48 89 df             	mov    %rbx,%rdi
  4083e6:	bb ff ff ff ff       	mov    $0xffffffff,%ebx
  4083eb:	e8 20 9c ff ff       	callq  402010 <strlen@plt>
  4083f0:	49 89 c7             	mov    %rax,%r15
  4083f3:	eb 13                	jmp    408408 <__sprintf_chk@plt+0x5f08>
  4083f5:	0f 1f 00             	nopl   (%rax)
  4083f8:	dd d8                	fstp   %st(0)
  4083fa:	eb 0c                	jmp    408408 <__sprintf_chk@plt+0x5f08>
  4083fc:	0f 1f 40 00          	nopl   0x0(%rax)
  408400:	dd d8                	fstp   %st(0)
  408402:	66 0f 1f 44 00 00    	nopw   0x0(%rax,%rax,1)
  408408:	4c 8b 64 24 18       	mov    0x18(%rsp),%r12
  40840d:	48 8b 74 24 30       	mov    0x30(%rsp),%rsi
  408412:	4c 89 fa             	mov    %r15,%rdx
  408415:	4d 29 fc             	sub    %r15,%r12
  408418:	4d 29 f7             	sub    %r14,%r15
  40841b:	4c 89 e7             	mov    %r12,%rdi
  40841e:	e8 8d 9f ff ff       	callq  4023b0 <memmove@plt>
  408423:	4f 8d 04 3c          	lea    (%r12,%r15,1),%r8
  408427:	f6 44 24 20 04       	testb  $0x4,0x20(%rsp)
  40842c:	0f 85 d6 00 00 00    	jne    408508 <__sprintf_chk@plt+0x6008>
  408432:	f6 44 24 20 80       	testb  $0x80,0x20(%rsp)
  408437:	74 71                	je     4084aa <__sprintf_chk@plt+0x5faa>
  408439:	83 fb ff             	cmp    $0xffffffff,%ebx
  40843c:	0f 84 c6 03 00 00    	je     408808 <__sprintf_chk@plt+0x6308>
  408442:	8b 44 24 20          	mov    0x20(%rsp),%eax
  408446:	89 d9                	mov    %ebx,%ecx
  408448:	25 00 01 00 00       	and    $0x100,%eax
  40844d:	09 c1                	or     %eax,%ecx
  40844f:	74 59                	je     4084aa <__sprintf_chk@plt+0x5faa>
  408451:	f6 44 24 20 40       	testb  $0x40,0x20(%rsp)
  408456:	0f 85 7c 01 00 00    	jne    4085d8 <__sprintf_chk@plt+0x60d8>
  40845c:	85 db                	test   %ebx,%ebx
  40845e:	0f 84 77 05 00 00    	je     4089db <__sprintf_chk@plt+0x64db>
  408464:	48 8b 4c 24 18       	mov    0x18(%rsp),%rcx
  408469:	48 8d 51 01          	lea    0x1(%rcx),%rdx
  40846d:	8b 4c 24 58          	mov    0x58(%rsp),%ecx
  408471:	85 c9                	test   %ecx,%ecx
  408473:	0f 84 47 01 00 00    	je     4085c0 <__sprintf_chk@plt+0x60c0>
  408479:	48 63 cb             	movslq %ebx,%rcx
  40847c:	0f b6 89 58 57 41 00 	movzbl 0x415758(%rcx),%ecx
  408483:	48 8b 7c 24 18       	mov    0x18(%rsp),%rdi
  408488:	88 0f                	mov    %cl,(%rdi)
  40848a:	85 c0                	test   %eax,%eax
  40848c:	0f 84 53 05 00 00    	je     4089e5 <__sprintf_chk@plt+0x64e5>
  408492:	8b 44 24 58          	mov    0x58(%rsp),%eax
  408496:	85 c0                	test   %eax,%eax
  408498:	0f 85 0a 01 00 00    	jne    4085a8 <__sprintf_chk@plt+0x60a8>
  40849e:	48 8d 42 01          	lea    0x1(%rdx),%rax
  4084a2:	c6 02 42             	movb   $0x42,(%rdx)
  4084a5:	48 89 44 24 18       	mov    %rax,0x18(%rsp)
  4084aa:	48 8b 44 24 18       	mov    0x18(%rsp),%rax
  4084af:	48 8b bc 24 a8 00 00 	mov    0xa8(%rsp),%rdi
  4084b6:	00 
  4084b7:	64 48 33 3c 25 28 00 	xor    %fs:0x28,%rdi
  4084be:	00 00 
  4084c0:	c6 00 00             	movb   $0x0,(%rax)
  4084c3:	4c 89 e0             	mov    %r12,%rax
  4084c6:	0f 85 0a 05 00 00    	jne    4089d6 <__sprintf_chk@plt+0x64d6>
  4084cc:	48 81 c4 b8 00 00 00 	add    $0xb8,%rsp
  4084d3:	5b                   	pop    %rbx
  4084d4:	5d                   	pop    %rbp
  4084d5:	41 5c                	pop    %r12
  4084d7:	41 5d                	pop    %r13
  4084d9:	41 5e                	pop    %r14
  4084db:	41 5f                	pop    %r15
  4084dd:	c3                   	retq   
  4084de:	66 90                	xchg   %ax,%ax
  4084e0:	49 89 c2             	mov    %rax,%r10
  4084e3:	31 d2                	xor    %edx,%edx
  4084e5:	4d 0f af d4          	imul   %r12,%r10
  4084e9:	4c 89 d0             	mov    %r10,%rax
  4084ec:	48 f7 f1             	div    %rcx
  4084ef:	4c 39 e0             	cmp    %r12,%rax
  4084f2:	0f 85 51 fb ff ff    	jne    408049 <__sprintf_chk@plt+0x5b49>
  4084f8:	31 c9                	xor    %ecx,%ecx
  4084fa:	31 ff                	xor    %edi,%edi
  4084fc:	e9 1c fe ff ff       	jmpq   40831d <__sprintf_chk@plt+0x5e1d>
  408501:	0f 1f 80 00 00 00 00 	nopl   0x0(%rax)
  408508:	4d 29 e0             	sub    %r12,%r8
  40850b:	4c 89 ef             	mov    %r13,%rdi
  40850e:	49 c7 c7 ff ff ff ff 	mov    $0xffffffffffffffff,%r15
  408515:	4d 89 c6             	mov    %r8,%r14
  408518:	e8 f3 9a ff ff       	callq  402010 <strlen@plt>
  40851d:	48 8d 7c 24 70       	lea    0x70(%rsp),%rdi
  408522:	4c 89 e6             	mov    %r12,%rsi
  408525:	b9 29 00 00 00       	mov    $0x29,%ecx
  40852a:	4c 89 f2             	mov    %r14,%rdx
  40852d:	48 89 44 24 38       	mov    %rax,0x38(%rsp)
  408532:	e8 c9 9c ff ff       	callq  402200 <__memcpy_chk@plt>
  408537:	4f 8d 0c 34          	lea    (%r12,%r14,1),%r9
  40853b:	4d 89 ec             	mov    %r13,%r12
  40853e:	4c 8b 6c 24 38       	mov    0x38(%rsp),%r13
  408543:	eb 17                	jmp    40855c <__sprintf_chk@plt+0x605c>
  408545:	0f 1f 00             	nopl   (%rax)
  408548:	4d 29 e9             	sub    %r13,%r9
  40854b:	4c 89 ea             	mov    %r13,%rdx
  40854e:	4c 89 e6             	mov    %r12,%rsi
  408551:	4c 89 cf             	mov    %r9,%rdi
  408554:	e8 d7 9c ff ff       	callq  402230 <memcpy@plt>
  408559:	49 89 c1             	mov    %rax,%r9
  40855c:	0f b6 55 00          	movzbl 0x0(%rbp),%edx
  408560:	84 d2                	test   %dl,%dl
  408562:	74 0f                	je     408573 <__sprintf_chk@plt+0x6073>
  408564:	80 fa 7e             	cmp    $0x7e,%dl
  408567:	44 0f b6 fa          	movzbl %dl,%r15d
  40856b:	4d 0f 47 fe          	cmova  %r14,%r15
  40856f:	48 83 c5 01          	add    $0x1,%rbp
  408573:	4d 39 f7             	cmp    %r14,%r15
  408576:	48 8d 44 24 70       	lea    0x70(%rsp),%rax
  40857b:	4d 0f 47 fe          	cmova  %r14,%r15
  40857f:	4d 29 fe             	sub    %r15,%r14
  408582:	4d 29 f9             	sub    %r15,%r9
  408585:	4c 89 fa             	mov    %r15,%rdx
  408588:	4a 8d 34 30          	lea    (%rax,%r14,1),%rsi
  40858c:	4c 89 cf             	mov    %r9,%rdi
  40858f:	e8 9c 9c ff ff       	callq  402230 <memcpy@plt>
  408594:	4d 85 f6             	test   %r14,%r14
  408597:	49 89 c1             	mov    %rax,%r9
  40859a:	75 ac                	jne    408548 <__sprintf_chk@plt+0x6048>
  40859c:	49 89 c4             	mov    %rax,%r12
  40859f:	e9 8e fe ff ff       	jmpq   408432 <__sprintf_chk@plt+0x5f32>
  4085a4:	0f 1f 40 00          	nopl   0x0(%rax)
  4085a8:	85 db                	test   %ebx,%ebx
  4085aa:	0f 84 ee fe ff ff    	je     40849e <__sprintf_chk@plt+0x5f9e>
  4085b0:	c6 02 69             	movb   $0x69,(%rdx)
  4085b3:	48 83 c2 01          	add    $0x1,%rdx
  4085b7:	e9 e2 fe ff ff       	jmpq   40849e <__sprintf_chk@plt+0x5f9e>
  4085bc:	0f 1f 40 00          	nopl   0x0(%rax)
  4085c0:	83 fb 01             	cmp    $0x1,%ebx
  4085c3:	b9 6b 00 00 00       	mov    $0x6b,%ecx
  4085c8:	0f 85 ab fe ff ff    	jne    408479 <__sprintf_chk@plt+0x5f79>
  4085ce:	e9 b0 fe ff ff       	jmpq   408483 <__sprintf_chk@plt+0x5f83>
  4085d3:	0f 1f 44 00 00       	nopl   0x0(%rax,%rax,1)
  4085d8:	48 8b 4c 24 30       	mov    0x30(%rsp),%rcx
  4085dd:	48 8d b1 89 02 00 00 	lea    0x289(%rcx),%rsi
  4085e4:	c6 81 88 02 00 00 20 	movb   $0x20,0x288(%rcx)
  4085eb:	48 89 74 24 18       	mov    %rsi,0x18(%rsp)
  4085f0:	e9 67 fe ff ff       	jmpq   40845c <__sprintf_chk@plt+0x5f5c>
  4085f5:	0f 1f 00             	nopl   (%rax)
  4085f8:	d9 05 ee d0 00 00    	flds   0xd0ee(%rip)        # 4156ec <fts_children+0x5d2c>
  4085fe:	d9 c9                	fxch   %st(1)
  408600:	db e9                	fucomi %st(1),%st
  408602:	0f 83 88 02 00 00    	jae    408890 <__sprintf_chk@plt+0x6390>
  408608:	dd d9                	fstp   %st(1)
  40860a:	d9 7c 24 66          	fnstcw 0x66(%rsp)
  40860e:	0f b7 44 24 66       	movzwl 0x66(%rsp),%eax
  408613:	80 cc 0c             	or     $0xc,%ah
  408616:	66 89 44 24 64       	mov    %ax,0x64(%rsp)
  40861b:	d9 c0                	fld    %st(0)
  40861d:	d9 6c 24 64          	fldcw  0x64(%rsp)
  408621:	df 7c 24 68          	fistpll 0x68(%rsp)
  408625:	d9 6c 24 66          	fldcw  0x66(%rsp)
  408629:	48 8b 44 24 68       	mov    0x68(%rsp),%rax
  40862e:	8b 74 24 38          	mov    0x38(%rsp),%esi
  408632:	31 d2                	xor    %edx,%edx
  408634:	85 f6                	test   %esi,%esi
  408636:	75 28                	jne    408660 <__sprintf_chk@plt+0x6160>
  408638:	48 89 44 24 68       	mov    %rax,0x68(%rsp)
  40863d:	48 85 c0             	test   %rax,%rax
  408640:	df 6c 24 68          	fildll 0x68(%rsp)
  408644:	0f 88 18 03 00 00    	js     408962 <__sprintf_chk@plt+0x6462>
  40864a:	31 c9                	xor    %ecx,%ecx
  40864c:	ba 01 00 00 00       	mov    $0x1,%edx
  408651:	df e9                	fucomip %st(1),%st
  408653:	dd d8                	fstp   %st(0)
  408655:	0f 9a c1             	setp   %cl
  408658:	48 0f 44 d1          	cmove  %rcx,%rdx
  40865c:	eb 04                	jmp    408662 <__sprintf_chk@plt+0x6162>
  40865e:	66 90                	xchg   %ax,%ax
  408660:	dd d8                	fstp   %st(0)
  408662:	48 01 d0             	add    %rdx,%rax
  408665:	48 89 44 24 68       	mov    %rax,0x68(%rsp)
  40866a:	48 85 c0             	test   %rax,%rax
  40866d:	df 6c 24 68          	fildll 0x68(%rsp)
  408671:	0f 89 46 fd ff ff    	jns    4083bd <__sprintf_chk@plt+0x5ebd>
  408677:	d8 05 6b d0 00 00    	fadds  0xd06b(%rip)        # 4156e8 <fts_children+0x5d28>
  40867d:	e9 3b fd ff ff       	jmpq   4083bd <__sprintf_chk@plt+0x5ebd>
  408682:	66 0f 1f 44 00 00    	nopw   0x0(%rax,%rax,1)
  408688:	d9 c0                	fld    %st(0)
  40868a:	e9 d3 fa ff ff       	jmpq   408162 <__sprintf_chk@plt+0x5c62>
  40868f:	49 83 f8 09          	cmp    $0x9,%r8
  408693:	0f 87 bf 02 00 00    	ja     408958 <__sprintf_chk@plt+0x6458>
  408699:	83 7c 24 38 01       	cmpl   $0x1,0x38(%rsp)
  40869e:	0f 84 fc 02 00 00    	je     4089a0 <__sprintf_chk@plt+0x64a0>
  4086a4:	44 8b 64 24 38       	mov    0x38(%rsp),%r12d
  4086a9:	85 c9                	test   %ecx,%ecx
  4086ab:	0f 9f c2             	setg   %dl
  4086ae:	45 85 e4             	test   %r12d,%r12d
  4086b1:	40 0f 94 c6          	sete   %sil
  4086b5:	21 f2                	and    %esi,%edx
  4086b7:	84 d2                	test   %dl,%dl
  4086b9:	0f 84 b9 02 00 00    	je     408978 <__sprintf_chk@plt+0x6478>
  4086bf:	8d 78 01             	lea    0x1(%rax),%edi
  4086c2:	83 ff 0a             	cmp    $0xa,%edi
  4086c5:	0f 84 f3 02 00 00    	je     4089be <__sprintf_chk@plt+0x64be>
  4086cb:	48 8b 44 24 30       	mov    0x30(%rsp),%rax
  4086d0:	83 c7 30             	add    $0x30,%edi
  4086d3:	4c 89 da             	mov    %r11,%rdx
  4086d6:	4c 89 fe             	mov    %r15,%rsi
  4086d9:	44 89 4c 24 5c       	mov    %r9d,0x5c(%rsp)
  4086de:	4c 89 54 24 40       	mov    %r10,0x40(%rsp)
  4086e3:	4c 89 5c 24 50       	mov    %r11,0x50(%rsp)
  4086e8:	4c 8d 80 87 02 00 00 	lea    0x287(%rax),%r8
  4086ef:	40 88 b8 87 02 00 00 	mov    %dil,0x287(%rax)
  4086f6:	4d 29 d8             	sub    %r11,%r8
  4086f9:	4c 89 c7             	mov    %r8,%rdi
  4086fc:	e8 2f 9b ff ff       	callq  402230 <memcpy@plt>
  408701:	4c 8b 5c 24 50       	mov    0x50(%rsp),%r11
  408706:	4c 8b 54 24 40       	mov    0x40(%rsp),%r10
  40870b:	49 89 c0             	mov    %rax,%r8
  40870e:	44 8b 4c 24 5c       	mov    0x5c(%rsp),%r9d
  408713:	31 c9                	xor    %ecx,%ecx
  408715:	31 ff                	xor    %edi,%edi
  408717:	66 0f 1f 84 00 00 00 	nopw   0x0(%rax,%rax,1)
  40871e:	00 00 
  408720:	83 7c 24 38 01       	cmpl   $0x1,0x38(%rsp)
  408725:	0f 84 b5 01 00 00    	je     4088e0 <__sprintf_chk@plt+0x63e0>
  40872b:	8b 74 24 38          	mov    0x38(%rsp),%esi
  40872f:	31 c0                	xor    %eax,%eax
  408731:	85 f6                	test   %esi,%esi
  408733:	75 07                	jne    40873c <__sprintf_chk@plt+0x623c>
  408735:	01 f9                	add    %edi,%ecx
  408737:	85 c9                	test   %ecx,%ecx
  408739:	0f 9f c0             	setg   %al
  40873c:	84 c0                	test   %al,%al
  40873e:	74 50                	je     408790 <__sprintf_chk@plt+0x6290>
  408740:	49 83 c2 01          	add    $0x1,%r10
  408744:	45 85 c9             	test   %r9d,%r9d
  408747:	74 47                	je     408790 <__sprintf_chk@plt+0x6290>
  408749:	8b 44 24 24          	mov    0x24(%rsp),%eax
  40874d:	4c 39 d0             	cmp    %r10,%rax
  408750:	75 3e                	jne    408790 <__sprintf_chk@plt+0x6290>
  408752:	83 fb 08             	cmp    $0x8,%ebx
  408755:	74 39                	je     408790 <__sprintf_chk@plt+0x6290>
  408757:	83 c3 01             	add    $0x1,%ebx
  40875a:	f6 44 24 20 08       	testb  $0x8,0x20(%rsp)
  40875f:	41 ba 01 00 00 00    	mov    $0x1,%r10d
  408765:	75 29                	jne    408790 <__sprintf_chk@plt+0x6290>
  408767:	49 8d 40 ff          	lea    -0x1(%r8),%rax
  40876b:	41 c6 40 ff 30       	movb   $0x30,-0x1(%r8)
  408770:	4c 89 da             	mov    %r11,%rdx
  408773:	4c 89 fe             	mov    %r15,%rsi
  408776:	4c 89 54 24 38       	mov    %r10,0x38(%rsp)
  40877b:	4c 29 d8             	sub    %r11,%rax
  40877e:	48 89 c7             	mov    %rax,%rdi
  408781:	e8 aa 9a ff ff       	callq  402230 <memcpy@plt>
  408786:	4c 8b 54 24 38       	mov    0x38(%rsp),%r10
  40878b:	49 89 c0             	mov    %rax,%r8
  40878e:	66 90                	xchg   %ax,%ax
  408790:	4d 89 c4             	mov    %r8,%r12
  408793:	48 b9 cd cc cc cc cc 	movabs $0xcccccccccccccccd,%rcx
  40879a:	cc cc cc 
  40879d:	0f 1f 00             	nopl   (%rax)
  4087a0:	4c 89 d0             	mov    %r10,%rax
  4087a3:	49 83 ec 01          	sub    $0x1,%r12
  4087a7:	48 f7 e1             	mul    %rcx
  4087aa:	48 c1 ea 03          	shr    $0x3,%rdx
  4087ae:	48 8d 04 92          	lea    (%rdx,%rdx,4),%rax
  4087b2:	48 01 c0             	add    %rax,%rax
  4087b5:	49 29 c2             	sub    %rax,%r10
  4087b8:	41 83 c2 30          	add    $0x30,%r10d
  4087bc:	48 85 d2             	test   %rdx,%rdx
  4087bf:	45 88 14 24          	mov    %r10b,(%r12)
  4087c3:	49 89 d2             	mov    %rdx,%r10
  4087c6:	75 d8                	jne    4087a0 <__sprintf_chk@plt+0x62a0>
  4087c8:	e9 5a fc ff ff       	jmpq   408427 <__sprintf_chk@plt+0x5f27>
  4087cd:	0f 1f 00             	nopl   (%rax)
  4087d0:	d8 05 12 cf 00 00    	fadds  0xcf12(%rip)        # 4156e8 <fts_children+0x5d28>
  4087d6:	e9 a9 f8 ff ff       	jmpq   408084 <__sprintf_chk@plt+0x5b84>
  4087db:	0f 1f 44 00 00       	nopl   0x0(%rax,%rax,1)
  4087e0:	d8 05 02 cf 00 00    	fadds  0xcf02(%rip)        # 4156e8 <fts_children+0x5d28>
  4087e6:	48 89 5c 24 68       	mov    %rbx,0x68(%rsp)
  4087eb:	48 85 db             	test   %rbx,%rbx
  4087ee:	df 6c 24 68          	fildll 0x68(%rsp)
  4087f2:	0f 89 75 f8 ff ff    	jns    40806d <__sprintf_chk@plt+0x5b6d>
  4087f8:	d8 05 ea ce 00 00    	fadds  0xceea(%rip)        # 4156e8 <fts_children+0x5d28>
  4087fe:	e9 6a f8 ff ff       	jmpq   40806d <__sprintf_chk@plt+0x5b6d>
  408803:	0f 1f 44 00 00       	nopl   0x0(%rax,%rax,1)
  408808:	48 8b 54 24 28       	mov    0x28(%rsp),%rdx
  40880d:	48 83 fa 01          	cmp    $0x1,%rdx
  408811:	0f 86 82 01 00 00    	jbe    408999 <__sprintf_chk@plt+0x6499>
  408817:	44 8b 74 24 24       	mov    0x24(%rsp),%r14d
  40881c:	bb 01 00 00 00       	mov    $0x1,%ebx
  408821:	b8 01 00 00 00       	mov    $0x1,%eax
  408826:	66 2e 0f 1f 84 00 00 	nopw   %cs:0x0(%rax,%rax,1)
  40882d:	00 00 00 
  408830:	49 0f af c6          	imul   %r14,%rax
  408834:	48 39 c2             	cmp    %rax,%rdx
  408837:	0f 86 05 fc ff ff    	jbe    408442 <__sprintf_chk@plt+0x5f42>
  40883d:	83 c3 01             	add    $0x1,%ebx
  408840:	83 fb 08             	cmp    $0x8,%ebx
  408843:	75 eb                	jne    408830 <__sprintf_chk@plt+0x6330>
  408845:	e9 f8 fb ff ff       	jmpq   408442 <__sprintf_chk@plt+0x5f42>
  40884a:	66 0f 1f 44 00 00    	nopw   0x0(%rax,%rax,1)
  408850:	d9 7c 24 66          	fnstcw 0x66(%rsp)
  408854:	0f b7 44 24 66       	movzwl 0x66(%rsp),%eax
  408859:	dc e1                	fsub   %st,%st(1)
  40885b:	d9 c9                	fxch   %st(1)
  40885d:	48 ba 00 00 00 00 00 	movabs $0x8000000000000000,%rdx
  408864:	00 00 80 
  408867:	80 cc 0c             	or     $0xc,%ah
  40886a:	66 89 44 24 64       	mov    %ax,0x64(%rsp)
  40886f:	d9 6c 24 64          	fldcw  0x64(%rsp)
  408873:	df 7c 24 68          	fistpll 0x68(%rsp)
  408877:	d9 6c 24 66          	fldcw  0x66(%rsp)
  40887b:	48 8b 44 24 68       	mov    0x68(%rsp),%rax
  408880:	48 31 d0             	xor    %rdx,%rax
  408883:	e9 91 f8 ff ff       	jmpq   408119 <__sprintf_chk@plt+0x5c19>
  408888:	0f 1f 84 00 00 00 00 	nopl   0x0(%rax,%rax,1)
  40888f:	00 
  408890:	d9 7c 24 66          	fnstcw 0x66(%rsp)
  408894:	0f b7 44 24 66       	movzwl 0x66(%rsp),%eax
  408899:	dc e1                	fsub   %st,%st(1)
  40889b:	d9 c9                	fxch   %st(1)
  40889d:	48 ba 00 00 00 00 00 	movabs $0x8000000000000000,%rdx
  4088a4:	00 00 80 
  4088a7:	80 cc 0c             	or     $0xc,%ah
  4088aa:	66 89 44 24 64       	mov    %ax,0x64(%rsp)
  4088af:	d9 6c 24 64          	fldcw  0x64(%rsp)
  4088b3:	df 7c 24 68          	fistpll 0x68(%rsp)
  4088b7:	d9 6c 24 66          	fldcw  0x66(%rsp)
  4088bb:	48 8b 44 24 68       	mov    0x68(%rsp),%rax
  4088c0:	48 31 d0             	xor    %rdx,%rax
  4088c3:	e9 66 fd ff ff       	jmpq   40862e <__sprintf_chk@plt+0x612e>
  4088c8:	0f 1f 84 00 00 00 00 	nopl   0x0(%rax,%rax,1)
  4088cf:	00 
  4088d0:	19 c9                	sbb    %ecx,%ecx
  4088d2:	f7 d1                	not    %ecx
  4088d4:	83 c1 03             	add    $0x3,%ecx
  4088d7:	e9 41 fa ff ff       	jmpq   40831d <__sprintf_chk@plt+0x5e1d>
  4088dc:	0f 1f 40 00          	nopl   0x0(%rax)
  4088e0:	4c 89 d0             	mov    %r10,%rax
  4088e3:	48 63 c9             	movslq %ecx,%rcx
  4088e6:	83 e0 01             	and    $0x1,%eax
  4088e9:	48 01 c8             	add    %rcx,%rax
  4088ec:	0f 95 c0             	setne  %al
  4088ef:	0f b6 c0             	movzbl %al,%eax
  4088f2:	01 c7                	add    %eax,%edi
  4088f4:	83 ff 05             	cmp    $0x5,%edi
  4088f7:	0f 9f c0             	setg   %al
  4088fa:	e9 3d fe ff ff       	jmpq   40873c <__sprintf_chk@plt+0x623c>
  4088ff:	90                   	nop
  408900:	4c 8b 44 24 18       	mov    0x18(%rsp),%r8
  408905:	31 db                	xor    %ebx,%ebx
  408907:	e9 14 fe ff ff       	jmpq   408720 <__sprintf_chk@plt+0x6220>
  40890c:	0f 1f 40 00          	nopl   0x0(%rax)
  408910:	d9 7c 24 66          	fnstcw 0x66(%rsp)
  408914:	0f b7 44 24 66       	movzwl 0x66(%rsp),%eax
  408919:	dc e1                	fsub   %st,%st(1)
  40891b:	d9 c9                	fxch   %st(1)
  40891d:	48 ba 00 00 00 00 00 	movabs $0x8000000000000000,%rdx
  408924:	00 00 80 
  408927:	80 cc 0c             	or     $0xc,%ah
  40892a:	66 89 44 24 64       	mov    %ax,0x64(%rsp)
  40892f:	d9 6c 24 64          	fldcw  0x64(%rsp)
  408933:	df 7c 24 68          	fistpll 0x68(%rsp)
  408937:	d9 6c 24 66          	fldcw  0x66(%rsp)
  40893b:	48 8b 44 24 68       	mov    0x68(%rsp),%rax
  408940:	48 31 d0             	xor    %rdx,%rax
  408943:	e9 ed f8 ff ff       	jmpq   408235 <__sprintf_chk@plt+0x5d35>
  408948:	d8 05 9a cd 00 00    	fadds  0xcd9a(%rip)        # 4156e8 <fts_children+0x5d28>
  40894e:	d9 c9                	fxch   %st(1)
  408950:	e9 0d f8 ff ff       	jmpq   408162 <__sprintf_chk@plt+0x5c62>
  408955:	0f 1f 00             	nopl   (%rax)
  408958:	4c 8b 44 24 18       	mov    0x18(%rsp),%r8
  40895d:	e9 be fd ff ff       	jmpq   408720 <__sprintf_chk@plt+0x6220>
  408962:	d8 05 80 cd 00 00    	fadds  0xcd80(%rip)        # 4156e8 <fts_children+0x5d28>
  408968:	e9 dd fc ff ff       	jmpq   40864a <__sprintf_chk@plt+0x614a>
  40896d:	d8 05 75 cd 00 00    	fadds  0xcd75(%rip)        # 4156e8 <fts_children+0x5d28>
  408973:	e9 bd f7 ff ff       	jmpq   408135 <__sprintf_chk@plt+0x5c35>
  408978:	85 c0                	test   %eax,%eax
  40897a:	0f 85 4b fd ff ff    	jne    4086cb <__sprintf_chk@plt+0x61cb>
  408980:	f6 44 24 20 08       	testb  $0x8,0x20(%rsp)
  408985:	75 2b                	jne    4089b2 <__sprintf_chk@plt+0x64b2>
  408987:	31 ff                	xor    %edi,%edi
  408989:	e9 3d fd ff ff       	jmpq   4086cb <__sprintf_chk@plt+0x61cb>
  40898e:	d8 05 54 cd 00 00    	fadds  0xcd54(%rip)        # 4156e8 <fts_children+0x5d28>
  408994:	e9 ba f8 ff ff       	jmpq   408253 <__sprintf_chk@plt+0x5d53>
  408999:	31 db                	xor    %ebx,%ebx
  40899b:	e9 a2 fa ff ff       	jmpq   408442 <__sprintf_chk@plt+0x5f42>
  4089a0:	89 c2                	mov    %eax,%edx
  4089a2:	83 e2 01             	and    $0x1,%edx
  4089a5:	01 ca                	add    %ecx,%edx
  4089a7:	83 fa 02             	cmp    $0x2,%edx
  4089aa:	0f 9f c2             	setg   %dl
  4089ad:	e9 05 fd ff ff       	jmpq   4086b7 <__sprintf_chk@plt+0x61b7>
  4089b2:	4c 8b 44 24 18       	mov    0x18(%rsp),%r8
  4089b7:	31 ff                	xor    %edi,%edi
  4089b9:	e9 62 fd ff ff       	jmpq   408720 <__sprintf_chk@plt+0x6220>
  4089be:	4d 8d 50 01          	lea    0x1(%r8),%r10
  4089c2:	49 83 fa 0a          	cmp    $0xa,%r10
  4089c6:	75 27                	jne    4089ef <__sprintf_chk@plt+0x64ef>
  4089c8:	4c 8b 44 24 18       	mov    0x18(%rsp),%r8
  4089cd:	31 c9                	xor    %ecx,%ecx
  4089cf:	31 ff                	xor    %edi,%edi
  4089d1:	e9 4a fd ff ff       	jmpq   408720 <__sprintf_chk@plt+0x6220>
  4089d6:	e8 65 96 ff ff       	callq  402040 <__stack_chk_fail@plt>
  4089db:	48 8b 54 24 18       	mov    0x18(%rsp),%rdx
  4089e0:	e9 a5 fa ff ff       	jmpq   40848a <__sprintf_chk@plt+0x5f8a>
  4089e5:	48 89 54 24 18       	mov    %rdx,0x18(%rsp)
  4089ea:	e9 bb fa ff ff       	jmpq   4084aa <__sprintf_chk@plt+0x5faa>
  4089ef:	31 c9                	xor    %ecx,%ecx
  4089f1:	eb 8d                	jmp    408980 <__sprintf_chk@plt+0x6480>
  4089f3:	66 66 66 66 2e 0f 1f 	data32 data32 data32 nopw %cs:0x0(%rax,%rax,1)
  4089fa:	84 00 00 00 00 00 
  408a00:	41 55                	push   %r13
  408a02:	49 89 f5             	mov    %rsi,%r13
  408a05:	41 54                	push   %r12
  408a07:	49 89 d4             	mov    %rdx,%r12
  408a0a:	55                   	push   %rbp
  408a0b:	53                   	push   %rbx
  408a0c:	48 89 fb             	mov    %rdi,%rbx
  408a0f:	48 83 ec 18          	sub    $0x18,%rsp
  408a13:	48 85 ff             	test   %rdi,%rdi
  408a16:	0f 84 e4 00 00 00    	je     408b00 <__sprintf_chk@plt+0x6600>
  408a1c:	31 ed                	xor    %ebp,%ebp
  408a1e:	80 3b 27             	cmpb   $0x27,(%rbx)
  408a21:	74 6d                	je     408a90 <__sprintf_chk@plt+0x6590>
  408a23:	b9 04 00 00 00       	mov    $0x4,%ecx
  408a28:	ba 30 57 41 00       	mov    $0x415730,%edx
  408a2d:	be 40 57 41 00       	mov    $0x415740,%esi
  408a32:	48 89 df             	mov    %rbx,%rdi
  408a35:	e8 e6 b3 ff ff       	callq  403e20 <__sprintf_chk@plt+0x1920>
  408a3a:	85 c0                	test   %eax,%eax
  408a3c:	78 62                	js     408aa0 <__sprintf_chk@plt+0x65a0>
  408a3e:	48 98                	cltq   
  408a40:	49 c7 04 24 01 00 00 	movq   $0x1,(%r12)
  408a47:	00 
  408a48:	ba 01 00 00 00       	mov    $0x1,%edx
  408a4d:	0b 2c 85 30 57 41 00 	or     0x415730(,%rax,4),%ebp
  408a54:	41 89 6d 00          	mov    %ebp,0x0(%r13)
  408a58:	31 c0                	xor    %eax,%eax
  408a5a:	48 85 d2             	test   %rdx,%rdx
  408a5d:	75 25                	jne    408a84 <__sprintf_chk@plt+0x6584>
  408a5f:	bf 0e 57 41 00       	mov    $0x41570e,%edi
  408a64:	e8 57 94 ff ff       	callq  401ec0 <getenv@plt>
  408a69:	48 83 f8 01          	cmp    $0x1,%rax
  408a6d:	48 19 c0             	sbb    %rax,%rax
  408a70:	25 00 02 00 00       	and    $0x200,%eax
  408a75:	48 05 00 02 00 00    	add    $0x200,%rax
  408a7b:	49 89 04 24          	mov    %rax,(%r12)
  408a7f:	b8 04 00 00 00       	mov    $0x4,%eax
  408a84:	48 83 c4 18          	add    $0x18,%rsp
  408a88:	5b                   	pop    %rbx
  408a89:	5d                   	pop    %rbp
  408a8a:	41 5c                	pop    %r12
  408a8c:	41 5d                	pop    %r13
  408a8e:	c3                   	retq   
  408a8f:	90                   	nop
  408a90:	48 83 c3 01          	add    $0x1,%rbx
  408a94:	40 b5 04             	mov    $0x4,%bpl
  408a97:	eb 8a                	jmp    408a23 <__sprintf_chk@plt+0x6523>
  408a99:	0f 1f 80 00 00 00 00 	nopl   0x0(%rax)
  408aa0:	48 8d 74 24 08       	lea    0x8(%rsp),%rsi
  408aa5:	31 d2                	xor    %edx,%edx
  408aa7:	41 b8 1e 57 41 00    	mov    $0x41571e,%r8d
  408aad:	4c 89 e1             	mov    %r12,%rcx
  408ab0:	48 89 df             	mov    %rbx,%rdi
  408ab3:	e8 e8 47 00 00       	callq  40d2a0 <__sprintf_chk@plt+0xada0>
  408ab8:	85 c0                	test   %eax,%eax
  408aba:	0f 85 98 00 00 00    	jne    408b58 <__sprintf_chk@plt+0x6658>
  408ac0:	0f b6 03             	movzbl (%rbx),%eax
  408ac3:	83 e8 30             	sub    $0x30,%eax
  408ac6:	3c 09                	cmp    $0x9,%al
  408ac8:	76 2d                	jbe    408af7 <__sprintf_chk@plt+0x65f7>
  408aca:	48 8b 54 24 08       	mov    0x8(%rsp),%rdx
  408acf:	48 39 d3             	cmp    %rdx,%rbx
  408ad2:	75 15                	jne    408ae9 <__sprintf_chk@plt+0x65e9>
  408ad4:	e9 97 00 00 00       	jmpq   408b70 <__sprintf_chk@plt+0x6670>
  408ad9:	0f 1f 80 00 00 00 00 	nopl   0x0(%rax)
  408ae0:	48 39 d3             	cmp    %rdx,%rbx
  408ae3:	0f 84 87 00 00 00    	je     408b70 <__sprintf_chk@plt+0x6670>
  408ae9:	48 83 c3 01          	add    $0x1,%rbx
  408aed:	0f b6 03             	movzbl (%rbx),%eax
  408af0:	83 e8 30             	sub    $0x30,%eax
  408af3:	3c 09                	cmp    $0x9,%al
  408af5:	77 e9                	ja     408ae0 <__sprintf_chk@plt+0x65e0>
  408af7:	49 8b 14 24          	mov    (%r12),%rdx
  408afb:	e9 54 ff ff ff       	jmpq   408a54 <__sprintf_chk@plt+0x6554>
  408b00:	bf 56 31 41 00       	mov    $0x413156,%edi
  408b05:	e8 b6 93 ff ff       	callq  401ec0 <getenv@plt>
  408b0a:	48 85 c0             	test   %rax,%rax
  408b0d:	48 89 c3             	mov    %rax,%rbx
  408b10:	0f 85 06 ff ff ff    	jne    408a1c <__sprintf_chk@plt+0x651c>
  408b16:	bf 04 57 41 00       	mov    $0x415704,%edi
  408b1b:	e8 a0 93 ff ff       	callq  401ec0 <getenv@plt>
  408b20:	48 85 c0             	test   %rax,%rax
  408b23:	48 89 c3             	mov    %rax,%rbx
  408b26:	0f 85 f0 fe ff ff    	jne    408a1c <__sprintf_chk@plt+0x651c>
  408b2c:	bf 0e 57 41 00       	mov    $0x41570e,%edi
  408b31:	e8 8a 93 ff ff       	callq  401ec0 <getenv@plt>
  408b36:	48 83 f8 01          	cmp    $0x1,%rax
  408b3a:	48 19 d2             	sbb    %rdx,%rdx
  408b3d:	31 ed                	xor    %ebp,%ebp
  408b3f:	81 e2 00 02 00 00    	and    $0x200,%edx
  408b45:	48 81 c2 00 02 00 00 	add    $0x200,%rdx
  408b4c:	49 89 14 24          	mov    %rdx,(%r12)
  408b50:	e9 ff fe ff ff       	jmpq   408a54 <__sprintf_chk@plt+0x6554>
  408b55:	0f 1f 00             	nopl   (%rax)
  408b58:	41 c7 45 00 00 00 00 	movl   $0x0,0x0(%r13)
  408b5f:	00 
  408b60:	49 8b 14 24          	mov    (%r12),%rdx
  408b64:	e9 f1 fe ff ff       	jmpq   408a5a <__sprintf_chk@plt+0x655a>
  408b69:	0f 1f 80 00 00 00 00 	nopl   0x0(%rax)
  408b70:	80 7a ff 42          	cmpb   $0x42,-0x1(%rdx)
  408b74:	74 12                	je     408b88 <__sprintf_chk@plt+0x6688>
  408b76:	40 80 cd 80          	or     $0x80,%bpl
  408b7a:	83 cd 20             	or     $0x20,%ebp
  408b7d:	e9 75 ff ff ff       	jmpq   408af7 <__sprintf_chk@plt+0x65f7>
  408b82:	66 0f 1f 44 00 00    	nopw   0x0(%rax,%rax,1)
  408b88:	81 cd 80 01 00 00    	or     $0x180,%ebp
  408b8e:	80 7a fe 69          	cmpb   $0x69,-0x2(%rdx)
  408b92:	0f 85 5f ff ff ff    	jne    408af7 <__sprintf_chk@plt+0x65f7>
  408b98:	eb e0                	jmp    408b7a <__sprintf_chk@plt+0x667a>
  408b9a:	66 0f 1f 44 00 00    	nopw   0x0(%rax,%rax,1)
  408ba0:	48 8b 07             	mov    (%rdi),%rax
  408ba3:	31 d2                	xor    %edx,%edx
  408ba5:	48 f7 f6             	div    %rsi
  408ba8:	48 89 d0             	mov    %rdx,%rax
  408bab:	c3                   	retq   
  408bac:	0f 1f 40 00          	nopl   0x0(%rax)
  408bb0:	48 8b 06             	mov    (%rsi),%rax
  408bb3:	48 39 07             	cmp    %rax,(%rdi)
  408bb6:	0f 94 c0             	sete   %al
  408bb9:	c3                   	retq   
  408bba:	66 0f 1f 44 00 00    	nopw   0x0(%rax,%rax,1)
  408bc0:	41 54                	push   %r12
  408bc2:	49 89 fc             	mov    %rdi,%r12
  408bc5:	bf 18 00 00 00       	mov    $0x18,%edi
  408bca:	55                   	push   %rbp
  408bcb:	31 ed                	xor    %ebp,%ebp
  408bcd:	53                   	push   %rbx
  408bce:	e8 bd 96 ff ff       	callq  402290 <malloc@plt>
  408bd3:	48 85 c0             	test   %rax,%rax
  408bd6:	48 89 c3             	mov    %rax,%rbx
  408bd9:	74 33                	je     408c0e <__sprintf_chk@plt+0x670e>
  408bdb:	31 f6                	xor    %esi,%esi
  408bdd:	41 b8 d0 1e 40 00    	mov    $0x401ed0,%r8d
  408be3:	b9 b0 8b 40 00       	mov    $0x408bb0,%ecx
  408be8:	ba a0 8b 40 00       	mov    $0x408ba0,%edx
  408bed:	bf fd 03 00 00       	mov    $0x3fd,%edi
  408bf2:	e8 f9 e9 ff ff       	callq  4075f0 <__sprintf_chk@plt+0x50f0>
  408bf7:	48 85 c0             	test   %rax,%rax
  408bfa:	48 89 03             	mov    %rax,(%rbx)
  408bfd:	74 17                	je     408c16 <__sprintf_chk@plt+0x6716>
  408bff:	4c 89 63 08          	mov    %r12,0x8(%rbx)
  408c03:	48 c7 43 10 00 00 00 	movq   $0x0,0x10(%rbx)
  408c0a:	00 
  408c0b:	48 89 dd             	mov    %rbx,%rbp
  408c0e:	5b                   	pop    %rbx
  408c0f:	48 89 e8             	mov    %rbp,%rax
  408c12:	5d                   	pop    %rbp
  408c13:	41 5c                	pop    %r12
  408c15:	c3                   	retq   
  408c16:	48 89 df             	mov    %rbx,%rdi
  408c19:	e8 b2 92 ff ff       	callq  401ed0 <free@plt>
  408c1e:	eb ee                	jmp    408c0e <__sprintf_chk@plt+0x670e>
  408c20:	53                   	push   %rbx
  408c21:	48 89 fb             	mov    %rdi,%rbx
  408c24:	48 8b 3f             	mov    (%rdi),%rdi
  408c27:	e8 04 ec ff ff       	callq  407830 <__sprintf_chk@plt+0x5330>
  408c2c:	48 8b 7b 10          	mov    0x10(%rbx),%rdi
  408c30:	e8 9b 92 ff ff       	callq  401ed0 <free@plt>
  408c35:	48 89 df             	mov    %rbx,%rdi
  408c38:	5b                   	pop    %rbx
  408c39:	e9 92 92 ff ff       	jmpq   401ed0 <free@plt>
  408c3e:	66 90                	xchg   %ax,%ax
  408c40:	55                   	push   %rbp
  408c41:	48 89 fd             	mov    %rdi,%rbp
  408c44:	53                   	push   %rbx
  408c45:	48 83 ec 18          	sub    $0x18,%rsp
  408c49:	48 8b 5f 10          	mov    0x10(%rdi),%rbx
  408c4d:	48 85 db             	test   %rbx,%rbx
  408c50:	74 2e                	je     408c80 <__sprintf_chk@plt+0x6780>
  408c52:	48 39 33             	cmp    %rsi,(%rbx)
  408c55:	74 79                	je     408cd0 <__sprintf_chk@plt+0x67d0>
  408c57:	48 8b 7d 00          	mov    0x0(%rbp),%rdi
  408c5b:	48 89 33             	mov    %rsi,(%rbx)
  408c5e:	48 89 de             	mov    %rbx,%rsi
  408c61:	e8 da f0 ff ff       	callq  407d40 <__sprintf_chk@plt+0x5840>
  408c66:	48 85 c0             	test   %rax,%rax
  408c69:	74 35                	je     408ca0 <__sprintf_chk@plt+0x67a0>
  408c6b:	48 39 d8             	cmp    %rbx,%rax
  408c6e:	74 40                	je     408cb0 <__sprintf_chk@plt+0x67b0>
  408c70:	48 8b 40 08          	mov    0x8(%rax),%rax
  408c74:	48 89 43 08          	mov    %rax,0x8(%rbx)
  408c78:	48 83 c4 18          	add    $0x18,%rsp
  408c7c:	5b                   	pop    %rbx
  408c7d:	5d                   	pop    %rbp
  408c7e:	c3                   	retq   
  408c7f:	90                   	nop
  408c80:	bf 10 00 00 00       	mov    $0x10,%edi
  408c85:	48 89 74 24 08       	mov    %rsi,0x8(%rsp)
  408c8a:	e8 01 96 ff ff       	callq  402290 <malloc@plt>
  408c8f:	48 85 c0             	test   %rax,%rax
  408c92:	48 89 c3             	mov    %rax,%rbx
  408c95:	48 89 45 10          	mov    %rax,0x10(%rbp)
  408c99:	48 8b 74 24 08       	mov    0x8(%rsp),%rsi
  408c9e:	75 b7                	jne    408c57 <__sprintf_chk@plt+0x6757>
  408ca0:	48 83 c4 18          	add    $0x18,%rsp
  408ca4:	48 c7 c0 ff ff ff ff 	mov    $0xffffffffffffffff,%rax
  408cab:	5b                   	pop    %rbx
  408cac:	5d                   	pop    %rbp
  408cad:	c3                   	retq   
  408cae:	66 90                	xchg   %ax,%ax
  408cb0:	48 8b 45 08          	mov    0x8(%rbp),%rax
  408cb4:	48 c7 45 10 00 00 00 	movq   $0x0,0x10(%rbp)
  408cbb:	00 
  408cbc:	48 8d 50 01          	lea    0x1(%rax),%rdx
  408cc0:	48 89 55 08          	mov    %rdx,0x8(%rbp)
  408cc4:	48 89 43 08          	mov    %rax,0x8(%rbx)
  408cc8:	eb ae                	jmp    408c78 <__sprintf_chk@plt+0x6778>
  408cca:	66 0f 1f 44 00 00    	nopw   0x0(%rax,%rax,1)
  408cd0:	48 8b 43 08          	mov    0x8(%rbx),%rax
  408cd4:	48 83 c4 18          	add    $0x18,%rsp
  408cd8:	5b                   	pop    %rbx
  408cd9:	5d                   	pop    %rbp
  408cda:	c3                   	retq   
  408cdb:	0f 1f 44 00 00       	nopl   0x0(%rax,%rax,1)
  408ce0:	48 85 ff             	test   %rdi,%rdi
  408ce3:	48 8d 4e 14          	lea    0x14(%rsi),%rcx
  408ce7:	c6 46 14 00          	movb   $0x0,0x14(%rsi)
  408ceb:	48 be 67 66 66 66 66 	movabs $0x6666666666666667,%rsi
  408cf2:	66 66 66 
  408cf5:	78 41                	js     408d38 <__sprintf_chk@plt+0x6838>
  408cf7:	66 0f 1f 84 00 00 00 	nopw   0x0(%rax,%rax,1)
  408cfe:	00 00 
  408d00:	48 89 f8             	mov    %rdi,%rax
  408d03:	48 83 e9 01          	sub    $0x1,%rcx
  408d07:	48 f7 ee             	imul   %rsi
  408d0a:	48 89 f8             	mov    %rdi,%rax
  408d0d:	48 c1 f8 3f          	sar    $0x3f,%rax
  408d11:	48 c1 fa 02          	sar    $0x2,%rdx
  408d15:	48 29 c2             	sub    %rax,%rdx
  408d18:	48 8d 04 92          	lea    (%rdx,%rdx,4),%rax
  408d1c:	48 01 c0             	add    %rax,%rax
  408d1f:	48 29 c7             	sub    %rax,%rdi
  408d22:	83 c7 30             	add    $0x30,%edi
  408d25:	48 85 d2             	test   %rdx,%rdx
  408d28:	40 88 39             	mov    %dil,(%rcx)
  408d2b:	48 89 d7             	mov    %rdx,%rdi
  408d2e:	75 d0                	jne    408d00 <__sprintf_chk@plt+0x6800>
  408d30:	48 89 c8             	mov    %rcx,%rax
  408d33:	c3                   	retq   
  408d34:	0f 1f 40 00          	nopl   0x0(%rax)
  408d38:	49 89 f0             	mov    %rsi,%r8
  408d3b:	be 30 00 00 00       	mov    $0x30,%esi
  408d40:	48 89 f8             	mov    %rdi,%rax
  408d43:	48 83 e9 01          	sub    $0x1,%rcx
  408d47:	49 f7 e8             	imul   %r8
  408d4a:	48 89 f8             	mov    %rdi,%rax
  408d4d:	48 c1 f8 3f          	sar    $0x3f,%rax
  408d51:	48 c1 fa 02          	sar    $0x2,%rdx
  408d55:	48 29 c2             	sub    %rax,%rdx
  408d58:	48 8d 04 92          	lea    (%rdx,%rdx,4),%rax
  408d5c:	8d 04 46             	lea    (%rsi,%rax,2),%eax
  408d5f:	29 f8                	sub    %edi,%eax
  408d61:	48 85 d2             	test   %rdx,%rdx
  408d64:	48 89 d7             	mov    %rdx,%rdi
  408d67:	88 01                	mov    %al,(%rcx)
  408d69:	75 d5                	jne    408d40 <__sprintf_chk@plt+0x6840>
  408d6b:	48 89 c8             	mov    %rcx,%rax
  408d6e:	48 83 e9 01          	sub    $0x1,%rcx
  408d72:	c6 40 ff 2d          	movb   $0x2d,-0x1(%rax)
  408d76:	48 89 c8             	mov    %rcx,%rax
  408d79:	c3                   	retq   
  408d7a:	66 0f 1f 44 00 00    	nopw   0x0(%rax,%rax,1)
  408d80:	53                   	push   %rbx
  408d81:	89 fb                	mov    %edi,%ebx
  408d83:	e8 e8 94 ff ff       	callq  402270 <wcwidth@plt>
  408d88:	85 c0                	test   %eax,%eax
  408d8a:	78 04                	js     408d90 <__sprintf_chk@plt+0x6890>
  408d8c:	5b                   	pop    %rbx
  408d8d:	c3                   	retq   
  408d8e:	66 90                	xchg   %ax,%ax
  408d90:	89 df                	mov    %ebx,%edi
  408d92:	e8 e9 91 ff ff       	callq  401f80 <iswcntrl@plt>
  408d97:	85 c0                	test   %eax,%eax
  408d99:	0f 94 c0             	sete   %al
  408d9c:	0f b6 c0             	movzbl %al,%eax
  408d9f:	5b                   	pop    %rbx
  408da0:	c3                   	retq   
  408da1:	66 66 66 66 66 66 2e 	data32 data32 data32 data32 data32 nopw %cs:0x0(%rax,%rax,1)
  408da8:	0f 1f 84 00 00 00 00 
  408daf:	00 
  408db0:	55                   	push   %rbp
  408db1:	48 89 fd             	mov    %rdi,%rbp
  408db4:	53                   	push   %rbx
  408db5:	48 89 f3             	mov    %rsi,%rbx
  408db8:	48 8d 43 18          	lea    0x18(%rbx),%rax
  408dbc:	48 83 ec 08          	sub    $0x8,%rsp
  408dc0:	48 8b 36             	mov    (%rsi),%rsi
  408dc3:	48 39 c6             	cmp    %rax,%rsi
  408dc6:	74 28                	je     408df0 <__sprintf_chk@plt+0x68f0>
  408dc8:	48 89 37             	mov    %rsi,(%rdi)
  408dcb:	48 8b 43 08          	mov    0x8(%rbx),%rax
  408dcf:	48 89 45 08          	mov    %rax,0x8(%rbp)
  408dd3:	0f b6 43 10          	movzbl 0x10(%rbx),%eax
  408dd7:	84 c0                	test   %al,%al
  408dd9:	88 45 10             	mov    %al,0x10(%rbp)
  408ddc:	74 06                	je     408de4 <__sprintf_chk@plt+0x68e4>
  408dde:	8b 43 14             	mov    0x14(%rbx),%eax
  408de1:	89 45 14             	mov    %eax,0x14(%rbp)
  408de4:	48 83 c4 08          	add    $0x8,%rsp
  408de8:	5b                   	pop    %rbx
  408de9:	5d                   	pop    %rbp
  408dea:	c3                   	retq   
  408deb:	0f 1f 44 00 00       	nopl   0x0(%rax,%rax,1)
  408df0:	48 8d 4f 18          	lea    0x18(%rdi),%rcx
  408df4:	48 8b 53 08          	mov    0x8(%rbx),%rdx
  408df8:	48 89 cf             	mov    %rcx,%rdi
  408dfb:	e8 30 94 ff ff       	callq  402230 <memcpy@plt>
  408e00:	48 89 45 00          	mov    %rax,0x0(%rbp)
  408e04:	eb c5                	jmp    408dcb <__sprintf_chk@plt+0x68cb>
  408e06:	66 2e 0f 1f 84 00 00 	nopw   %cs:0x0(%rax,%rax,1)
  408e0d:	00 00 00 
  408e10:	89 f8                	mov    %edi,%eax
  408e12:	89 f9                	mov    %edi,%ecx
  408e14:	c0 e8 05             	shr    $0x5,%al
  408e17:	83 e1 1f             	and    $0x1f,%ecx
  408e1a:	83 e0 07             	and    $0x7,%eax
  408e1d:	8b 04 85 80 57 41 00 	mov    0x415780(,%rax,4),%eax
  408e24:	d3 e8                	shr    %cl,%eax
  408e26:	83 e0 01             	and    $0x1,%eax
  408e29:	c3                   	retq   
  408e2a:	66 0f 1f 44 00 00    	nopw   0x0(%rax,%rax,1)
  408e30:	41 56                	push   %r14
  408e32:	41 55                	push   %r13
  408e34:	41 54                	push   %r12
  408e36:	49 89 f4             	mov    %rsi,%r12
  408e39:	55                   	push   %rbp
  408e3a:	48 89 fd             	mov    %rdi,%rbp
  408e3d:	53                   	push   %rbx
  408e3e:	48 81 ec 90 00 00 00 	sub    $0x90,%rsp
  408e45:	64 48 8b 04 25 28 00 	mov    %fs:0x28,%rax
  408e4c:	00 00 
  408e4e:	48 89 84 24 88 00 00 	mov    %rax,0x88(%rsp)
  408e55:	00 
  408e56:	31 c0                	xor    %eax,%eax
  408e58:	48 39 f7             	cmp    %rsi,%rdi
  408e5b:	0f 84 5f 04 00 00    	je     4092c0 <__sprintf_chk@plt+0x6dc0>
  408e61:	e8 9a 91 ff ff       	callq  402000 <__ctype_get_mb_cur_max@plt>
  408e66:	48 83 f8 01          	cmp    $0x1,%rax
  408e6a:	0f 86 d0 00 00 00    	jbe    408f40 <__sprintf_chk@plt+0x6a40>
  408e70:	c6 04 24 00          	movb   $0x0,(%rsp)
  408e74:	80 3c 24 00          	cmpb   $0x0,(%rsp)
  408e78:	48 89 6c 24 10       	mov    %rbp,0x10(%rsp)
  408e7d:	4c 89 64 24 50       	mov    %r12,0x50(%rsp)
  408e82:	48 8d 6c 24 04       	lea    0x4(%rsp),%rbp
  408e87:	48 c7 44 24 04 00 00 	movq   $0x0,0x4(%rsp)
  408e8e:	00 00 
  408e90:	c6 44 24 0c 00       	movb   $0x0,0xc(%rsp)
  408e95:	4c 8d 64 24 44       	lea    0x44(%rsp),%r12
  408e9a:	c6 44 24 40 00       	movb   $0x0,0x40(%rsp)
  408e9f:	48 c7 44 24 44 00 00 	movq   $0x0,0x44(%rsp)
  408ea6:	00 00 
  408ea8:	c6 44 24 4c 00       	movb   $0x0,0x4c(%rsp)
  408ead:	0f 85 22 02 00 00    	jne    4090d5 <__sprintf_chk@plt+0x6bd5>
  408eb3:	0f 1f 44 00 00       	nopl   0x0(%rax,%rax,1)
  408eb8:	48 8b 54 24 10       	mov    0x10(%rsp),%rdx
  408ebd:	0f b6 02             	movzbl (%rdx),%eax
  408ec0:	89 c1                	mov    %eax,%ecx
  408ec2:	83 e0 1f             	and    $0x1f,%eax
  408ec5:	c0 e9 05             	shr    $0x5,%cl
  408ec8:	83 e1 07             	and    $0x7,%ecx
  408ecb:	8b 0c 8d 80 57 41 00 	mov    0x415780(,%rcx,4),%ecx
  408ed2:	0f a3 c1             	bt     %eax,%ecx
  408ed5:	0f 83 35 03 00 00    	jae    409210 <__sprintf_chk@plt+0x6d10>
  408edb:	48 c7 44 24 18 01 00 	movq   $0x1,0x18(%rsp)
  408ee2:	00 00 
  408ee4:	0f be 02             	movsbl (%rdx),%eax
  408ee7:	c6 44 24 20 01       	movb   $0x1,0x20(%rsp)
  408eec:	89 44 24 24          	mov    %eax,0x24(%rsp)
  408ef0:	8b 44 24 24          	mov    0x24(%rsp),%eax
  408ef4:	c6 44 24 0c 01       	movb   $0x1,0xc(%rsp)
  408ef9:	85 c0                	test   %eax,%eax
  408efb:	0f 85 c2 00 00 00    	jne    408fc3 <__sprintf_chk@plt+0x6ac3>
  408f01:	0f b6 5c 24 20       	movzbl 0x20(%rsp),%ebx
  408f06:	84 db                	test   %bl,%bl
  408f08:	0f 85 c2 03 00 00    	jne    4092d0 <__sprintf_chk@plt+0x6dd0>
  408f0e:	b8 01 00 00 00       	mov    $0x1,%eax
  408f13:	0f 1f 44 00 00       	nopl   0x0(%rax,%rax,1)
  408f18:	48 8b b4 24 88 00 00 	mov    0x88(%rsp),%rsi
  408f1f:	00 
  408f20:	64 48 33 34 25 28 00 	xor    %fs:0x28,%rsi
  408f27:	00 00 
  408f29:	0f 85 cd 04 00 00    	jne    4093fc <__sprintf_chk@plt+0x6efc>
  408f2f:	48 81 c4 90 00 00 00 	add    $0x90,%rsp
  408f36:	5b                   	pop    %rbx
  408f37:	5d                   	pop    %rbp
  408f38:	41 5c                	pop    %r12
  408f3a:	41 5d                	pop    %r13
  408f3c:	41 5e                	pop    %r14
  408f3e:	c3                   	retq   
  408f3f:	90                   	nop
  408f40:	e8 9b 95 ff ff       	callq  4024e0 <__ctype_b_loc@plt>
  408f45:	4c 8b 30             	mov    (%rax),%r14
  408f48:	eb 16                	jmp    408f60 <__sprintf_chk@plt+0x6a60>
  408f4a:	66 0f 1f 44 00 00    	nopw   0x0(%rax,%rax,1)
  408f50:	48 83 c5 01          	add    $0x1,%rbp
  408f54:	49 83 c4 01          	add    $0x1,%r12
  408f58:	38 d3                	cmp    %dl,%bl
  408f5a:	0f 85 50 04 00 00    	jne    4093b0 <__sprintf_chk@plt+0x6eb0>
  408f60:	0f b6 5d 00          	movzbl 0x0(%rbp),%ebx
  408f64:	44 0f b6 eb          	movzbl %bl,%r13d
  408f68:	43 f6 44 6e 01 01    	testb  $0x1,0x1(%r14,%r13,2)
  408f6e:	74 0d                	je     408f7d <__sprintf_chk@plt+0x6a7d>
  408f70:	e8 5b 95 ff ff       	callq  4024d0 <__ctype_tolower_loc@plt>
  408f75:	48 8b 00             	mov    (%rax),%rax
  408f78:	42 0f b6 1c a8       	movzbl (%rax,%r13,4),%ebx
  408f7d:	41 0f b6 14 24       	movzbl (%r12),%edx
  408f82:	44 0f b6 ea          	movzbl %dl,%r13d
  408f86:	43 f6 44 6e 01 01    	testb  $0x1,0x1(%r14,%r13,2)
  408f8c:	74 0d                	je     408f9b <__sprintf_chk@plt+0x6a9b>
  408f8e:	e8 3d 95 ff ff       	callq  4024d0 <__ctype_tolower_loc@plt>
  408f93:	48 8b 00             	mov    (%rax),%rax
  408f96:	42 0f b6 14 a8       	movzbl (%rax,%r13,4),%edx
  408f9b:	84 db                	test   %bl,%bl
  408f9d:	75 b1                	jne    408f50 <__sprintf_chk@plt+0x6a50>
  408f9f:	31 c0                	xor    %eax,%eax
  408fa1:	29 d0                	sub    %edx,%eax
  408fa3:	e9 70 ff ff ff       	jmpq   408f18 <__sprintf_chk@plt+0x6a18>
  408fa8:	0f 1f 84 00 00 00 00 	nopl   0x0(%rax,%rax,1)
  408faf:	00 
  408fb0:	48 c7 44 24 18 01 00 	movq   $0x1,0x18(%rsp)
  408fb7:	00 00 
  408fb9:	c6 44 24 20 00       	movb   $0x0,0x20(%rsp)
  408fbe:	c6 44 24 0c 01       	movb   $0x1,0xc(%rsp)
  408fc3:	0f b6 5c 24 4c       	movzbl 0x4c(%rsp),%ebx
  408fc8:	84 db                	test   %bl,%bl
  408fca:	74 54                	je     409020 <__sprintf_chk@plt+0x6b20>
  408fcc:	0f b6 5c 24 60       	movzbl 0x60(%rsp),%ebx
  408fd1:	84 db                	test   %bl,%bl
  408fd3:	0f 85 9c 00 00 00    	jne    409075 <__sprintf_chk@plt+0x6b75>
  408fd9:	80 7c 24 20 00       	cmpb   $0x0,0x20(%rsp)
  408fde:	0f 85 dc 03 00 00    	jne    4093c0 <__sprintf_chk@plt+0x6ec0>
  408fe4:	48 8b 54 24 18       	mov    0x18(%rsp),%rdx
  408fe9:	48 8b 44 24 58       	mov    0x58(%rsp),%rax
  408fee:	48 39 c2             	cmp    %rax,%rdx
  408ff1:	0f 84 71 02 00 00    	je     409268 <__sprintf_chk@plt+0x6d68>
  408ff7:	48 39 d0             	cmp    %rdx,%rax
  408ffa:	0f 86 48 02 00 00    	jbe    409248 <__sprintf_chk@plt+0x6d48>
  409000:	48 8b 74 24 50       	mov    0x50(%rsp),%rsi
  409005:	48 8b 7c 24 10       	mov    0x10(%rsp),%rdi
  40900a:	e8 91 91 ff ff       	callq  4021a0 <memcmp@plt>
  40900f:	85 c0                	test   %eax,%eax
  409011:	0f 9f c0             	setg   %al
  409014:	0f b6 c0             	movzbl %al,%eax
  409017:	8d 44 00 ff          	lea    -0x1(%rax,%rax,1),%eax
  40901b:	e9 f8 fe ff ff       	jmpq   408f18 <__sprintf_chk@plt+0x6a18>
  409020:	80 7c 24 40 00       	cmpb   $0x0,0x40(%rsp)
  409025:	0f 85 52 01 00 00    	jne    40917d <__sprintf_chk@plt+0x6c7d>
  40902b:	48 8b 54 24 50       	mov    0x50(%rsp),%rdx
  409030:	0f b6 02             	movzbl (%rdx),%eax
  409033:	89 c1                	mov    %eax,%ecx
  409035:	83 e0 1f             	and    $0x1f,%eax
  409038:	c0 e9 05             	shr    $0x5,%cl
  40903b:	83 e1 07             	and    $0x7,%ecx
  40903e:	8b 0c 8d 80 57 41 00 	mov    0x415780(,%rcx,4),%ecx
  409045:	0f a3 c1             	bt     %eax,%ecx
  409048:	0f 83 1a 01 00 00    	jae    409168 <__sprintf_chk@plt+0x6c68>
  40904e:	48 c7 44 24 58 01 00 	movq   $0x1,0x58(%rsp)
  409055:	00 00 
  409057:	0f be 02             	movsbl (%rdx),%eax
  40905a:	bb 01 00 00 00       	mov    $0x1,%ebx
  40905f:	c6 44 24 60 01       	movb   $0x1,0x60(%rsp)
  409064:	89 44 24 64          	mov    %eax,0x64(%rsp)
  409068:	84 db                	test   %bl,%bl
  40906a:	c6 44 24 4c 01       	movb   $0x1,0x4c(%rsp)
  40906f:	0f 84 64 ff ff ff    	je     408fd9 <__sprintf_chk@plt+0x6ad9>
  409075:	44 8b 6c 24 64       	mov    0x64(%rsp),%r13d
  40907a:	45 85 ed             	test   %r13d,%r13d
  40907d:	0f 84 b0 03 00 00    	je     409433 <__sprintf_chk@plt+0x6f33>
  409083:	80 7c 24 20 00       	cmpb   $0x0,0x20(%rsp)
  409088:	0f 84 80 fe ff ff    	je     408f0e <__sprintf_chk@plt+0x6a0e>
  40908e:	8b 7c 24 24          	mov    0x24(%rsp),%edi
  409092:	e8 69 93 ff ff       	callq  402400 <towlower@plt>
  409097:	44 89 ef             	mov    %r13d,%edi
  40909a:	89 c3                	mov    %eax,%ebx
  40909c:	e8 5f 93 ff ff       	callq  402400 <towlower@plt>
  4090a1:	29 c3                	sub    %eax,%ebx
  4090a3:	89 d8                	mov    %ebx,%eax
  4090a5:	85 c0                	test   %eax,%eax
  4090a7:	0f 85 6b fe ff ff    	jne    408f18 <__sprintf_chk@plt+0x6a18>
  4090ad:	48 8b 44 24 18       	mov    0x18(%rsp),%rax
  4090b2:	48 01 44 24 10       	add    %rax,0x10(%rsp)
  4090b7:	48 8b 44 24 58       	mov    0x58(%rsp),%rax
  4090bc:	48 01 44 24 50       	add    %rax,0x50(%rsp)
  4090c1:	80 3c 24 00          	cmpb   $0x0,(%rsp)
  4090c5:	c6 44 24 0c 00       	movb   $0x0,0xc(%rsp)
  4090ca:	c6 44 24 4c 00       	movb   $0x0,0x4c(%rsp)
  4090cf:	0f 84 e3 fd ff ff    	je     408eb8 <__sprintf_chk@plt+0x69b8>
  4090d5:	e8 26 8f ff ff       	callq  402000 <__ctype_get_mb_cur_max@plt>
  4090da:	48 8b 5c 24 10       	mov    0x10(%rsp),%rbx
  4090df:	48 89 c6             	mov    %rax,%rsi
  4090e2:	48 89 df             	mov    %rbx,%rdi
  4090e5:	e8 96 26 00 00       	callq  40b780 <__sprintf_chk@plt+0x9280>
  4090ea:	48 8d 4c 24 04       	lea    0x4(%rsp),%rcx
  4090ef:	48 8d 7c 24 24       	lea    0x24(%rsp),%rdi
  4090f4:	48 89 c2             	mov    %rax,%rdx
  4090f7:	48 89 de             	mov    %rbx,%rsi
  4090fa:	e8 61 8f ff ff       	callq  402060 <mbrtowc@plt>
  4090ff:	48 83 f8 ff          	cmp    $0xffffffffffffffff,%rax
  409103:	48 89 44 24 18       	mov    %rax,0x18(%rsp)
  409108:	0f 84 a2 fe ff ff    	je     408fb0 <__sprintf_chk@plt+0x6ab0>
  40910e:	48 83 f8 fe          	cmp    $0xfffffffffffffffe,%rax
  409112:	0f 84 68 01 00 00    	je     409280 <__sprintf_chk@plt+0x6d80>
  409118:	48 85 c0             	test   %rax,%rax
  40911b:	75 25                	jne    409142 <__sprintf_chk@plt+0x6c42>
  40911d:	48 8b 44 24 10       	mov    0x10(%rsp),%rax
  409122:	48 c7 44 24 18 01 00 	movq   $0x1,0x18(%rsp)
  409129:	00 00 
  40912b:	80 38 00             	cmpb   $0x0,(%rax)
  40912e:	0f 85 cd 02 00 00    	jne    409401 <__sprintf_chk@plt+0x6f01>
  409134:	44 8b 4c 24 24       	mov    0x24(%rsp),%r9d
  409139:	45 85 c9             	test   %r9d,%r9d
  40913c:	0f 85 d8 02 00 00    	jne    40941a <__sprintf_chk@plt+0x6f1a>
  409142:	48 8d 7c 24 04       	lea    0x4(%rsp),%rdi
  409147:	c6 44 24 20 01       	movb   $0x1,0x20(%rsp)
  40914c:	e8 3f 93 ff ff       	callq  402490 <mbsinit@plt>
  409151:	85 c0                	test   %eax,%eax
  409153:	0f 84 97 fd ff ff    	je     408ef0 <__sprintf_chk@plt+0x69f0>
  409159:	c6 04 24 00          	movb   $0x0,(%rsp)
  40915d:	e9 8e fd ff ff       	jmpq   408ef0 <__sprintf_chk@plt+0x69f0>
  409162:	66 0f 1f 44 00 00    	nopw   0x0(%rax,%rax,1)
  409168:	4c 89 e7             	mov    %r12,%rdi
  40916b:	e8 20 93 ff ff       	callq  402490 <mbsinit@plt>
  409170:	85 c0                	test   %eax,%eax
  409172:	0f 84 6b 02 00 00    	je     4093e3 <__sprintf_chk@plt+0x6ee3>
  409178:	c6 44 24 40 01       	movb   $0x1,0x40(%rsp)
  40917d:	e8 7e 8e ff ff       	callq  402000 <__ctype_get_mb_cur_max@plt>
  409182:	4c 8b 6c 24 50       	mov    0x50(%rsp),%r13
  409187:	48 89 c6             	mov    %rax,%rsi
  40918a:	4c 89 ef             	mov    %r13,%rdi
  40918d:	e8 ee 25 00 00       	callq  40b780 <__sprintf_chk@plt+0x9280>
  409192:	48 8d 4c 24 44       	lea    0x44(%rsp),%rcx
  409197:	48 8d 7c 24 64       	lea    0x64(%rsp),%rdi
  40919c:	48 89 c2             	mov    %rax,%rdx
  40919f:	4c 89 ee             	mov    %r13,%rsi
  4091a2:	e8 b9 8e ff ff       	callq  402060 <mbrtowc@plt>
  4091a7:	48 83 f8 ff          	cmp    $0xffffffffffffffff,%rax
  4091ab:	48 89 44 24 58       	mov    %rax,0x58(%rsp)
  4091b0:	74 7e                	je     409230 <__sprintf_chk@plt+0x6d30>
  4091b2:	48 83 f8 fe          	cmp    $0xfffffffffffffffe,%rax
  4091b6:	0f 84 e4 00 00 00    	je     4092a0 <__sprintf_chk@plt+0x6da0>
  4091bc:	48 85 c0             	test   %rax,%rax
  4091bf:	75 25                	jne    4091e6 <__sprintf_chk@plt+0x6ce6>
  4091c1:	48 8b 44 24 50       	mov    0x50(%rsp),%rax
  4091c6:	48 c7 44 24 58 01 00 	movq   $0x1,0x58(%rsp)
  4091cd:	00 00 
  4091cf:	80 38 00             	cmpb   $0x0,(%rax)
  4091d2:	0f 85 29 02 00 00    	jne    409401 <__sprintf_chk@plt+0x6f01>
  4091d8:	44 8b 44 24 64       	mov    0x64(%rsp),%r8d
  4091dd:	45 85 c0             	test   %r8d,%r8d
  4091e0:	0f 85 34 02 00 00    	jne    40941a <__sprintf_chk@plt+0x6f1a>
  4091e6:	48 8d 7c 24 44       	lea    0x44(%rsp),%rdi
  4091eb:	c6 44 24 60 01       	movb   $0x1,0x60(%rsp)
  4091f0:	bb 01 00 00 00       	mov    $0x1,%ebx
  4091f5:	e8 96 92 ff ff       	callq  402490 <mbsinit@plt>
  4091fa:	85 c0                	test   %eax,%eax
  4091fc:	0f 84 66 fe ff ff    	je     409068 <__sprintf_chk@plt+0x6b68>
  409202:	c6 44 24 40 00       	movb   $0x0,0x40(%rsp)
  409207:	e9 5c fe ff ff       	jmpq   409068 <__sprintf_chk@plt+0x6b68>
  40920c:	0f 1f 40 00          	nopl   0x0(%rax)
  409210:	48 89 ef             	mov    %rbp,%rdi
  409213:	e8 78 92 ff ff       	callq  402490 <mbsinit@plt>
  409218:	85 c0                	test   %eax,%eax
  40921a:	0f 84 c3 01 00 00    	je     4093e3 <__sprintf_chk@plt+0x6ee3>
  409220:	c6 04 24 01          	movb   $0x1,(%rsp)
  409224:	e9 ac fe ff ff       	jmpq   4090d5 <__sprintf_chk@plt+0x6bd5>
  409229:	0f 1f 80 00 00 00 00 	nopl   0x0(%rax)
  409230:	48 c7 44 24 58 01 00 	movq   $0x1,0x58(%rsp)
  409237:	00 00 
  409239:	c6 44 24 60 00       	movb   $0x0,0x60(%rsp)
  40923e:	e9 25 fe ff ff       	jmpq   409068 <__sprintf_chk@plt+0x6b68>
  409243:	0f 1f 44 00 00       	nopl   0x0(%rax,%rax,1)
  409248:	48 8b 74 24 50       	mov    0x50(%rsp),%rsi
  40924d:	48 8b 7c 24 10       	mov    0x10(%rsp),%rdi
  409252:	48 89 c2             	mov    %rax,%rdx
  409255:	e8 46 8f ff ff       	callq  4021a0 <memcmp@plt>
  40925a:	c1 f8 1f             	sar    $0x1f,%eax
  40925d:	83 c8 01             	or     $0x1,%eax
  409260:	e9 b3 fc ff ff       	jmpq   408f18 <__sprintf_chk@plt+0x6a18>
  409265:	0f 1f 00             	nopl   (%rax)
  409268:	48 8b 74 24 50       	mov    0x50(%rsp),%rsi
  40926d:	48 8b 7c 24 10       	mov    0x10(%rsp),%rdi
  409272:	e8 29 8f ff ff       	callq  4021a0 <memcmp@plt>
  409277:	e9 29 fe ff ff       	jmpq   4090a5 <__sprintf_chk@plt+0x6ba5>
  40927c:	0f 1f 40 00          	nopl   0x0(%rax)
  409280:	48 8b 7c 24 10       	mov    0x10(%rsp),%rdi
  409285:	e8 86 8d ff ff       	callq  402010 <strlen@plt>
  40928a:	c6 44 24 20 00       	movb   $0x0,0x20(%rsp)
  40928f:	48 89 44 24 18       	mov    %rax,0x18(%rsp)
  409294:	e9 25 fd ff ff       	jmpq   408fbe <__sprintf_chk@plt+0x6abe>
  409299:	0f 1f 80 00 00 00 00 	nopl   0x0(%rax)
  4092a0:	48 8b 7c 24 50       	mov    0x50(%rsp),%rdi
  4092a5:	e8 66 8d ff ff       	callq  402010 <strlen@plt>
  4092aa:	c6 44 24 60 00       	movb   $0x0,0x60(%rsp)
  4092af:	48 89 44 24 58       	mov    %rax,0x58(%rsp)
  4092b4:	e9 af fd ff ff       	jmpq   409068 <__sprintf_chk@plt+0x6b68>
  4092b9:	0f 1f 80 00 00 00 00 	nopl   0x0(%rax)
  4092c0:	31 c0                	xor    %eax,%eax
  4092c2:	e9 51 fc ff ff       	jmpq   408f18 <__sprintf_chk@plt+0x6a18>
  4092c7:	66 0f 1f 84 00 00 00 	nopw   0x0(%rax,%rax,1)
  4092ce:	00 00 
  4092d0:	8b 74 24 24          	mov    0x24(%rsp),%esi
  4092d4:	85 f6                	test   %esi,%esi
  4092d6:	0f 85 32 fc ff ff    	jne    408f0e <__sprintf_chk@plt+0x6a0e>
  4092dc:	80 7c 24 4c 00       	cmpb   $0x0,0x4c(%rsp)
  4092e1:	0f 85 e3 00 00 00    	jne    4093ca <__sprintf_chk@plt+0x6eca>
  4092e7:	80 7c 24 40 00       	cmpb   $0x0,0x40(%rsp)
  4092ec:	48 8d 6c 24 40       	lea    0x40(%rsp),%rbp
  4092f1:	75 3f                	jne    409332 <__sprintf_chk@plt+0x6e32>
  4092f3:	48 8b 54 24 50       	mov    0x50(%rsp),%rdx
  4092f8:	0f b6 02             	movzbl (%rdx),%eax
  4092fb:	89 c1                	mov    %eax,%ecx
  4092fd:	83 e0 1f             	and    $0x1f,%eax
  409300:	c0 e9 05             	shr    $0x5,%cl
  409303:	83 e1 07             	and    $0x7,%ecx
  409306:	8b 0c 8d 80 57 41 00 	mov    0x415780(,%rcx,4),%ecx
  40930d:	0f a3 c1             	bt     %eax,%ecx
  409310:	0f 82 bb 00 00 00    	jb     4093d1 <__sprintf_chk@plt+0x6ed1>
  409316:	48 8d 7c 24 44       	lea    0x44(%rsp),%rdi
  40931b:	48 8d 6c 24 40       	lea    0x40(%rsp),%rbp
  409320:	e8 6b 91 ff ff       	callq  402490 <mbsinit@plt>
  409325:	85 c0                	test   %eax,%eax
  409327:	0f 84 b6 00 00 00    	je     4093e3 <__sprintf_chk@plt+0x6ee3>
  40932d:	c6 44 24 40 01       	movb   $0x1,0x40(%rsp)
  409332:	e8 c9 8c ff ff       	callq  402000 <__ctype_get_mb_cur_max@plt>
  409337:	4c 8b 64 24 50       	mov    0x50(%rsp),%r12
  40933c:	48 89 c6             	mov    %rax,%rsi
  40933f:	4c 89 e7             	mov    %r12,%rdi
  409342:	e8 39 24 00 00       	callq  40b780 <__sprintf_chk@plt+0x9280>
  409347:	48 8d 4d 04          	lea    0x4(%rbp),%rcx
  40934b:	48 8d 7d 24          	lea    0x24(%rbp),%rdi
  40934f:	48 89 c2             	mov    %rax,%rdx
  409352:	4c 89 e6             	mov    %r12,%rsi
  409355:	e8 06 8d ff ff       	callq  402060 <mbrtowc@plt>
  40935a:	48 8d 50 02          	lea    0x2(%rax),%rdx
  40935e:	48 89 44 24 58       	mov    %rax,0x58(%rsp)
  409363:	48 83 fa 01          	cmp    $0x1,%rdx
  409367:	76 57                	jbe    4093c0 <__sprintf_chk@plt+0x6ec0>
  409369:	48 85 c0             	test   %rax,%rax
  40936c:	75 2a                	jne    409398 <__sprintf_chk@plt+0x6e98>
  40936e:	48 8b 44 24 50       	mov    0x50(%rsp),%rax
  409373:	48 c7 44 24 58 01 00 	movq   $0x1,0x58(%rsp)
  40937a:	00 00 
  40937c:	80 38 00             	cmpb   $0x0,(%rax)
  40937f:	0f 85 7c 00 00 00    	jne    409401 <__sprintf_chk@plt+0x6f01>
  409385:	8b 4c 24 64          	mov    0x64(%rsp),%ecx
  409389:	85 c9                	test   %ecx,%ecx
  40938b:	0f 85 89 00 00 00    	jne    40941a <__sprintf_chk@plt+0x6f1a>
  409391:	0f 1f 80 00 00 00 00 	nopl   0x0(%rax)
  409398:	84 db                	test   %bl,%bl
  40939a:	74 24                	je     4093c0 <__sprintf_chk@plt+0x6ec0>
  40939c:	8b 54 24 64          	mov    0x64(%rsp),%edx
  4093a0:	31 c0                	xor    %eax,%eax
  4093a2:	85 d2                	test   %edx,%edx
  4093a4:	0f 95 c0             	setne  %al
  4093a7:	f7 d8                	neg    %eax
  4093a9:	e9 6a fb ff ff       	jmpq   408f18 <__sprintf_chk@plt+0x6a18>
  4093ae:	66 90                	xchg   %ax,%ax
  4093b0:	0f b6 c3             	movzbl %bl,%eax
  4093b3:	29 d0                	sub    %edx,%eax
  4093b5:	e9 5e fb ff ff       	jmpq   408f18 <__sprintf_chk@plt+0x6a18>
  4093ba:	66 0f 1f 44 00 00    	nopw   0x0(%rax,%rax,1)
  4093c0:	b8 ff ff ff ff       	mov    $0xffffffff,%eax
  4093c5:	e9 4e fb ff ff       	jmpq   408f18 <__sprintf_chk@plt+0x6a18>
  4093ca:	0f b6 5c 24 60       	movzbl 0x60(%rsp),%ebx
  4093cf:	eb c7                	jmp    409398 <__sprintf_chk@plt+0x6e98>
  4093d1:	48 c7 44 24 58 01 00 	movq   $0x1,0x58(%rsp)
  4093d8:	00 00 
  4093da:	0f be 02             	movsbl (%rdx),%eax
  4093dd:	89 44 24 64          	mov    %eax,0x64(%rsp)
  4093e1:	eb b5                	jmp    409398 <__sprintf_chk@plt+0x6e98>
  4093e3:	b9 a0 57 41 00       	mov    $0x4157a0,%ecx
  4093e8:	ba 93 00 00 00       	mov    $0x93,%edx
  4093ed:	be f2 51 41 00       	mov    $0x4151f2,%esi
  4093f2:	bf 00 52 41 00       	mov    $0x415200,%edi
  4093f7:	e8 d4 8c ff ff       	callq  4020d0 <__assert_fail@plt>
  4093fc:	e8 3f 8c ff ff       	callq  402040 <__stack_chk_fail@plt>
  409401:	b9 a0 57 41 00       	mov    $0x4157a0,%ecx
  409406:	ba af 00 00 00       	mov    $0xaf,%edx
  40940b:	be f2 51 41 00       	mov    $0x4151f2,%esi
  409410:	bf 17 52 41 00       	mov    $0x415217,%edi
  409415:	e8 b6 8c ff ff       	callq  4020d0 <__assert_fail@plt>
  40941a:	b9 a0 57 41 00       	mov    $0x4157a0,%ecx
  40941f:	ba b0 00 00 00       	mov    $0xb0,%edx
  409424:	be f2 51 41 00       	mov    $0x4151f2,%esi
  409429:	bf 2e 52 41 00       	mov    $0x41522e,%edi
  40942e:	e8 9d 8c ff ff       	callq  4020d0 <__assert_fail@plt>
  409433:	80 7c 24 0c 00       	cmpb   $0x0,0xc(%rsp)
  409438:	0f 85 c3 fa ff ff    	jne    408f01 <__sprintf_chk@plt+0x6a01>
  40943e:	80 3c 24 00          	cmpb   $0x0,(%rsp)
  409442:	48 89 e5             	mov    %rsp,%rbp
  409445:	75 5f                	jne    4094a6 <__sprintf_chk@plt+0x6fa6>
  409447:	48 8b 54 24 10       	mov    0x10(%rsp),%rdx
  40944c:	0f b6 02             	movzbl (%rdx),%eax
  40944f:	89 c1                	mov    %eax,%ecx
  409451:	83 e0 1f             	and    $0x1f,%eax
  409454:	c0 e9 05             	shr    $0x5,%cl
  409457:	83 e1 07             	and    $0x7,%ecx
  40945a:	8b 0c 8d 80 57 41 00 	mov    0x415780(,%rcx,4),%ecx
  409461:	0f a3 c1             	bt     %eax,%ecx
  409464:	73 27                	jae    40948d <__sprintf_chk@plt+0x6f8d>
  409466:	48 c7 44 24 18 01 00 	movq   $0x1,0x18(%rsp)
  40946d:	00 00 
  40946f:	0f be 02             	movsbl (%rdx),%eax
  409472:	c6 44 24 20 01       	movb   $0x1,0x20(%rsp)
  409477:	89 44 24 24          	mov    %eax,0x24(%rsp)
  40947b:	84 db                	test   %bl,%bl
  40947d:	c6 44 24 0c 01       	movb   $0x1,0xc(%rsp)
  409482:	0f 84 86 fa ff ff    	je     408f0e <__sprintf_chk@plt+0x6a0e>
  409488:	e9 43 fe ff ff       	jmpq   4092d0 <__sprintf_chk@plt+0x6dd0>
  40948d:	48 8d 7c 24 04       	lea    0x4(%rsp),%rdi
  409492:	48 89 e5             	mov    %rsp,%rbp
  409495:	e8 f6 8f ff ff       	callq  402490 <mbsinit@plt>
  40949a:	85 c0                	test   %eax,%eax
  40949c:	0f 84 41 ff ff ff    	je     4093e3 <__sprintf_chk@plt+0x6ee3>
  4094a2:	c6 04 24 01          	movb   $0x1,(%rsp)
  4094a6:	e8 55 8b ff ff       	callq  402000 <__ctype_get_mb_cur_max@plt>
  4094ab:	4c 8b 64 24 10       	mov    0x10(%rsp),%r12
  4094b0:	48 89 c6             	mov    %rax,%rsi
  4094b3:	4c 89 e7             	mov    %r12,%rdi
  4094b6:	e8 c5 22 00 00       	callq  40b780 <__sprintf_chk@plt+0x9280>
  4094bb:	48 8d 4d 04          	lea    0x4(%rbp),%rcx
  4094bf:	48 8d 7d 24          	lea    0x24(%rbp),%rdi
  4094c3:	48 89 c2             	mov    %rax,%rdx
  4094c6:	4c 89 e6             	mov    %r12,%rsi
  4094c9:	e8 92 8b ff ff       	callq  402060 <mbrtowc@plt>
  4094ce:	48 83 f8 ff          	cmp    $0xffffffffffffffff,%rax
  4094d2:	48 89 44 24 18       	mov    %rax,0x18(%rsp)
  4094d7:	74 4d                	je     409526 <__sprintf_chk@plt+0x7026>
  4094d9:	48 83 f8 fe          	cmp    $0xfffffffffffffffe,%rax
  4094dd:	74 5c                	je     40953b <__sprintf_chk@plt+0x703b>
  4094df:	48 85 c0             	test   %rax,%rax
  4094e2:	75 23                	jne    409507 <__sprintf_chk@plt+0x7007>
  4094e4:	48 8b 44 24 10       	mov    0x10(%rsp),%rax
  4094e9:	48 c7 44 24 18 01 00 	movq   $0x1,0x18(%rsp)
  4094f0:	00 00 
  4094f2:	80 38 00             	cmpb   $0x0,(%rax)
  4094f5:	0f 85 06 ff ff ff    	jne    409401 <__sprintf_chk@plt+0x6f01>
  4094fb:	8b 7c 24 24          	mov    0x24(%rsp),%edi
  4094ff:	85 ff                	test   %edi,%edi
  409501:	0f 85 13 ff ff ff    	jne    40941a <__sprintf_chk@plt+0x6f1a>
  409507:	48 8d 7d 04          	lea    0x4(%rbp),%rdi
  40950b:	c6 44 24 20 01       	movb   $0x1,0x20(%rsp)
  409510:	e8 7b 8f ff ff       	callq  402490 <mbsinit@plt>
  409515:	85 c0                	test   %eax,%eax
  409517:	0f 84 5e ff ff ff    	je     40947b <__sprintf_chk@plt+0x6f7b>
  40951d:	c6 04 24 00          	movb   $0x0,(%rsp)
  409521:	e9 55 ff ff ff       	jmpq   40947b <__sprintf_chk@plt+0x6f7b>
  409526:	48 c7 44 24 18 01 00 	movq   $0x1,0x18(%rsp)
  40952d:	00 00 
  40952f:	c6 44 24 20 00       	movb   $0x0,0x20(%rsp)
  409534:	31 db                	xor    %ebx,%ebx
  409536:	e9 40 ff ff ff       	jmpq   40947b <__sprintf_chk@plt+0x6f7b>
  40953b:	48 8b 7c 24 10       	mov    0x10(%rsp),%rdi
  409540:	31 db                	xor    %ebx,%ebx
  409542:	e8 c9 8a ff ff       	callq  402010 <strlen@plt>
  409547:	c6 44 24 20 00       	movb   $0x0,0x20(%rsp)
  40954c:	48 89 44 24 18       	mov    %rax,0x18(%rsp)
  409551:	e9 25 ff ff ff       	jmpq   40947b <__sprintf_chk@plt+0x6f7b>
  409556:	66 2e 0f 1f 84 00 00 	nopw   %cs:0x0(%rax,%rax,1)
  40955d:	00 00 00 
  409560:	48 85 ff             	test   %rdi,%rdi
  409563:	53                   	push   %rbx
  409564:	48 89 fb             	mov    %rdi,%rbx
  409567:	74 6a                	je     4095d3 <__sprintf_chk@plt+0x70d3>
  409569:	be 2f 00 00 00       	mov    $0x2f,%esi
  40956e:	e8 3d 8b ff ff       	callq  4020b0 <strrchr@plt>
  409573:	48 85 c0             	test   %rax,%rax
  409576:	74 4b                	je     4095c3 <__sprintf_chk@plt+0x70c3>
  409578:	48 8d 50 01          	lea    0x1(%rax),%rdx
  40957c:	48 89 d1             	mov    %rdx,%rcx
  40957f:	48 29 d9             	sub    %rbx,%rcx
  409582:	48 83 f9 06          	cmp    $0x6,%rcx
  409586:	7e 3b                	jle    4095c3 <__sprintf_chk@plt+0x70c3>
  409588:	48 8d 70 fa          	lea    -0x6(%rax),%rsi
  40958c:	bf f0 57 41 00       	mov    $0x4157f0,%edi
  409591:	b9 07 00 00 00       	mov    $0x7,%ecx
  409596:	f3 a6                	repz cmpsb %es:(%rdi),%ds:(%rsi)
  409598:	75 29                	jne    4095c3 <__sprintf_chk@plt+0x70c3>
  40959a:	b9 03 00 00 00       	mov    $0x3,%ecx
  40959f:	48 89 d6             	mov    %rdx,%rsi
  4095a2:	bf f8 57 41 00       	mov    $0x4157f8,%edi
  4095a7:	f3 a6                	repz cmpsb %es:(%rdi),%ds:(%rsi)
  4095a9:	48 89 d3             	mov    %rdx,%rbx
  4095ac:	40 0f 97 c6          	seta   %sil
  4095b0:	0f 92 c1             	setb   %cl
  4095b3:	40 38 ce             	cmp    %cl,%sil
  4095b6:	75 0b                	jne    4095c3 <__sprintf_chk@plt+0x70c3>
  4095b8:	48 8d 58 04          	lea    0x4(%rax),%rbx
  4095bc:	48 89 1d 3d 0e 21 00 	mov    %rbx,0x210e3d(%rip)        # 61a400 <__progname>
  4095c3:	48 89 1d 36 0f 21 00 	mov    %rbx,0x210f36(%rip)        # 61a500 <stderr+0xb0>
  4095ca:	48 89 1d 77 0e 21 00 	mov    %rbx,0x210e77(%rip)        # 61a448 <__progname_full>
  4095d1:	5b                   	pop    %rbx
  4095d2:	c3                   	retq   
  4095d3:	48 8b 0d 76 0e 21 00 	mov    0x210e76(%rip),%rcx        # 61a450 <stderr>
  4095da:	ba 37 00 00 00       	mov    $0x37,%edx
  4095df:	be 01 00 00 00       	mov    $0x1,%esi
  4095e4:	bf b8 57 41 00       	mov    $0x4157b8,%edi
  4095e9:	e8 72 8e ff ff       	callq  402460 <fwrite@plt>
  4095ee:	e8 0d 89 ff ff       	callq  401f00 <abort@plt>
  4095f3:	66 2e 0f 1f 84 00 00 	nopw   %cs:0x0(%rax,%rax,1)
  4095fa:	00 00 00 
  4095fd:	0f 1f 00             	nopl   (%rax)
  409600:	41 57                	push   %r15
  409602:	41 56                	push   %r14
  409604:	41 55                	push   %r13
  409606:	41 54                	push   %r12
  409608:	49 89 fc             	mov    %rdi,%r12
  40960b:	48 89 f7             	mov    %rsi,%rdi
  40960e:	be 02 00 00 00       	mov    $0x2,%esi
  409613:	55                   	push   %rbp
  409614:	53                   	push   %rbx
  409615:	48 81 ec b8 00 00 00 	sub    $0xb8,%rsp
  40961c:	64 48 8b 04 25 28 00 	mov    %fs:0x28,%rax
  409623:	00 00 
  409625:	48 89 84 24 a8 00 00 	mov    %rax,0xa8(%rsp)
  40962c:	00 
  40962d:	31 c0                	xor    %eax,%eax
  40962f:	e8 8c 21 00 00       	callq  40b7c0 <__sprintf_chk@plt+0x92c0>
  409634:	48 89 44 24 10       	mov    %rax,0x10(%rsp)
  409639:	48 8d 84 24 84 00 00 	lea    0x84(%rsp),%rax
  409640:	00 
  409641:	4c 8d 6c 24 44       	lea    0x44(%rsp),%r13
  409646:	48 89 44 24 08       	mov    %rax,0x8(%rsp)
  40964b:	0f 1f 44 00 00       	nopl   0x0(%rax,%rax,1)
  409650:	41 80 3c 24 00       	cmpb   $0x0,(%r12)
  409655:	0f 84 1d 03 00 00    	je     409978 <__sprintf_chk@plt+0x7478>
  40965b:	48 8b 74 24 10       	mov    0x10(%rsp),%rsi
  409660:	4c 89 e7             	mov    %r12,%rdi
  409663:	e8 58 7f 00 00       	callq  4115c0 <fts_children+0x1c00>
  409668:	48 85 c0             	test   %rax,%rax
  40966b:	48 89 c3             	mov    %rax,%rbx
  40966e:	0f 84 04 03 00 00    	je     409978 <__sprintf_chk@plt+0x7478>
  409674:	e8 87 89 ff ff       	callq  402000 <__ctype_get_mb_cur_max@plt>
  409679:	48 83 f8 01          	cmp    $0x1,%rax
  40967d:	0f 86 1d 06 00 00    	jbe    409ca0 <__sprintf_chk@plt+0x77a0>
  409683:	49 39 dc             	cmp    %rbx,%r12
  409686:	4c 89 64 24 30       	mov    %r12,0x30(%rsp)
  40968b:	c6 44 24 20 00       	movb   $0x0,0x20(%rsp)
  409690:	48 8d 6c 24 24       	lea    0x24(%rsp),%rbp
  409695:	48 c7 44 24 24 00 00 	movq   $0x0,0x24(%rsp)
  40969c:	00 00 
  40969e:	c6 44 24 2c 00       	movb   $0x0,0x2c(%rsp)
  4096a3:	0f 83 5f 06 00 00    	jae    409d08 <__sprintf_chk@plt+0x7808>
  4096a9:	0f 1f 80 00 00 00 00 	nopl   0x0(%rax)
  4096b0:	80 7c 24 20 00       	cmpb   $0x0,0x20(%rsp)
  4096b5:	75 66                	jne    40971d <__sprintf_chk@plt+0x721d>
  4096b7:	4c 8b 64 24 30       	mov    0x30(%rsp),%r12
  4096bc:	41 0f b6 04 24       	movzbl (%r12),%eax
  4096c1:	89 c2                	mov    %eax,%edx
  4096c3:	83 e0 1f             	and    $0x1f,%eax
  4096c6:	c0 ea 05             	shr    $0x5,%dl
  4096c9:	83 e2 07             	and    $0x7,%edx
  4096cc:	8b 14 95 80 57 41 00 	mov    0x415780(,%rdx,4),%edx
  4096d3:	0f a3 c2             	bt     %eax,%edx
  4096d6:	73 30                	jae    409708 <__sprintf_chk@plt+0x7208>
  4096d8:	48 c7 44 24 38 01 00 	movq   $0x1,0x38(%rsp)
  4096df:	00 00 
  4096e1:	41 0f be 0c 24       	movsbl (%r12),%ecx
  4096e6:	c6 44 24 40 01       	movb   $0x1,0x40(%rsp)
  4096eb:	89 4c 24 44          	mov    %ecx,0x44(%rsp)
  4096ef:	41 89 cf             	mov    %ecx,%r15d
  4096f2:	45 85 ff             	test   %r15d,%r15d
  4096f5:	c6 44 24 2c 01       	movb   $0x1,0x2c(%rsp)
  4096fa:	0f 85 b7 00 00 00    	jne    4097b7 <__sprintf_chk@plt+0x72b7>
  409700:	e8 fb 87 ff ff       	callq  401f00 <abort@plt>
  409705:	0f 1f 00             	nopl   (%rax)
  409708:	48 89 ef             	mov    %rbp,%rdi
  40970b:	e8 80 8d ff ff       	callq  402490 <mbsinit@plt>
  409710:	85 c0                	test   %eax,%eax
  409712:	0f 84 a5 07 00 00    	je     409ebd <__sprintf_chk@plt+0x79bd>
  409718:	c6 44 24 20 01       	movb   $0x1,0x20(%rsp)
  40971d:	e8 de 88 ff ff       	callq  402000 <__ctype_get_mb_cur_max@plt>
  409722:	4c 8b 64 24 30       	mov    0x30(%rsp),%r12
  409727:	48 89 c6             	mov    %rax,%rsi
  40972a:	4c 89 e7             	mov    %r12,%rdi
  40972d:	e8 4e 20 00 00       	callq  40b780 <__sprintf_chk@plt+0x9280>
  409732:	48 89 e9             	mov    %rbp,%rcx
  409735:	48 89 c2             	mov    %rax,%rdx
  409738:	4c 89 e6             	mov    %r12,%rsi
  40973b:	4c 89 ef             	mov    %r13,%rdi
  40973e:	e8 1d 89 ff ff       	callq  402060 <mbrtowc@plt>
  409743:	48 83 f8 ff          	cmp    $0xffffffffffffffff,%rax
  409747:	48 89 44 24 38       	mov    %rax,0x38(%rsp)
  40974c:	0f 84 a6 04 00 00    	je     409bf8 <__sprintf_chk@plt+0x76f8>
  409752:	48 83 f8 fe          	cmp    $0xfffffffffffffffe,%rax
  409756:	0f 84 0c 05 00 00    	je     409c68 <__sprintf_chk@plt+0x7768>
  40975c:	48 85 c0             	test   %rax,%rax
  40975f:	0f 85 f3 04 00 00    	jne    409c58 <__sprintf_chk@plt+0x7758>
  409765:	4c 8b 64 24 30       	mov    0x30(%rsp),%r12
  40976a:	48 c7 44 24 38 01 00 	movq   $0x1,0x38(%rsp)
  409771:	00 00 
  409773:	41 80 3c 24 00       	cmpb   $0x0,(%r12)
  409778:	0f 85 58 07 00 00    	jne    409ed6 <__sprintf_chk@plt+0x79d6>
  40977e:	44 8b 54 24 44       	mov    0x44(%rsp),%r10d
  409783:	45 85 d2             	test   %r10d,%r10d
  409786:	0f 85 68 07 00 00    	jne    409ef4 <__sprintf_chk@plt+0x79f4>
  40978c:	45 31 ff             	xor    %r15d,%r15d
  40978f:	48 89 ef             	mov    %rbp,%rdi
  409792:	c6 44 24 40 01       	movb   $0x1,0x40(%rsp)
  409797:	e8 f4 8c ff ff       	callq  402490 <mbsinit@plt>
  40979c:	85 c0                	test   %eax,%eax
  40979e:	0f 84 4e ff ff ff    	je     4096f2 <__sprintf_chk@plt+0x71f2>
  4097a4:	45 85 ff             	test   %r15d,%r15d
  4097a7:	c6 44 24 20 00       	movb   $0x0,0x20(%rsp)
  4097ac:	c6 44 24 2c 01       	movb   $0x1,0x2c(%rsp)
  4097b1:	0f 84 49 ff ff ff    	je     409700 <__sprintf_chk@plt+0x7200>
  4097b7:	4c 8b 64 24 30       	mov    0x30(%rsp),%r12
  4097bc:	4c 89 e0             	mov    %r12,%rax
  4097bf:	48 03 44 24 38       	add    0x38(%rsp),%rax
  4097c4:	0f b6 54 24 40       	movzbl 0x40(%rsp),%edx
  4097c9:	c6 44 24 2c 00       	movb   $0x0,0x2c(%rsp)
  4097ce:	48 39 c3             	cmp    %rax,%rbx
  4097d1:	48 89 44 24 30       	mov    %rax,0x30(%rsp)
  4097d6:	0f 87 d4 fe ff ff    	ja     4096b0 <__sprintf_chk@plt+0x71b0>
  4097dc:	84 d2                	test   %dl,%dl
  4097de:	0f 84 24 05 00 00    	je     409d08 <__sprintf_chk@plt+0x7808>
  4097e4:	44 89 ff             	mov    %r15d,%edi
  4097e7:	e8 94 8a ff ff       	callq  402280 <iswalnum@plt>
  4097ec:	85 c0                	test   %eax,%eax
  4097ee:	0f 94 44 24 1f       	sete   0x1f(%rsp)
  4097f3:	c6 44 24 60 00       	movb   $0x0,0x60(%rsp)
  4097f8:	80 7c 24 60 00       	cmpb   $0x0,0x60(%rsp)
  4097fd:	48 8d 6c 24 64       	lea    0x64(%rsp),%rbp
  409802:	48 8b 44 24 10       	mov    0x10(%rsp),%rax
  409807:	48 89 5c 24 30       	mov    %rbx,0x30(%rsp)
  40980c:	4c 8d 64 24 24       	lea    0x24(%rsp),%r12
  409811:	c6 44 24 20 00       	movb   $0x0,0x20(%rsp)
  409816:	48 c7 44 24 24 00 00 	movq   $0x0,0x24(%rsp)
  40981d:	00 00 
  40981f:	c6 44 24 2c 00       	movb   $0x0,0x2c(%rsp)
  409824:	48 c7 44 24 64 00 00 	movq   $0x0,0x64(%rsp)
  40982b:	00 00 
  40982d:	48 89 44 24 70       	mov    %rax,0x70(%rsp)
  409832:	c6 44 24 6c 00       	movb   $0x0,0x6c(%rsp)
  409837:	0f 85 e8 01 00 00    	jne    409a25 <__sprintf_chk@plt+0x7525>
  40983d:	0f 1f 00             	nopl   (%rax)
  409840:	48 8b 54 24 70       	mov    0x70(%rsp),%rdx
  409845:	0f b6 02             	movzbl (%rdx),%eax
  409848:	89 c1                	mov    %eax,%ecx
  40984a:	83 e0 1f             	and    $0x1f,%eax
  40984d:	c0 e9 05             	shr    $0x5,%cl
  409850:	83 e1 07             	and    $0x7,%ecx
  409853:	8b 0c 8d 80 57 41 00 	mov    0x415780(,%rcx,4),%ecx
  40985a:	0f a3 c1             	bt     %eax,%ecx
  40985d:	0f 83 5d 03 00 00    	jae    409bc0 <__sprintf_chk@plt+0x76c0>
  409863:	48 c7 44 24 78 01 00 	movq   $0x1,0x78(%rsp)
  40986a:	00 00 
  40986c:	0f be 02             	movsbl (%rdx),%eax
  40986f:	c6 84 24 80 00 00 00 	movb   $0x1,0x80(%rsp)
  409876:	01 
  409877:	89 84 24 84 00 00 00 	mov    %eax,0x84(%rsp)
  40987e:	8b 94 24 84 00 00 00 	mov    0x84(%rsp),%edx
  409885:	c6 44 24 6c 01       	movb   $0x1,0x6c(%rsp)
  40988a:	85 d2                	test   %edx,%edx
  40988c:	0f 85 4c 01 00 00    	jne    4099de <__sprintf_chk@plt+0x74de>
  409892:	0f b6 6c 24 2c       	movzbl 0x2c(%rsp),%ebp
  409897:	40 84 ed             	test   %bpl,%bpl
  40989a:	0f 85 f0 03 00 00    	jne    409c90 <__sprintf_chk@plt+0x7790>
  4098a0:	80 7c 24 20 00       	cmpb   $0x0,0x20(%rsp)
  4098a5:	0f 85 21 05 00 00    	jne    409dcc <__sprintf_chk@plt+0x78cc>
  4098ab:	48 8b 54 24 30       	mov    0x30(%rsp),%rdx
  4098b0:	0f b6 02             	movzbl (%rdx),%eax
  4098b3:	89 c1                	mov    %eax,%ecx
  4098b5:	83 e0 1f             	and    $0x1f,%eax
  4098b8:	c0 e9 05             	shr    $0x5,%cl
  4098bb:	83 e1 07             	and    $0x7,%ecx
  4098be:	8b 0c 8d 80 57 41 00 	mov    0x415780(,%rcx,4),%ecx
  4098c5:	0f a3 c1             	bt     %eax,%ecx
  4098c8:	0f 83 e7 04 00 00    	jae    409db5 <__sprintf_chk@plt+0x78b5>
  4098ce:	48 c7 44 24 38 01 00 	movq   $0x1,0x38(%rsp)
  4098d5:	00 00 
  4098d7:	44 0f be 22          	movsbl (%rdx),%r12d
  4098db:	bd 01 00 00 00       	mov    $0x1,%ebp
  4098e0:	c6 44 24 40 01       	movb   $0x1,0x40(%rsp)
  4098e5:	44 89 64 24 44       	mov    %r12d,0x44(%rsp)
  4098ea:	c6 44 24 2c 01       	movb   $0x1,0x2c(%rsp)
  4098ef:	40 84 ed             	test   %bpl,%bpl
  4098f2:	74 05                	je     4098f9 <__sprintf_chk@plt+0x73f9>
  4098f4:	45 85 e4             	test   %r12d,%r12d
  4098f7:	74 17                	je     409910 <__sprintf_chk@plt+0x7410>
  4098f9:	80 7c 24 40 00       	cmpb   $0x0,0x40(%rsp)
  4098fe:	74 10                	je     409910 <__sprintf_chk@plt+0x7410>
  409900:	44 89 e7             	mov    %r12d,%edi
  409903:	e8 78 89 ff ff       	callq  402280 <iswalnum@plt>
  409908:	85 c0                	test   %eax,%eax
  40990a:	75 0f                	jne    40991b <__sprintf_chk@plt+0x741b>
  40990c:	0f 1f 40 00          	nopl   0x0(%rax)
  409910:	80 7c 24 1f 00       	cmpb   $0x0,0x1f(%rsp)
  409915:	0f 85 98 05 00 00    	jne    409eb3 <__sprintf_chk@plt+0x79b3>
  40991b:	48 89 5c 24 30       	mov    %rbx,0x30(%rsp)
  409920:	c6 44 24 20 00       	movb   $0x0,0x20(%rsp)
  409925:	48 8d 6c 24 24       	lea    0x24(%rsp),%rbp
  40992a:	48 c7 44 24 24 00 00 	movq   $0x0,0x24(%rsp)
  409931:	00 00 
  409933:	c6 44 24 2c 00       	movb   $0x0,0x2c(%rsp)
  409938:	0f b6 03             	movzbl (%rbx),%eax
  40993b:	89 c2                	mov    %eax,%edx
  40993d:	83 e0 1f             	and    $0x1f,%eax
  409940:	c0 ea 05             	shr    $0x5,%dl
  409943:	83 e2 07             	and    $0x7,%edx
  409946:	8b 14 95 80 57 41 00 	mov    0x415780(,%rdx,4),%edx
  40994d:	0f a3 c2             	bt     %eax,%edx
  409950:	0f 83 c2 03 00 00    	jae    409d18 <__sprintf_chk@plt+0x7818>
  409956:	48 c7 44 24 38 01 00 	movq   $0x1,0x38(%rsp)
  40995d:	00 00 
  40995f:	0f be 03             	movsbl (%rbx),%eax
  409962:	c6 44 24 40 01       	movb   $0x1,0x40(%rsp)
  409967:	89 44 24 44          	mov    %eax,0x44(%rsp)
  40996b:	8b 44 24 44          	mov    0x44(%rsp),%eax
  40996f:	c6 44 24 2c 01       	movb   $0x1,0x2c(%rsp)
  409974:	85 c0                	test   %eax,%eax
  409976:	75 40                	jne    4099b8 <__sprintf_chk@plt+0x74b8>
  409978:	31 db                	xor    %ebx,%ebx
  40997a:	48 8b 7c 24 10       	mov    0x10(%rsp),%rdi
  40997f:	e8 4c 85 ff ff       	callq  401ed0 <free@plt>
  409984:	89 d8                	mov    %ebx,%eax
  409986:	48 8b 9c 24 a8 00 00 	mov    0xa8(%rsp),%rbx
  40998d:	00 
  40998e:	64 48 33 1c 25 28 00 	xor    %fs:0x28,%rbx
  409995:	00 00 
  409997:	0f 85 52 05 00 00    	jne    409eef <__sprintf_chk@plt+0x79ef>
  40999d:	48 81 c4 b8 00 00 00 	add    $0xb8,%rsp
  4099a4:	5b                   	pop    %rbx
  4099a5:	5d                   	pop    %rbp
  4099a6:	41 5c                	pop    %r12
  4099a8:	41 5d                	pop    %r13
  4099aa:	41 5e                	pop    %r14
  4099ac:	41 5f                	pop    %r15
  4099ae:	c3                   	retq   
  4099af:	48 c7 44 24 38 01 00 	movq   $0x1,0x38(%rsp)
  4099b6:	00 00 
  4099b8:	48 03 5c 24 38       	add    0x38(%rsp),%rbx
  4099bd:	49 89 dc             	mov    %rbx,%r12
  4099c0:	e9 8b fc ff ff       	jmpq   409650 <__sprintf_chk@plt+0x7150>
  4099c5:	0f 1f 00             	nopl   (%rax)
  4099c8:	48 c7 44 24 78 01 00 	movq   $0x1,0x78(%rsp)
  4099cf:	00 00 
  4099d1:	c6 84 24 80 00 00 00 	movb   $0x0,0x80(%rsp)
  4099d8:	00 
  4099d9:	c6 44 24 6c 01       	movb   $0x1,0x6c(%rsp)
  4099de:	44 0f b6 7c 24 2c    	movzbl 0x2c(%rsp),%r15d
  4099e4:	45 84 ff             	test   %r15b,%r15b
  4099e7:	0f 84 cb 00 00 00    	je     409ab8 <__sprintf_chk@plt+0x75b8>
  4099ed:	44 0f b6 7c 24 40    	movzbl 0x40(%rsp),%r15d
  4099f3:	45 84 ff             	test   %r15b,%r15b
  4099f6:	0f 85 0b 01 00 00    	jne    409b07 <__sprintf_chk@plt+0x7607>
  4099fc:	48 8b 44 24 38       	mov    0x38(%rsp),%rax
  409a01:	48 01 44 24 30       	add    %rax,0x30(%rsp)
  409a06:	48 8b 44 24 78       	mov    0x78(%rsp),%rax
  409a0b:	48 01 44 24 70       	add    %rax,0x70(%rsp)
  409a10:	80 7c 24 60 00       	cmpb   $0x0,0x60(%rsp)
  409a15:	c6 44 24 2c 00       	movb   $0x0,0x2c(%rsp)
  409a1a:	c6 44 24 6c 00       	movb   $0x0,0x6c(%rsp)
  409a1f:	0f 84 1b fe ff ff    	je     409840 <__sprintf_chk@plt+0x7340>
  409a25:	e8 d6 85 ff ff       	callq  402000 <__ctype_get_mb_cur_max@plt>
  409a2a:	4c 8b 7c 24 70       	mov    0x70(%rsp),%r15
  409a2f:	48 89 c6             	mov    %rax,%rsi
  409a32:	4c 89 ff             	mov    %r15,%rdi
  409a35:	e8 46 1d 00 00       	callq  40b780 <__sprintf_chk@plt+0x9280>
  409a3a:	48 8b 7c 24 08       	mov    0x8(%rsp),%rdi
  409a3f:	48 89 e9             	mov    %rbp,%rcx
  409a42:	48 89 c2             	mov    %rax,%rdx
  409a45:	4c 89 fe             	mov    %r15,%rsi
  409a48:	e8 13 86 ff ff       	callq  402060 <mbrtowc@plt>
  409a4d:	48 83 f8 ff          	cmp    $0xffffffffffffffff,%rax
  409a51:	48 89 44 24 78       	mov    %rax,0x78(%rsp)
  409a56:	0f 84 6c ff ff ff    	je     4099c8 <__sprintf_chk@plt+0x74c8>
  409a5c:	48 83 f8 fe          	cmp    $0xfffffffffffffffe,%rax
  409a60:	0f 84 b2 01 00 00    	je     409c18 <__sprintf_chk@plt+0x7718>
  409a66:	48 85 c0             	test   %rax,%rax
  409a69:	75 26                	jne    409a91 <__sprintf_chk@plt+0x7591>
  409a6b:	48 8b 44 24 70       	mov    0x70(%rsp),%rax
  409a70:	48 c7 44 24 78 01 00 	movq   $0x1,0x78(%rsp)
  409a77:	00 00 
  409a79:	80 38 00             	cmpb   $0x0,(%rax)
  409a7c:	0f 85 54 04 00 00    	jne    409ed6 <__sprintf_chk@plt+0x79d6>
  409a82:	8b bc 24 84 00 00 00 	mov    0x84(%rsp),%edi
  409a89:	85 ff                	test   %edi,%edi
  409a8b:	0f 85 63 04 00 00    	jne    409ef4 <__sprintf_chk@plt+0x79f4>
  409a91:	48 89 ef             	mov    %rbp,%rdi
  409a94:	c6 84 24 80 00 00 00 	movb   $0x1,0x80(%rsp)
  409a9b:	01 
  409a9c:	e8 ef 89 ff ff       	callq  402490 <mbsinit@plt>
  409aa1:	85 c0                	test   %eax,%eax
  409aa3:	0f 84 d5 fd ff ff    	je     40987e <__sprintf_chk@plt+0x737e>
  409aa9:	c6 44 24 60 00       	movb   $0x0,0x60(%rsp)
  409aae:	e9 cb fd ff ff       	jmpq   40987e <__sprintf_chk@plt+0x737e>
  409ab3:	0f 1f 44 00 00       	nopl   0x0(%rax,%rax,1)
  409ab8:	80 7c 24 20 00       	cmpb   $0x0,0x20(%rsp)
  409abd:	75 76                	jne    409b35 <__sprintf_chk@plt+0x7635>
  409abf:	48 8b 54 24 30       	mov    0x30(%rsp),%rdx
  409ac4:	0f b6 02             	movzbl (%rdx),%eax
  409ac7:	89 c1                	mov    %eax,%ecx
  409ac9:	83 e0 1f             	and    $0x1f,%eax
  409acc:	c0 e9 05             	shr    $0x5,%cl
  409acf:	83 e1 07             	and    $0x7,%ecx
  409ad2:	8b 0c 8d 80 57 41 00 	mov    0x415780(,%rcx,4),%ecx
  409ad9:	0f a3 c1             	bt     %eax,%ecx
  409adc:	73 42                	jae    409b20 <__sprintf_chk@plt+0x7620>
  409ade:	48 c7 44 24 38 01 00 	movq   $0x1,0x38(%rsp)
  409ae5:	00 00 
  409ae7:	0f be 02             	movsbl (%rdx),%eax
  409aea:	41 bf 01 00 00 00    	mov    $0x1,%r15d
  409af0:	c6 44 24 40 01       	movb   $0x1,0x40(%rsp)
  409af5:	89 44 24 44          	mov    %eax,0x44(%rsp)
  409af9:	45 84 ff             	test   %r15b,%r15b
  409afc:	c6 44 24 2c 01       	movb   $0x1,0x2c(%rsp)
  409b01:	0f 84 f5 fe ff ff    	je     4099fc <__sprintf_chk@plt+0x74fc>
  409b07:	44 8b 44 24 44       	mov    0x44(%rsp),%r8d
  409b0c:	45 85 c0             	test   %r8d,%r8d
  409b0f:	0f 85 e7 fe ff ff    	jne    4099fc <__sprintf_chk@plt+0x74fc>
  409b15:	e9 e6 fb ff ff       	jmpq   409700 <__sprintf_chk@plt+0x7200>
  409b1a:	66 0f 1f 44 00 00    	nopw   0x0(%rax,%rax,1)
  409b20:	4c 89 e7             	mov    %r12,%rdi
  409b23:	e8 68 89 ff ff       	callq  402490 <mbsinit@plt>
  409b28:	85 c0                	test   %eax,%eax
  409b2a:	0f 84 8d 03 00 00    	je     409ebd <__sprintf_chk@plt+0x79bd>
  409b30:	c6 44 24 20 01       	movb   $0x1,0x20(%rsp)
  409b35:	e8 c6 84 ff ff       	callq  402000 <__ctype_get_mb_cur_max@plt>
  409b3a:	4c 8b 74 24 30       	mov    0x30(%rsp),%r14
  409b3f:	48 89 c6             	mov    %rax,%rsi
  409b42:	4c 89 f7             	mov    %r14,%rdi
  409b45:	e8 36 1c 00 00       	callq  40b780 <__sprintf_chk@plt+0x9280>
  409b4a:	4c 89 e1             	mov    %r12,%rcx
  409b4d:	48 89 c2             	mov    %rax,%rdx
  409b50:	4c 89 f6             	mov    %r14,%rsi
  409b53:	4c 89 ef             	mov    %r13,%rdi
  409b56:	e8 05 85 ff ff       	callq  402060 <mbrtowc@plt>
  409b5b:	48 83 f8 ff          	cmp    $0xffffffffffffffff,%rax
  409b5f:	48 89 44 24 38       	mov    %rax,0x38(%rsp)
  409b64:	74 7a                	je     409be0 <__sprintf_chk@plt+0x76e0>
  409b66:	48 83 f8 fe          	cmp    $0xfffffffffffffffe,%rax
  409b6a:	0f 84 c8 00 00 00    	je     409c38 <__sprintf_chk@plt+0x7738>
  409b70:	48 85 c0             	test   %rax,%rax
  409b73:	75 25                	jne    409b9a <__sprintf_chk@plt+0x769a>
  409b75:	48 8b 44 24 30       	mov    0x30(%rsp),%rax
  409b7a:	48 c7 44 24 38 01 00 	movq   $0x1,0x38(%rsp)
  409b81:	00 00 
  409b83:	80 38 00             	cmpb   $0x0,(%rax)
  409b86:	0f 85 4a 03 00 00    	jne    409ed6 <__sprintf_chk@plt+0x79d6>
  409b8c:	44 8b 4c 24 44       	mov    0x44(%rsp),%r9d
  409b91:	45 85 c9             	test   %r9d,%r9d
  409b94:	0f 85 5a 03 00 00    	jne    409ef4 <__sprintf_chk@plt+0x79f4>
  409b9a:	4c 89 e7             	mov    %r12,%rdi
  409b9d:	c6 44 24 40 01       	movb   $0x1,0x40(%rsp)
  409ba2:	41 bf 01 00 00 00    	mov    $0x1,%r15d
  409ba8:	e8 e3 88 ff ff       	callq  402490 <mbsinit@plt>
  409bad:	85 c0                	test   %eax,%eax
  409baf:	0f 84 44 ff ff ff    	je     409af9 <__sprintf_chk@plt+0x75f9>
  409bb5:	c6 44 24 20 00       	movb   $0x0,0x20(%rsp)
  409bba:	e9 3a ff ff ff       	jmpq   409af9 <__sprintf_chk@plt+0x75f9>
  409bbf:	90                   	nop
  409bc0:	48 89 ef             	mov    %rbp,%rdi
  409bc3:	e8 c8 88 ff ff       	callq  402490 <mbsinit@plt>
  409bc8:	85 c0                	test   %eax,%eax
  409bca:	0f 84 ed 02 00 00    	je     409ebd <__sprintf_chk@plt+0x79bd>
  409bd0:	c6 44 24 60 01       	movb   $0x1,0x60(%rsp)
  409bd5:	e9 4b fe ff ff       	jmpq   409a25 <__sprintf_chk@plt+0x7525>
  409bda:	66 0f 1f 44 00 00    	nopw   0x0(%rax,%rax,1)
  409be0:	48 c7 44 24 38 01 00 	movq   $0x1,0x38(%rsp)
  409be7:	00 00 
  409be9:	c6 44 24 40 00       	movb   $0x0,0x40(%rsp)
  409bee:	e9 06 ff ff ff       	jmpq   409af9 <__sprintf_chk@plt+0x75f9>
  409bf3:	0f 1f 44 00 00       	nopl   0x0(%rax,%rax,1)
  409bf8:	48 c7 44 24 38 01 00 	movq   $0x1,0x38(%rsp)
  409bff:	00 00 
  409c01:	c6 44 24 40 00       	movb   $0x0,0x40(%rsp)
  409c06:	44 8b 7c 24 44       	mov    0x44(%rsp),%r15d
  409c0b:	4c 8b 64 24 30       	mov    0x30(%rsp),%r12
  409c10:	e9 a7 fb ff ff       	jmpq   4097bc <__sprintf_chk@plt+0x72bc>
  409c15:	0f 1f 00             	nopl   (%rax)
  409c18:	48 8b 7c 24 70       	mov    0x70(%rsp),%rdi
  409c1d:	e8 ee 83 ff ff       	callq  402010 <strlen@plt>
  409c22:	c6 84 24 80 00 00 00 	movb   $0x0,0x80(%rsp)
  409c29:	00 
  409c2a:	48 89 44 24 78       	mov    %rax,0x78(%rsp)
  409c2f:	e9 a5 fd ff ff       	jmpq   4099d9 <__sprintf_chk@plt+0x74d9>
  409c34:	0f 1f 40 00          	nopl   0x0(%rax)
  409c38:	48 8b 7c 24 30       	mov    0x30(%rsp),%rdi
  409c3d:	e8 ce 83 ff ff       	callq  402010 <strlen@plt>
  409c42:	c6 44 24 40 00       	movb   $0x0,0x40(%rsp)
  409c47:	48 89 44 24 38       	mov    %rax,0x38(%rsp)
  409c4c:	e9 a8 fe ff ff       	jmpq   409af9 <__sprintf_chk@plt+0x75f9>
  409c51:	0f 1f 80 00 00 00 00 	nopl   0x0(%rax)
  409c58:	44 8b 7c 24 44       	mov    0x44(%rsp),%r15d
  409c5d:	e9 2d fb ff ff       	jmpq   40978f <__sprintf_chk@plt+0x728f>
  409c62:	66 0f 1f 44 00 00    	nopw   0x0(%rax,%rax,1)
  409c68:	4c 8b 64 24 30       	mov    0x30(%rsp),%r12
  409c6d:	4c 89 e7             	mov    %r12,%rdi
  409c70:	e8 9b 83 ff ff       	callq  402010 <strlen@plt>
  409c75:	c6 44 24 40 00       	movb   $0x0,0x40(%rsp)
  409c7a:	48 89 44 24 38       	mov    %rax,0x38(%rsp)
  409c7f:	44 8b 7c 24 44       	mov    0x44(%rsp),%r15d
  409c84:	e9 33 fb ff ff       	jmpq   4097bc <__sprintf_chk@plt+0x72bc>
  409c89:	0f 1f 80 00 00 00 00 	nopl   0x0(%rax)
  409c90:	44 8b 64 24 44       	mov    0x44(%rsp),%r12d
  409c95:	0f b6 6c 24 40       	movzbl 0x40(%rsp),%ebp
  409c9a:	e9 50 fc ff ff       	jmpq   4098ef <__sprintf_chk@plt+0x73ef>
  409c9f:	90                   	nop
  409ca0:	49 39 dc             	cmp    %rbx,%r12
  409ca3:	bd 01 00 00 00       	mov    $0x1,%ebp
  409ca8:	73 1c                	jae    409cc6 <__sprintf_chk@plt+0x77c6>
  409caa:	e8 31 88 ff ff       	callq  4024e0 <__ctype_b_loc@plt>
  409caf:	0f b6 53 ff          	movzbl -0x1(%rbx),%edx
  409cb3:	48 8b 00             	mov    (%rax),%rax
  409cb6:	0f b7 04 50          	movzwl (%rax,%rdx,2),%eax
  409cba:	66 c1 e8 03          	shr    $0x3,%ax
  409cbe:	83 f0 01             	xor    $0x1,%eax
  409cc1:	89 c5                	mov    %eax,%ebp
  409cc3:	83 e5 01             	and    $0x1,%ebp
  409cc6:	48 8b 7c 24 10       	mov    0x10(%rsp),%rdi
  409ccb:	e8 40 83 ff ff       	callq  402010 <strlen@plt>
  409cd0:	44 0f b6 24 03       	movzbl (%rbx,%rax,1),%r12d
  409cd5:	45 84 e4             	test   %r12b,%r12b
  409cd8:	74 0f                	je     409ce9 <__sprintf_chk@plt+0x77e9>
  409cda:	e8 01 88 ff ff       	callq  4024e0 <__ctype_b_loc@plt>
  409cdf:	48 8b 00             	mov    (%rax),%rax
  409ce2:	42 f6 04 60 08       	testb  $0x8,(%rax,%r12,2)
  409ce7:	75 09                	jne    409cf2 <__sprintf_chk@plt+0x77f2>
  409ce9:	40 84 ed             	test   %bpl,%bpl
  409cec:	0f 85 c1 01 00 00    	jne    409eb3 <__sprintf_chk@plt+0x79b3>
  409cf2:	80 3b 00             	cmpb   $0x0,(%rbx)
  409cf5:	0f 84 7d fc ff ff    	je     409978 <__sprintf_chk@plt+0x7478>
  409cfb:	4c 8d 63 01          	lea    0x1(%rbx),%r12
  409cff:	e9 4c f9 ff ff       	jmpq   409650 <__sprintf_chk@plt+0x7150>
  409d04:	0f 1f 40 00          	nopl   0x0(%rax)
  409d08:	c6 44 24 1f 01       	movb   $0x1,0x1f(%rsp)
  409d0d:	e9 e1 fa ff ff       	jmpq   4097f3 <__sprintf_chk@plt+0x72f3>
  409d12:	66 0f 1f 44 00 00    	nopw   0x0(%rax,%rax,1)
  409d18:	48 89 ef             	mov    %rbp,%rdi
  409d1b:	e8 70 87 ff ff       	callq  402490 <mbsinit@plt>
  409d20:	85 c0                	test   %eax,%eax
  409d22:	0f 84 95 01 00 00    	je     409ebd <__sprintf_chk@plt+0x79bd>
  409d28:	c6 44 24 20 01       	movb   $0x1,0x20(%rsp)
  409d2d:	e8 ce 82 ff ff       	callq  402000 <__ctype_get_mb_cur_max@plt>
  409d32:	4c 8b 64 24 30       	mov    0x30(%rsp),%r12
  409d37:	48 89 c6             	mov    %rax,%rsi
  409d3a:	4c 89 e7             	mov    %r12,%rdi
  409d3d:	e8 3e 1a 00 00       	callq  40b780 <__sprintf_chk@plt+0x9280>
  409d42:	48 89 e9             	mov    %rbp,%rcx
  409d45:	48 89 c2             	mov    %rax,%rdx
  409d48:	4c 89 e6             	mov    %r12,%rsi
  409d4b:	4c 89 ef             	mov    %r13,%rdi
  409d4e:	e8 0d 83 ff ff       	callq  402060 <mbrtowc@plt>
  409d53:	48 83 f8 ff          	cmp    $0xffffffffffffffff,%rax
  409d57:	48 89 44 24 38       	mov    %rax,0x38(%rsp)
  409d5c:	0f 84 4d fc ff ff    	je     4099af <__sprintf_chk@plt+0x74af>
  409d62:	48 83 f8 fe          	cmp    $0xfffffffffffffffe,%rax
  409d66:	0f 84 f5 00 00 00    	je     409e61 <__sprintf_chk@plt+0x7961>
  409d6c:	48 85 c0             	test   %rax,%rax
  409d6f:	75 23                	jne    409d94 <__sprintf_chk@plt+0x7894>
  409d71:	48 8b 44 24 30       	mov    0x30(%rsp),%rax
  409d76:	48 c7 44 24 38 01 00 	movq   $0x1,0x38(%rsp)
  409d7d:	00 00 
  409d7f:	80 38 00             	cmpb   $0x0,(%rax)
  409d82:	0f 85 4e 01 00 00    	jne    409ed6 <__sprintf_chk@plt+0x79d6>
  409d88:	8b 4c 24 44          	mov    0x44(%rsp),%ecx
  409d8c:	85 c9                	test   %ecx,%ecx
  409d8e:	0f 85 60 01 00 00    	jne    409ef4 <__sprintf_chk@plt+0x79f4>
  409d94:	48 8d 7c 24 24       	lea    0x24(%rsp),%rdi
  409d99:	c6 44 24 40 01       	movb   $0x1,0x40(%rsp)
  409d9e:	e8 ed 86 ff ff       	callq  402490 <mbsinit@plt>
  409da3:	85 c0                	test   %eax,%eax
  409da5:	0f 84 c0 fb ff ff    	je     40996b <__sprintf_chk@plt+0x746b>
  409dab:	c6 44 24 20 00       	movb   $0x0,0x20(%rsp)
  409db0:	e9 b6 fb ff ff       	jmpq   40996b <__sprintf_chk@plt+0x746b>
  409db5:	48 8d 7c 24 24       	lea    0x24(%rsp),%rdi
  409dba:	e8 d1 86 ff ff       	callq  402490 <mbsinit@plt>
  409dbf:	85 c0                	test   %eax,%eax
  409dc1:	0f 84 f6 00 00 00    	je     409ebd <__sprintf_chk@plt+0x79bd>
  409dc7:	c6 44 24 20 01       	movb   $0x1,0x20(%rsp)
  409dcc:	e8 2f 82 ff ff       	callq  402000 <__ctype_get_mb_cur_max@plt>
  409dd1:	4c 8b 64 24 30       	mov    0x30(%rsp),%r12
  409dd6:	48 89 c6             	mov    %rax,%rsi
  409dd9:	4c 89 e7             	mov    %r12,%rdi
  409ddc:	e8 9f 19 00 00       	callq  40b780 <__sprintf_chk@plt+0x9280>
  409de1:	48 8d 4c 24 24       	lea    0x24(%rsp),%rcx
  409de6:	48 89 c2             	mov    %rax,%rdx
  409de9:	4c 89 e6             	mov    %r12,%rsi
  409dec:	4c 89 ef             	mov    %r13,%rdi
  409def:	e8 6c 82 ff ff       	callq  402060 <mbrtowc@plt>
  409df4:	48 83 f8 ff          	cmp    $0xffffffffffffffff,%rax
  409df8:	48 89 44 24 38       	mov    %rax,0x38(%rsp)
  409dfd:	74 7e                	je     409e7d <__sprintf_chk@plt+0x797d>
  409dff:	48 83 f8 fe          	cmp    $0xfffffffffffffffe,%rax
  409e03:	0f 84 8c 00 00 00    	je     409e95 <__sprintf_chk@plt+0x7995>
  409e09:	48 85 c0             	test   %rax,%rax
  409e0c:	75 28                	jne    409e36 <__sprintf_chk@plt+0x7936>
  409e0e:	48 8b 44 24 30       	mov    0x30(%rsp),%rax
  409e13:	48 c7 44 24 38 01 00 	movq   $0x1,0x38(%rsp)
  409e1a:	00 00 
  409e1c:	80 38 00             	cmpb   $0x0,(%rax)
  409e1f:	0f 85 b1 00 00 00    	jne    409ed6 <__sprintf_chk@plt+0x79d6>
  409e25:	8b 74 24 44          	mov    0x44(%rsp),%esi
  409e29:	85 f6                	test   %esi,%esi
  409e2b:	0f 85 c3 00 00 00    	jne    409ef4 <__sprintf_chk@plt+0x79f4>
  409e31:	45 31 e4             	xor    %r12d,%r12d
  409e34:	eb 05                	jmp    409e3b <__sprintf_chk@plt+0x793b>
  409e36:	44 8b 64 24 44       	mov    0x44(%rsp),%r12d
  409e3b:	48 8d 7c 24 24       	lea    0x24(%rsp),%rdi
  409e40:	c6 44 24 40 01       	movb   $0x1,0x40(%rsp)
  409e45:	bd 01 00 00 00       	mov    $0x1,%ebp
  409e4a:	e8 41 86 ff ff       	callq  402490 <mbsinit@plt>
  409e4f:	85 c0                	test   %eax,%eax
  409e51:	0f 84 93 fa ff ff    	je     4098ea <__sprintf_chk@plt+0x73ea>
  409e57:	c6 44 24 20 00       	movb   $0x0,0x20(%rsp)
  409e5c:	e9 89 fa ff ff       	jmpq   4098ea <__sprintf_chk@plt+0x73ea>
  409e61:	48 8b 7c 24 30       	mov    0x30(%rsp),%rdi
  409e66:	e8 a5 81 ff ff       	callq  402010 <strlen@plt>
  409e6b:	48 89 44 24 38       	mov    %rax,0x38(%rsp)
  409e70:	48 03 5c 24 38       	add    0x38(%rsp),%rbx
  409e75:	49 89 dc             	mov    %rbx,%r12
  409e78:	e9 d3 f7 ff ff       	jmpq   409650 <__sprintf_chk@plt+0x7150>
  409e7d:	48 c7 44 24 38 01 00 	movq   $0x1,0x38(%rsp)
  409e84:	00 00 
  409e86:	c6 44 24 40 00       	movb   $0x0,0x40(%rsp)
  409e8b:	44 8b 64 24 44       	mov    0x44(%rsp),%r12d
  409e90:	e9 55 fa ff ff       	jmpq   4098ea <__sprintf_chk@plt+0x73ea>
  409e95:	48 8b 7c 24 30       	mov    0x30(%rsp),%rdi
  409e9a:	e8 71 81 ff ff       	callq  402010 <strlen@plt>
  409e9f:	c6 44 24 40 00       	movb   $0x0,0x40(%rsp)
  409ea4:	48 89 44 24 38       	mov    %rax,0x38(%rsp)
  409ea9:	44 8b 64 24 44       	mov    0x44(%rsp),%r12d
  409eae:	e9 37 fa ff ff       	jmpq   4098ea <__sprintf_chk@plt+0x73ea>
  409eb3:	bb 01 00 00 00       	mov    $0x1,%ebx
  409eb8:	e9 bd fa ff ff       	jmpq   40997a <__sprintf_chk@plt+0x747a>
  409ebd:	b9 10 58 41 00       	mov    $0x415810,%ecx
  409ec2:	ba 93 00 00 00       	mov    $0x93,%edx
  409ec7:	be f2 51 41 00       	mov    $0x4151f2,%esi
  409ecc:	bf 00 52 41 00       	mov    $0x415200,%edi
  409ed1:	e8 fa 81 ff ff       	callq  4020d0 <__assert_fail@plt>
  409ed6:	b9 10 58 41 00       	mov    $0x415810,%ecx
  409edb:	ba af 00 00 00       	mov    $0xaf,%edx
  409ee0:	be f2 51 41 00       	mov    $0x4151f2,%esi
  409ee5:	bf 17 52 41 00       	mov    $0x415217,%edi
  409eea:	e8 e1 81 ff ff       	callq  4020d0 <__assert_fail@plt>
  409eef:	e8 4c 81 ff ff       	callq  402040 <__stack_chk_fail@plt>
  409ef4:	b9 10 58 41 00       	mov    $0x415810,%ecx
  409ef9:	ba b0 00 00 00       	mov    $0xb0,%edx
  409efe:	be f2 51 41 00       	mov    $0x4151f2,%esi
  409f03:	bf 2e 52 41 00       	mov    $0x41522e,%edi
  409f08:	e8 c3 81 ff ff       	callq  4020d0 <__assert_fail@plt>
  409f0d:	0f 1f 00             	nopl   (%rax)
  409f10:	41 54                	push   %r12
  409f12:	48 89 fe             	mov    %rdi,%rsi
  409f15:	ba 05 00 00 00       	mov    $0x5,%edx
  409f1a:	55                   	push   %rbp
  409f1b:	48 89 fd             	mov    %rdi,%rbp
  409f1e:	31 ff                	xor    %edi,%edi
  409f20:	53                   	push   %rbx
  409f21:	e8 ca 80 ff ff       	callq  401ff0 <dcgettext@plt>
  409f26:	48 39 e8             	cmp    %rbp,%rax
  409f29:	48 89 c3             	mov    %rax,%rbx
  409f2c:	74 0f                	je     409f3d <__sprintf_chk@plt+0x7a3d>
  409f2e:	48 89 ee             	mov    %rbp,%rsi
  409f31:	48 89 c7             	mov    %rax,%rdi
  409f34:	e8 c7 f6 ff ff       	callq  409600 <__sprintf_chk@plt+0x7100>
  409f39:	84 c0                	test   %al,%al
  409f3b:	74 0b                	je     409f48 <__sprintf_chk@plt+0x7a48>
  409f3d:	48 89 d8             	mov    %rbx,%rax
  409f40:	5b                   	pop    %rbx
  409f41:	5d                   	pop    %rbp
  409f42:	41 5c                	pop    %r12
  409f44:	c3                   	retq   
  409f45:	0f 1f 00             	nopl   (%rax)
  409f48:	48 89 df             	mov    %rbx,%rdi
  409f4b:	e8 c0 80 ff ff       	callq  402010 <strlen@plt>
  409f50:	48 89 ef             	mov    %rbp,%rdi
  409f53:	49 89 c4             	mov    %rax,%r12
  409f56:	e8 b5 80 ff ff       	callq  402010 <strlen@plt>
  409f5b:	49 8d 7c 04 04       	lea    0x4(%r12,%rax,1),%rdi
  409f60:	e8 1b 24 00 00       	callq  40c380 <__sprintf_chk@plt+0x9e80>
  409f65:	49 89 c4             	mov    %rax,%r12
  409f68:	49 89 e9             	mov    %rbp,%r9
  409f6b:	49 89 d8             	mov    %rbx,%r8
  409f6e:	48 89 c7             	mov    %rax,%rdi
  409f71:	4c 89 e3             	mov    %r12,%rbx
  409f74:	b9 fc 57 41 00       	mov    $0x4157fc,%ecx
  409f79:	48 c7 c2 ff ff ff ff 	mov    $0xffffffffffffffff,%rdx
  409f80:	be 01 00 00 00       	mov    $0x1,%esi
  409f85:	31 c0                	xor    %eax,%eax
  409f87:	e8 74 85 ff ff       	callq  402500 <__sprintf_chk@plt>
  409f8c:	48 89 d8             	mov    %rbx,%rax
  409f8f:	5b                   	pop    %rbx
  409f90:	5d                   	pop    %rbp
  409f91:	41 5c                	pop    %r12
  409f93:	c3                   	retq   
  409f94:	66 66 66 2e 0f 1f 84 	data32 data32 nopw %cs:0x0(%rax,%rax,1)
  409f9b:	00 00 00 00 00 
  409fa0:	41 57                	push   %r15
  409fa2:	ba 05 00 00 00       	mov    $0x5,%edx
  409fa7:	41 56                	push   %r14
  409fa9:	41 55                	push   %r13
  409fab:	41 54                	push   %r12
  409fad:	45 31 e4             	xor    %r12d,%r12d
  409fb0:	55                   	push   %rbp
  409fb1:	48 89 fd             	mov    %rdi,%rbp
  409fb4:	53                   	push   %rbx
  409fb5:	48 89 f3             	mov    %rsi,%rbx
  409fb8:	48 89 fe             	mov    %rdi,%rsi
  409fbb:	31 ff                	xor    %edi,%edi
  409fbd:	49 89 df             	mov    %rbx,%r15
  409fc0:	48 83 ec 18          	sub    $0x18,%rsp
  409fc4:	e8 27 80 ff ff       	callq  401ff0 <dcgettext@plt>
  409fc9:	49 89 c5             	mov    %rax,%r13
  409fcc:	e8 bf 65 00 00       	callq  410590 <fts_children+0xbd0>
  409fd1:	be 04 58 41 00       	mov    $0x415804,%esi
  409fd6:	48 89 c7             	mov    %rax,%rdi
  409fd9:	49 89 c6             	mov    %rax,%r14
  409fdc:	e8 bf 62 00 00       	callq  4102a0 <fts_children+0x8e0>
  409fe1:	85 c0                	test   %eax,%eax
  409fe3:	75 4b                	jne    40a030 <__sprintf_chk@plt+0x7b30>
  409fe5:	45 31 f6             	xor    %r14d,%r14d
  409fe8:	48 85 db             	test   %rbx,%rbx
  409feb:	48 89 5c 24 08       	mov    %rbx,0x8(%rsp)
  409ff0:	0f 84 fa 00 00 00    	je     40a0f0 <__sprintf_chk@plt+0x7bf0>
  409ff6:	48 89 ee             	mov    %rbp,%rsi
  409ff9:	4c 89 ef             	mov    %r13,%rdi
  409ffc:	e8 df 81 ff ff       	callq  4021e0 <strcmp@plt>
  40a001:	85 c0                	test   %eax,%eax
  40a003:	0f 85 17 01 00 00    	jne    40a120 <__sprintf_chk@plt+0x7c20>
  40a009:	49 39 dc             	cmp    %rbx,%r12
  40a00c:	0f 85 be 01 00 00    	jne    40a1d0 <__sprintf_chk@plt+0x7cd0>
  40a012:	49 39 de             	cmp    %rbx,%r14
  40a015:	0f 85 8d 01 00 00    	jne    40a1a8 <__sprintf_chk@plt+0x7ca8>
  40a01b:	48 89 d8             	mov    %rbx,%rax
  40a01e:	48 83 c4 18          	add    $0x18,%rsp
  40a022:	5b                   	pop    %rbx
  40a023:	5d                   	pop    %rbp
  40a024:	41 5c                	pop    %r12
  40a026:	41 5d                	pop    %r13
  40a028:	41 5e                	pop    %r14
  40a02a:	41 5f                	pop    %r15
  40a02c:	c3                   	retq   
  40a02d:	0f 1f 00             	nopl   (%rax)
  40a030:	4c 89 f2             	mov    %r14,%rdx
  40a033:	be 04 58 41 00       	mov    $0x415804,%esi
  40a038:	48 89 df             	mov    %rbx,%rdi
  40a03b:	e8 60 26 00 00       	callq  40c6a0 <__sprintf_chk@plt+0xa1a0>
  40a040:	4c 89 f7             	mov    %r14,%rdi
  40a043:	49 89 c4             	mov    %rax,%r12
  40a046:	e8 c5 7f ff ff       	callq  402010 <strlen@plt>
  40a04b:	48 8d 78 0b          	lea    0xb(%rax),%rdi
  40a04f:	49 89 c7             	mov    %rax,%r15
  40a052:	e8 29 23 00 00       	callq  40c380 <__sprintf_chk@plt+0x9e80>
  40a057:	4c 89 fa             	mov    %r15,%rdx
  40a05a:	4c 89 f6             	mov    %r14,%rsi
  40a05d:	48 89 c7             	mov    %rax,%rdi
  40a060:	e8 cb 81 ff ff       	callq  402230 <memcpy@plt>
  40a065:	49 01 c7             	add    %rax,%r15
  40a068:	48 89 c1             	mov    %rax,%rcx
  40a06b:	48 b8 2f 2f 54 52 41 	movabs $0x4c534e4152542f2f,%rax
  40a072:	4e 53 4c 
  40a075:	49 89 07             	mov    %rax,(%r15)
  40a078:	b8 49 54 00 00       	mov    $0x5449,%eax
  40a07d:	48 89 ca             	mov    %rcx,%rdx
  40a080:	66 41 89 47 08       	mov    %ax,0x8(%r15)
  40a085:	41 c6 47 0a 00       	movb   $0x0,0xa(%r15)
  40a08a:	be 04 58 41 00       	mov    $0x415804,%esi
  40a08f:	48 89 df             	mov    %rbx,%rdi
  40a092:	48 89 4c 24 08       	mov    %rcx,0x8(%rsp)
  40a097:	e8 04 26 00 00       	callq  40c6a0 <__sprintf_chk@plt+0xa1a0>
  40a09c:	48 8b 4c 24 08       	mov    0x8(%rsp),%rcx
  40a0a1:	49 89 c7             	mov    %rax,%r15
  40a0a4:	48 89 cf             	mov    %rcx,%rdi
  40a0a7:	e8 24 7e ff ff       	callq  401ed0 <free@plt>
  40a0ac:	4d 85 ff             	test   %r15,%r15
  40a0af:	0f 84 b3 01 00 00    	je     40a268 <__sprintf_chk@plt+0x7d68>
  40a0b5:	be 3f 00 00 00       	mov    $0x3f,%esi
  40a0ba:	4c 89 ff             	mov    %r15,%rdi
  40a0bd:	e8 be 7f ff ff       	callq  402080 <strchr@plt>
  40a0c2:	48 85 c0             	test   %rax,%rax
  40a0c5:	0f 84 84 01 00 00    	je     40a24f <__sprintf_chk@plt+0x7d4f>
  40a0cb:	4c 89 ff             	mov    %r15,%rdi
  40a0ce:	4c 89 e3             	mov    %r12,%rbx
  40a0d1:	45 31 ff             	xor    %r15d,%r15d
  40a0d4:	e8 f7 7d ff ff       	callq  401ed0 <free@plt>
  40a0d9:	45 31 f6             	xor    %r14d,%r14d
  40a0dc:	48 85 db             	test   %rbx,%rbx
  40a0df:	48 89 5c 24 08       	mov    %rbx,0x8(%rsp)
  40a0e4:	0f 85 0c ff ff ff    	jne    409ff6 <__sprintf_chk@plt+0x7af6>
  40a0ea:	66 0f 1f 44 00 00    	nopw   0x0(%rax,%rax,1)
  40a0f0:	4d 85 ff             	test   %r15,%r15
  40a0f3:	0f 84 77 01 00 00    	je     40a270 <__sprintf_chk@plt+0x7d70>
  40a0f9:	48 89 ee             	mov    %rbp,%rsi
  40a0fc:	4c 89 ef             	mov    %r13,%rdi
  40a0ff:	48 c7 44 24 08 00 00 	movq   $0x0,0x8(%rsp)
  40a106:	00 00 
  40a108:	e8 d3 80 ff ff       	callq  4021e0 <strcmp@plt>
  40a10d:	85 c0                	test   %eax,%eax
  40a10f:	49 89 de             	mov    %rbx,%r14
  40a112:	4c 89 fb             	mov    %r15,%rbx
  40a115:	0f 84 ee fe ff ff    	je     40a009 <__sprintf_chk@plt+0x7b09>
  40a11b:	0f 1f 44 00 00       	nopl   0x0(%rax,%rax,1)
  40a120:	48 89 ee             	mov    %rbp,%rsi
  40a123:	4c 89 ef             	mov    %r13,%rdi
  40a126:	e8 d5 f4 ff ff       	callq  409600 <__sprintf_chk@plt+0x7100>
  40a12b:	84 c0                	test   %al,%al
  40a12d:	75 39                	jne    40a168 <__sprintf_chk@plt+0x7c68>
  40a12f:	48 83 7c 24 08 00    	cmpq   $0x0,0x8(%rsp)
  40a135:	74 11                	je     40a148 <__sprintf_chk@plt+0x7c48>
  40a137:	48 8b 74 24 08       	mov    0x8(%rsp),%rsi
  40a13c:	4c 89 ef             	mov    %r13,%rdi
  40a13f:	e8 bc f4 ff ff       	callq  409600 <__sprintf_chk@plt+0x7100>
  40a144:	84 c0                	test   %al,%al
  40a146:	75 20                	jne    40a168 <__sprintf_chk@plt+0x7c68>
  40a148:	4d 85 ff             	test   %r15,%r15
  40a14b:	0f 84 9f 00 00 00    	je     40a1f0 <__sprintf_chk@plt+0x7cf0>
  40a151:	4c 89 fe             	mov    %r15,%rsi
  40a154:	4c 89 ef             	mov    %r13,%rdi
  40a157:	e8 a4 f4 ff ff       	callq  409600 <__sprintf_chk@plt+0x7100>
  40a15c:	84 c0                	test   %al,%al
  40a15e:	0f 84 8c 00 00 00    	je     40a1f0 <__sprintf_chk@plt+0x7cf0>
  40a164:	0f 1f 40 00          	nopl   0x0(%rax)
  40a168:	4d 85 e4             	test   %r12,%r12
  40a16b:	74 08                	je     40a175 <__sprintf_chk@plt+0x7c75>
  40a16d:	4c 89 e7             	mov    %r12,%rdi
  40a170:	e8 5b 7d ff ff       	callq  401ed0 <free@plt>
  40a175:	4d 85 f6             	test   %r14,%r14
  40a178:	4c 89 e8             	mov    %r13,%rax
  40a17b:	0f 84 9d fe ff ff    	je     40a01e <__sprintf_chk@plt+0x7b1e>
  40a181:	4c 89 f7             	mov    %r14,%rdi
  40a184:	48 89 44 24 08       	mov    %rax,0x8(%rsp)
  40a189:	e8 42 7d ff ff       	callq  401ed0 <free@plt>
  40a18e:	48 8b 44 24 08       	mov    0x8(%rsp),%rax
  40a193:	48 83 c4 18          	add    $0x18,%rsp
  40a197:	5b                   	pop    %rbx
  40a198:	5d                   	pop    %rbp
  40a199:	41 5c                	pop    %r12
  40a19b:	41 5d                	pop    %r13
  40a19d:	41 5e                	pop    %r14
  40a19f:	41 5f                	pop    %r15
  40a1a1:	c3                   	retq   
  40a1a2:	66 0f 1f 44 00 00    	nopw   0x0(%rax,%rax,1)
  40a1a8:	4d 85 f6             	test   %r14,%r14
  40a1ab:	0f 84 6a fe ff ff    	je     40a01b <__sprintf_chk@plt+0x7b1b>
  40a1b1:	4c 89 f7             	mov    %r14,%rdi
  40a1b4:	e8 17 7d ff ff       	callq  401ed0 <free@plt>
  40a1b9:	48 83 c4 18          	add    $0x18,%rsp
  40a1bd:	48 89 d8             	mov    %rbx,%rax
  40a1c0:	5b                   	pop    %rbx
  40a1c1:	5d                   	pop    %rbp
  40a1c2:	41 5c                	pop    %r12
  40a1c4:	41 5d                	pop    %r13
  40a1c6:	41 5e                	pop    %r14
  40a1c8:	41 5f                	pop    %r15
  40a1ca:	c3                   	retq   
  40a1cb:	0f 1f 44 00 00       	nopl   0x0(%rax,%rax,1)
  40a1d0:	4d 85 e4             	test   %r12,%r12
  40a1d3:	0f 84 39 fe ff ff    	je     40a012 <__sprintf_chk@plt+0x7b12>
  40a1d9:	4c 89 e7             	mov    %r12,%rdi
  40a1dc:	e8 ef 7c ff ff       	callq  401ed0 <free@plt>
  40a1e1:	e9 2c fe ff ff       	jmpq   40a012 <__sprintf_chk@plt+0x7b12>
  40a1e6:	66 2e 0f 1f 84 00 00 	nopw   %cs:0x0(%rax,%rax,1)
  40a1ed:	00 00 00 
  40a1f0:	4c 89 ef             	mov    %r13,%rdi
  40a1f3:	e8 18 7e ff ff       	callq  402010 <strlen@plt>
  40a1f8:	48 89 df             	mov    %rbx,%rdi
  40a1fb:	48 89 c5             	mov    %rax,%rbp
  40a1fe:	e8 0d 7e ff ff       	callq  402010 <strlen@plt>
  40a203:	48 8d 7c 05 04       	lea    0x4(%rbp,%rax,1),%rdi
  40a208:	e8 73 21 00 00       	callq  40c380 <__sprintf_chk@plt+0x9e80>
  40a20d:	49 89 d9             	mov    %rbx,%r9
  40a210:	48 89 c7             	mov    %rax,%rdi
  40a213:	48 89 c5             	mov    %rax,%rbp
  40a216:	4d 89 e8             	mov    %r13,%r8
  40a219:	31 c0                	xor    %eax,%eax
  40a21b:	b9 fc 57 41 00       	mov    $0x4157fc,%ecx
  40a220:	48 c7 c2 ff ff ff ff 	mov    $0xffffffffffffffff,%rdx
  40a227:	be 01 00 00 00       	mov    $0x1,%esi
  40a22c:	e8 cf 82 ff ff       	callq  402500 <__sprintf_chk@plt>
  40a231:	4d 85 e4             	test   %r12,%r12
  40a234:	74 08                	je     40a23e <__sprintf_chk@plt+0x7d3e>
  40a236:	4c 89 e7             	mov    %r12,%rdi
  40a239:	e8 92 7c ff ff       	callq  401ed0 <free@plt>
  40a23e:	4d 85 f6             	test   %r14,%r14
  40a241:	48 89 e8             	mov    %rbp,%rax
  40a244:	0f 85 37 ff ff ff    	jne    40a181 <__sprintf_chk@plt+0x7c81>
  40a24a:	e9 cf fd ff ff       	jmpq   40a01e <__sprintf_chk@plt+0x7b1e>
  40a24f:	4d 85 e4             	test   %r12,%r12
  40a252:	74 2c                	je     40a280 <__sprintf_chk@plt+0x7d80>
  40a254:	4c 89 64 24 08       	mov    %r12,0x8(%rsp)
  40a259:	4d 89 fe             	mov    %r15,%r14
  40a25c:	4c 89 e3             	mov    %r12,%rbx
  40a25f:	e9 92 fd ff ff       	jmpq   409ff6 <__sprintf_chk@plt+0x7af6>
  40a264:	0f 1f 40 00          	nopl   0x0(%rax)
  40a268:	4c 89 e3             	mov    %r12,%rbx
  40a26b:	e9 75 fd ff ff       	jmpq   409fe5 <__sprintf_chk@plt+0x7ae5>
  40a270:	4c 89 7c 24 08       	mov    %r15,0x8(%rsp)
  40a275:	4d 89 fe             	mov    %r15,%r14
  40a278:	48 89 eb             	mov    %rbp,%rbx
  40a27b:	e9 76 fd ff ff       	jmpq   409ff6 <__sprintf_chk@plt+0x7af6>
  40a280:	4c 89 fb             	mov    %r15,%rbx
  40a283:	e9 71 fe ff ff       	jmpq   40a0f9 <__sprintf_chk@plt+0x7bf9>
  40a288:	0f 1f 84 00 00 00 00 	nopl   0x0(%rax,%rax,1)
  40a28f:	00 
  40a290:	48 83 ec 48          	sub    $0x48,%rsp
  40a294:	31 c0                	xor    %eax,%eax
  40a296:	48 89 fa             	mov    %rdi,%rdx
  40a299:	b9 07 00 00 00       	mov    $0x7,%ecx
  40a29e:	48 89 e7             	mov    %rsp,%rdi
  40a2a1:	83 fe 08             	cmp    $0x8,%esi
  40a2a4:	f3 48 ab             	rep stos %rax,%es:(%rdi)
  40a2a7:	74 48                	je     40a2f1 <__sprintf_chk@plt+0x7df1>
  40a2a9:	89 34 24             	mov    %esi,(%rsp)
  40a2ac:	48 8b 04 24          	mov    (%rsp),%rax
  40a2b0:	48 89 02             	mov    %rax,(%rdx)
  40a2b3:	48 8b 44 24 08       	mov    0x8(%rsp),%rax
  40a2b8:	48 89 42 08          	mov    %rax,0x8(%rdx)
  40a2bc:	48 8b 44 24 10       	mov    0x10(%rsp),%rax
  40a2c1:	48 89 42 10          	mov    %rax,0x10(%rdx)
  40a2c5:	48 8b 44 24 18       	mov    0x18(%rsp),%rax
  40a2ca:	48 89 42 18          	mov    %rax,0x18(%rdx)
  40a2ce:	48 8b 44 24 20       	mov    0x20(%rsp),%rax
  40a2d3:	48 89 42 20          	mov    %rax,0x20(%rdx)
  40a2d7:	48 8b 44 24 28       	mov    0x28(%rsp),%rax
  40a2dc:	48 89 42 28          	mov    %rax,0x28(%rdx)
  40a2e0:	48 8b 44 24 30       	mov    0x30(%rsp),%rax
  40a2e5:	48 89 42 30          	mov    %rax,0x30(%rdx)
  40a2e9:	48 89 d0             	mov    %rdx,%rax
  40a2ec:	48 83 c4 48          	add    $0x48,%rsp
  40a2f0:	c3                   	retq   
  40a2f1:	e8 0a 7c ff ff       	callq  401f00 <abort@plt>
  40a2f6:	66 2e 0f 1f 84 00 00 	nopw   %cs:0x0(%rax,%rax,1)
  40a2fd:	00 00 00 
  40a300:	41 55                	push   %r13
  40a302:	ba 05 00 00 00       	mov    $0x5,%edx
  40a307:	41 54                	push   %r12
  40a309:	41 89 f4             	mov    %esi,%r12d
  40a30c:	48 89 fe             	mov    %rdi,%rsi
  40a30f:	55                   	push   %rbp
  40a310:	48 89 fd             	mov    %rdi,%rbp
  40a313:	31 ff                	xor    %edi,%edi
  40a315:	53                   	push   %rbx
  40a316:	48 83 ec 08          	sub    $0x8,%rsp
  40a31a:	e8 d1 7c ff ff       	callq  401ff0 <dcgettext@plt>
  40a31f:	48 39 e8             	cmp    %rbp,%rax
  40a322:	48 89 c3             	mov    %rax,%rbx
  40a325:	74 11                	je     40a338 <__sprintf_chk@plt+0x7e38>
  40a327:	48 83 c4 08          	add    $0x8,%rsp
  40a32b:	48 89 d8             	mov    %rbx,%rax
  40a32e:	5b                   	pop    %rbx
  40a32f:	5d                   	pop    %rbp
  40a330:	41 5c                	pop    %r12
  40a332:	41 5d                	pop    %r13
  40a334:	c3                   	retq   
  40a335:	0f 1f 00             	nopl   (%rax)
  40a338:	e8 53 62 00 00       	callq  410590 <fts_children+0xbd0>
  40a33d:	0f b6 10             	movzbl (%rax),%edx
  40a340:	83 e2 df             	and    $0xffffffdf,%edx
  40a343:	80 fa 55             	cmp    $0x55,%dl
  40a346:	75 58                	jne    40a3a0 <__sprintf_chk@plt+0x7ea0>
  40a348:	0f b6 50 01          	movzbl 0x1(%rax),%edx
  40a34c:	83 e2 df             	and    $0xffffffdf,%edx
  40a34f:	80 fa 54             	cmp    $0x54,%dl
  40a352:	75 34                	jne    40a388 <__sprintf_chk@plt+0x7e88>
  40a354:	0f b6 50 02          	movzbl 0x2(%rax),%edx
  40a358:	83 e2 df             	and    $0xffffffdf,%edx
  40a35b:	80 fa 46             	cmp    $0x46,%dl
  40a35e:	75 28                	jne    40a388 <__sprintf_chk@plt+0x7e88>
  40a360:	80 78 03 2d          	cmpb   $0x2d,0x3(%rax)
  40a364:	75 22                	jne    40a388 <__sprintf_chk@plt+0x7e88>
  40a366:	80 78 04 38          	cmpb   $0x38,0x4(%rax)
  40a36a:	75 1c                	jne    40a388 <__sprintf_chk@plt+0x7e88>
  40a36c:	80 78 05 00          	cmpb   $0x0,0x5(%rax)
  40a370:	75 16                	jne    40a388 <__sprintf_chk@plt+0x7e88>
  40a372:	80 3b 60             	cmpb   $0x60,(%rbx)
  40a375:	b8 30 58 41 00       	mov    $0x415830,%eax
  40a37a:	bb 23 58 41 00       	mov    $0x415823,%ebx
  40a37f:	48 0f 44 d8          	cmove  %rax,%rbx
  40a383:	eb a2                	jmp    40a327 <__sprintf_chk@plt+0x7e27>
  40a385:	0f 1f 00             	nopl   (%rax)
  40a388:	bb 2a 58 41 00       	mov    $0x41582a,%ebx
  40a38d:	41 83 fc 07          	cmp    $0x7,%r12d
  40a391:	b8 2c 52 41 00       	mov    $0x41522c,%eax
  40a396:	48 0f 45 d8          	cmovne %rax,%rbx
  40a39a:	eb 8b                	jmp    40a327 <__sprintf_chk@plt+0x7e27>
  40a39c:	0f 1f 40 00          	nopl   0x0(%rax)
  40a3a0:	80 fa 47             	cmp    $0x47,%dl
  40a3a3:	75 e3                	jne    40a388 <__sprintf_chk@plt+0x7e88>
  40a3a5:	0f b6 50 01          	movzbl 0x1(%rax),%edx
  40a3a9:	83 e2 df             	and    $0xffffffdf,%edx
  40a3ac:	80 fa 42             	cmp    $0x42,%dl
  40a3af:	75 d7                	jne    40a388 <__sprintf_chk@plt+0x7e88>
  40a3b1:	80 78 02 31          	cmpb   $0x31,0x2(%rax)
  40a3b5:	75 d1                	jne    40a388 <__sprintf_chk@plt+0x7e88>
  40a3b7:	80 78 03 38          	cmpb   $0x38,0x3(%rax)
  40a3bb:	75 cb                	jne    40a388 <__sprintf_chk@plt+0x7e88>
  40a3bd:	80 78 04 30          	cmpb   $0x30,0x4(%rax)
  40a3c1:	75 c5                	jne    40a388 <__sprintf_chk@plt+0x7e88>
  40a3c3:	80 78 05 33          	cmpb   $0x33,0x5(%rax)
  40a3c7:	75 bf                	jne    40a388 <__sprintf_chk@plt+0x7e88>
  40a3c9:	80 78 06 30          	cmpb   $0x30,0x6(%rax)
  40a3cd:	75 b9                	jne    40a388 <__sprintf_chk@plt+0x7e88>
  40a3cf:	80 78 07 00          	cmpb   $0x0,0x7(%rax)
  40a3d3:	75 b3                	jne    40a388 <__sprintf_chk@plt+0x7e88>
  40a3d5:	49 89 dd             	mov    %rbx,%r13
  40a3d8:	b8 27 58 41 00       	mov    $0x415827,%eax
  40a3dd:	bb 2c 58 41 00       	mov    $0x41582c,%ebx
  40a3e2:	41 80 7d 00 60       	cmpb   $0x60,0x0(%r13)
  40a3e7:	48 0f 45 d8          	cmovne %rax,%rbx
  40a3eb:	e9 37 ff ff ff       	jmpq   40a327 <__sprintf_chk@plt+0x7e27>
  40a3f0:	41 57                	push   %r15
  40a3f2:	49 89 cf             	mov    %rcx,%r15
  40a3f5:	41 56                	push   %r14
  40a3f7:	45 89 c6             	mov    %r8d,%r14d
  40a3fa:	41 55                	push   %r13
  40a3fc:	49 89 d5             	mov    %rdx,%r13
  40a3ff:	41 54                	push   %r12
  40a401:	55                   	push   %rbp
  40a402:	53                   	push   %rbx
  40a403:	44 89 cb             	mov    %r9d,%ebx
  40a406:	48 81 ec c8 00 00 00 	sub    $0xc8,%rsp
  40a40d:	48 8b 84 24 00 01 00 	mov    0x100(%rsp),%rax
  40a414:	00 
  40a415:	48 89 7c 24 28       	mov    %rdi,0x28(%rsp)
  40a41a:	48 89 74 24 20       	mov    %rsi,0x20(%rsp)
  40a41f:	44 89 44 24 34       	mov    %r8d,0x34(%rsp)
  40a424:	44 89 8c 24 90 00 00 	mov    %r9d,0x90(%rsp)
  40a42b:	00 
  40a42c:	48 89 44 24 58       	mov    %rax,0x58(%rsp)
  40a431:	48 8b 84 24 08 01 00 	mov    0x108(%rsp),%rax
  40a438:	00 
  40a439:	48 89 44 24 70       	mov    %rax,0x70(%rsp)
  40a43e:	48 8b 84 24 10 01 00 	mov    0x110(%rsp),%rax
  40a445:	00 
  40a446:	48 89 44 24 68       	mov    %rax,0x68(%rsp)
  40a44b:	64 48 8b 04 25 28 00 	mov    %fs:0x28,%rax
  40a452:	00 00 
  40a454:	48 89 84 24 b8 00 00 	mov    %rax,0xb8(%rsp)
  40a45b:	00 
  40a45c:	31 c0                	xor    %eax,%eax
  40a45e:	e8 9d 7b ff ff       	callq  402000 <__ctype_get_mb_cur_max@plt>
  40a463:	48 89 44 24 78       	mov    %rax,0x78(%rsp)
  40a468:	89 d8                	mov    %ebx,%eax
  40a46a:	d1 e8                	shr    %eax
  40a46c:	83 e0 01             	and    $0x1,%eax
  40a46f:	41 83 fe 08          	cmp    $0x8,%r14d
  40a473:	88 44 24 33          	mov    %al,0x33(%rsp)
  40a477:	0f 87 53 09 00 00    	ja     40add0 <__sprintf_chk@plt+0x88d0>
  40a47d:	44 89 f0             	mov    %r14d,%eax
  40a480:	4c 8b 5c 24 20       	mov    0x20(%rsp),%r11
  40a485:	ff 24 c5 80 58 41 00 	jmpq   *0x415880(,%rax,8)
  40a48c:	0f 1f 40 00          	nopl   0x0(%rax)
  40a490:	c6 44 24 33 00       	movb   $0x0,0x33(%rsp)
  40a495:	c6 44 24 20 00       	movb   $0x0,0x20(%rsp)
  40a49a:	45 31 f6             	xor    %r14d,%r14d
  40a49d:	48 c7 44 24 60 00 00 	movq   $0x0,0x60(%rsp)
  40a4a4:	00 00 
  40a4a6:	31 db                	xor    %ebx,%ebx
  40a4a8:	0f 1f 84 00 00 00 00 	nopl   0x0(%rax,%rax,1)
  40a4af:	00 
  40a4b0:	0f b6 44 24 33       	movzbl 0x33(%rsp),%eax
  40a4b5:	4d 89 f1             	mov    %r14,%r9
  40a4b8:	31 ed                	xor    %ebp,%ebp
  40a4ba:	4d 89 de             	mov    %r11,%r14
  40a4bd:	4d 89 e8             	mov    %r13,%r8
  40a4c0:	83 f0 01             	xor    $0x1,%eax
  40a4c3:	88 44 24 38          	mov    %al,0x38(%rsp)
  40a4c7:	0f b6 44 24 20       	movzbl 0x20(%rsp),%eax
  40a4cc:	83 f0 01             	xor    $0x1,%eax
  40a4cf:	88 84 24 95 00 00 00 	mov    %al,0x95(%rsp)
  40a4d6:	4c 39 fd             	cmp    %r15,%rbp
  40a4d9:	0f 95 c0             	setne  %al
  40a4dc:	49 83 ff ff          	cmp    $0xffffffffffffffff,%r15
  40a4e0:	0f 84 e0 01 00 00    	je     40a6c6 <__sprintf_chk@plt+0x81c6>
  40a4e6:	66 2e 0f 1f 84 00 00 	nopw   %cs:0x0(%rax,%rax,1)
  40a4ed:	00 00 00 
  40a4f0:	84 c0                	test   %al,%al
  40a4f2:	0f 84 de 01 00 00    	je     40a6d6 <__sprintf_chk@plt+0x81d6>
  40a4f8:	4d 85 c9             	test   %r9,%r9
  40a4fb:	0f 95 c1             	setne  %cl
  40a4fe:	0f 84 ec 06 00 00    	je     40abf0 <__sprintf_chk@plt+0x86f0>
  40a504:	80 7c 24 20 00       	cmpb   $0x0,0x20(%rsp)
  40a509:	0f 84 e1 06 00 00    	je     40abf0 <__sprintf_chk@plt+0x86f0>
  40a50f:	4a 8d 44 0d 00       	lea    0x0(%rbp,%r9,1),%rax
  40a514:	49 39 c7             	cmp    %rax,%r15
  40a517:	0f 82 d3 06 00 00    	jb     40abf0 <__sprintf_chk@plt+0x86f0>
  40a51d:	4d 8d 2c 28          	lea    (%r8,%rbp,1),%r13
  40a521:	48 8b 74 24 60       	mov    0x60(%rsp),%rsi
  40a526:	4c 89 ca             	mov    %r9,%rdx
  40a529:	89 4c 24 50          	mov    %ecx,0x50(%rsp)
  40a52d:	4c 89 44 24 48       	mov    %r8,0x48(%rsp)
  40a532:	4c 89 ef             	mov    %r13,%rdi
  40a535:	4c 89 4c 24 40       	mov    %r9,0x40(%rsp)
  40a53a:	e8 61 7c ff ff       	callq  4021a0 <memcmp@plt>
  40a53f:	85 c0                	test   %eax,%eax
  40a541:	4c 8b 4c 24 40       	mov    0x40(%rsp),%r9
  40a546:	4c 8b 44 24 48       	mov    0x48(%rsp),%r8
  40a54b:	8b 4c 24 50          	mov    0x50(%rsp),%ecx
  40a54f:	0f 85 ab 06 00 00    	jne    40ac00 <__sprintf_chk@plt+0x8700>
  40a555:	80 7c 24 33 00       	cmpb   $0x0,0x33(%rsp)
  40a55a:	0f 85 30 02 00 00    	jne    40a790 <__sprintf_chk@plt+0x8290>
  40a560:	41 bb 01 00 00 00    	mov    $0x1,%r11d
  40a566:	66 2e 0f 1f 84 00 00 	nopw   %cs:0x0(%rax,%rax,1)
  40a56d:	00 00 00 
  40a570:	45 0f b6 65 00       	movzbl 0x0(%r13),%r12d
  40a575:	41 80 fc 7e          	cmp    $0x7e,%r12b
  40a579:	0f 87 e9 03 00 00    	ja     40a968 <__sprintf_chk@plt+0x8468>
  40a57f:	41 0f b6 c4          	movzbl %r12b,%eax
  40a583:	ff 24 c5 c8 58 41 00 	jmpq   *0x4158c8(,%rax,8)
  40a58a:	66 0f 1f 44 00 00    	nopw   0x0(%rax,%rax,1)
  40a590:	8b 44 24 34          	mov    0x34(%rsp),%eax
  40a594:	83 f8 02             	cmp    $0x2,%eax
  40a597:	0f 84 e3 01 00 00    	je     40a780 <__sprintf_chk@plt+0x8280>
  40a59d:	83 f8 03             	cmp    $0x3,%eax
  40a5a0:	0f 85 a2 00 00 00    	jne    40a648 <__sprintf_chk@plt+0x8148>
  40a5a6:	f6 84 24 90 00 00 00 	testb  $0x4,0x90(%rsp)
  40a5ad:	04 
  40a5ae:	0f 84 94 00 00 00    	je     40a648 <__sprintf_chk@plt+0x8148>
  40a5b4:	48 8d 45 02          	lea    0x2(%rbp),%rax
  40a5b8:	49 39 c7             	cmp    %rax,%r15
  40a5bb:	0f 86 87 00 00 00    	jbe    40a648 <__sprintf_chk@plt+0x8148>
  40a5c1:	41 80 7c 28 01 3f    	cmpb   $0x3f,0x1(%r8,%rbp,1)
  40a5c7:	75 7f                	jne    40a648 <__sprintf_chk@plt+0x8148>
  40a5c9:	41 0f b6 34 00       	movzbl (%r8,%rax,1),%esi
  40a5ce:	8d 4e df             	lea    -0x21(%rsi),%ecx
  40a5d1:	80 f9 1d             	cmp    $0x1d,%cl
  40a5d4:	77 72                	ja     40a648 <__sprintf_chk@plt+0x8148>
  40a5d6:	ba 01 00 00 00       	mov    $0x1,%edx
  40a5db:	48 d3 e2             	shl    %cl,%rdx
  40a5de:	f7 c2 c1 51 00 38    	test   $0x380051c1,%edx
  40a5e4:	74 62                	je     40a648 <__sprintf_chk@plt+0x8148>
  40a5e6:	80 7c 24 33 00       	cmpb   $0x0,0x33(%rsp)
  40a5eb:	0f 85 9f 01 00 00    	jne    40a790 <__sprintf_chk@plt+0x8290>
  40a5f1:	4c 39 f3             	cmp    %r14,%rbx
  40a5f4:	73 09                	jae    40a5ff <__sprintf_chk@plt+0x80ff>
  40a5f6:	48 8b 7c 24 28       	mov    0x28(%rsp),%rdi
  40a5fb:	c6 04 1f 3f          	movb   $0x3f,(%rdi,%rbx,1)
  40a5ff:	48 8d 53 01          	lea    0x1(%rbx),%rdx
  40a603:	49 39 d6             	cmp    %rdx,%r14
  40a606:	76 0a                	jbe    40a612 <__sprintf_chk@plt+0x8112>
  40a608:	48 8b 7c 24 28       	mov    0x28(%rsp),%rdi
  40a60d:	c6 44 1f 01 22       	movb   $0x22,0x1(%rdi,%rbx,1)
  40a612:	48 8d 53 02          	lea    0x2(%rbx),%rdx
  40a616:	49 39 d6             	cmp    %rdx,%r14
  40a619:	76 0a                	jbe    40a625 <__sprintf_chk@plt+0x8125>
  40a61b:	48 8b 7c 24 28       	mov    0x28(%rsp),%rdi
  40a620:	c6 44 1f 02 22       	movb   $0x22,0x2(%rdi,%rbx,1)
  40a625:	48 8d 53 03          	lea    0x3(%rbx),%rdx
  40a629:	49 39 d6             	cmp    %rdx,%r14
  40a62c:	76 0a                	jbe    40a638 <__sprintf_chk@plt+0x8138>
  40a62e:	48 8b 7c 24 28       	mov    0x28(%rsp),%rdi
  40a633:	c6 44 1f 03 3f       	movb   $0x3f,0x3(%rdi,%rbx,1)
  40a638:	48 83 c3 04          	add    $0x4,%rbx
  40a63c:	41 89 f4             	mov    %esi,%r12d
  40a63f:	48 89 c5             	mov    %rax,%rbp
  40a642:	66 0f 1f 44 00 00    	nopw   0x0(%rax,%rax,1)
  40a648:	80 7c 24 38 00       	cmpb   $0x0,0x38(%rsp)
  40a64d:	74 0a                	je     40a659 <__sprintf_chk@plt+0x8159>
  40a64f:	80 bc 24 95 00 00 00 	cmpb   $0x0,0x95(%rsp)
  40a656:	00 
  40a657:	75 25                	jne    40a67e <__sprintf_chk@plt+0x817e>
  40a659:	48 8b 7c 24 58       	mov    0x58(%rsp),%rdi
  40a65e:	48 85 ff             	test   %rdi,%rdi
  40a661:	74 1b                	je     40a67e <__sprintf_chk@plt+0x817e>
  40a663:	44 89 e2             	mov    %r12d,%edx
  40a666:	44 89 e1             	mov    %r12d,%ecx
  40a669:	b8 01 00 00 00       	mov    $0x1,%eax
  40a66e:	c0 ea 05             	shr    $0x5,%dl
  40a671:	83 e1 1f             	and    $0x1f,%ecx
  40a674:	0f b6 d2             	movzbl %dl,%edx
  40a677:	d3 e0                	shl    %cl,%eax
  40a679:	85 04 97             	test   %eax,(%rdi,%rdx,4)
  40a67c:	75 05                	jne    40a683 <__sprintf_chk@plt+0x8183>
  40a67e:	45 84 db             	test   %r11b,%r11b
  40a681:	74 1d                	je     40a6a0 <__sprintf_chk@plt+0x81a0>
  40a683:	80 7c 24 33 00       	cmpb   $0x0,0x33(%rsp)
  40a688:	0f 85 02 01 00 00    	jne    40a790 <__sprintf_chk@plt+0x8290>
  40a68e:	4c 39 f3             	cmp    %r14,%rbx
  40a691:	73 09                	jae    40a69c <__sprintf_chk@plt+0x819c>
  40a693:	48 8b 44 24 28       	mov    0x28(%rsp),%rax
  40a698:	c6 04 18 5c          	movb   $0x5c,(%rax,%rbx,1)
  40a69c:	48 83 c3 01          	add    $0x1,%rbx
  40a6a0:	48 83 c5 01          	add    $0x1,%rbp
  40a6a4:	4c 39 f3             	cmp    %r14,%rbx
  40a6a7:	73 09                	jae    40a6b2 <__sprintf_chk@plt+0x81b2>
  40a6a9:	48 8b 44 24 28       	mov    0x28(%rsp),%rax
  40a6ae:	44 88 24 18          	mov    %r12b,(%rax,%rbx,1)
  40a6b2:	48 83 c3 01          	add    $0x1,%rbx
  40a6b6:	4c 39 fd             	cmp    %r15,%rbp
  40a6b9:	0f 95 c0             	setne  %al
  40a6bc:	49 83 ff ff          	cmp    $0xffffffffffffffff,%r15
  40a6c0:	0f 85 2a fe ff ff    	jne    40a4f0 <__sprintf_chk@plt+0x7ff0>
  40a6c6:	41 80 3c 28 00       	cmpb   $0x0,(%r8,%rbp,1)
  40a6cb:	0f 95 c0             	setne  %al
  40a6ce:	84 c0                	test   %al,%al
  40a6d0:	0f 85 22 fe ff ff    	jne    40a4f8 <__sprintf_chk@plt+0x7ff8>
  40a6d6:	48 85 db             	test   %rbx,%rbx
  40a6d9:	4d 89 f3             	mov    %r14,%r11
  40a6dc:	4d 89 c5             	mov    %r8,%r13
  40a6df:	75 12                	jne    40a6f3 <__sprintf_chk@plt+0x81f3>
  40a6e1:	83 7c 24 34 02       	cmpl   $0x2,0x34(%rsp)
  40a6e6:	75 0b                	jne    40a6f3 <__sprintf_chk@plt+0x81f3>
  40a6e8:	80 7c 24 33 00       	cmpb   $0x0,0x33(%rsp)
  40a6ed:	0f 85 a3 00 00 00    	jne    40a796 <__sprintf_chk@plt+0x8296>
  40a6f3:	80 7c 24 33 00       	cmpb   $0x0,0x33(%rsp)
  40a6f8:	75 3a                	jne    40a734 <__sprintf_chk@plt+0x8234>
  40a6fa:	48 83 7c 24 60 00    	cmpq   $0x0,0x60(%rsp)
  40a700:	74 32                	je     40a734 <__sprintf_chk@plt+0x8234>
  40a702:	48 8b 54 24 60       	mov    0x60(%rsp),%rdx
  40a707:	0f b6 02             	movzbl (%rdx),%eax
  40a70a:	84 c0                	test   %al,%al
  40a70c:	74 26                	je     40a734 <__sprintf_chk@plt+0x8234>
  40a70e:	48 8b 4c 24 28       	mov    0x28(%rsp),%rcx
  40a713:	48 29 da             	sub    %rbx,%rdx
  40a716:	66 2e 0f 1f 84 00 00 	nopw   %cs:0x0(%rax,%rax,1)
  40a71d:	00 00 00 
  40a720:	49 39 db             	cmp    %rbx,%r11
  40a723:	76 03                	jbe    40a728 <__sprintf_chk@plt+0x8228>
  40a725:	88 04 19             	mov    %al,(%rcx,%rbx,1)
  40a728:	48 83 c3 01          	add    $0x1,%rbx
  40a72c:	0f b6 04 1a          	movzbl (%rdx,%rbx,1),%eax
  40a730:	84 c0                	test   %al,%al
  40a732:	75 ec                	jne    40a720 <__sprintf_chk@plt+0x8220>
  40a734:	4c 39 db             	cmp    %r11,%rbx
  40a737:	48 89 d8             	mov    %rbx,%rax
  40a73a:	0f 83 96 00 00 00    	jae    40a7d6 <__sprintf_chk@plt+0x82d6>
  40a740:	48 8b 74 24 28       	mov    0x28(%rsp),%rsi
  40a745:	c6 04 1e 00          	movb   $0x0,(%rsi,%rbx,1)
  40a749:	e9 88 00 00 00       	jmpq   40a7d6 <__sprintf_chk@plt+0x82d6>
  40a74e:	66 90                	xchg   %ax,%ax
  40a750:	49 83 ff 01          	cmp    $0x1,%r15
  40a754:	0f 95 c0             	setne  %al
  40a757:	49 83 ff ff          	cmp    $0xffffffffffffffff,%r15
  40a75b:	0f 84 5f 06 00 00    	je     40adc0 <__sprintf_chk@plt+0x88c0>
  40a761:	84 c0                	test   %al,%al
  40a763:	0f 85 df fe ff ff    	jne    40a648 <__sprintf_chk@plt+0x8148>
  40a769:	48 85 ed             	test   %rbp,%rbp
  40a76c:	0f 85 d6 fe ff ff    	jne    40a648 <__sprintf_chk@plt+0x8148>
  40a772:	83 7c 24 34 02       	cmpl   $0x2,0x34(%rsp)
  40a777:	0f 85 cb fe ff ff    	jne    40a648 <__sprintf_chk@plt+0x8148>
  40a77d:	0f 1f 00             	nopl   (%rax)
  40a780:	80 7c 24 33 00       	cmpb   $0x0,0x33(%rsp)
  40a785:	0f 84 bd fe ff ff    	je     40a648 <__sprintf_chk@plt+0x8148>
  40a78b:	0f 1f 44 00 00       	nopl   0x0(%rax,%rax,1)
  40a790:	4d 89 f3             	mov    %r14,%r11
  40a793:	4d 89 c5             	mov    %r8,%r13
  40a796:	48 8b 44 24 68       	mov    0x68(%rsp),%rax
  40a79b:	44 8b 8c 24 90 00 00 	mov    0x90(%rsp),%r9d
  40a7a2:	00 
  40a7a3:	4c 89 f9             	mov    %r15,%rcx
  40a7a6:	44 8b 44 24 34       	mov    0x34(%rsp),%r8d
  40a7ab:	48 8b 7c 24 28       	mov    0x28(%rsp),%rdi
  40a7b0:	4c 89 ea             	mov    %r13,%rdx
  40a7b3:	48 c7 04 24 00 00 00 	movq   $0x0,(%rsp)
  40a7ba:	00 
  40a7bb:	4c 89 de             	mov    %r11,%rsi
  40a7be:	48 89 44 24 10       	mov    %rax,0x10(%rsp)
  40a7c3:	48 8b 44 24 70       	mov    0x70(%rsp),%rax
  40a7c8:	41 83 e1 fd          	and    $0xfffffffd,%r9d
  40a7cc:	48 89 44 24 08       	mov    %rax,0x8(%rsp)
  40a7d1:	e8 1a fc ff ff       	callq  40a3f0 <__sprintf_chk@plt+0x7ef0>
  40a7d6:	48 8b b4 24 b8 00 00 	mov    0xb8(%rsp),%rsi
  40a7dd:	00 
  40a7de:	64 48 33 34 25 28 00 	xor    %fs:0x28,%rsi
  40a7e5:	00 00 
  40a7e7:	0f 85 86 07 00 00    	jne    40af73 <__sprintf_chk@plt+0x8a73>
  40a7ed:	48 81 c4 c8 00 00 00 	add    $0xc8,%rsp
  40a7f4:	5b                   	pop    %rbx
  40a7f5:	5d                   	pop    %rbp
  40a7f6:	41 5c                	pop    %r12
  40a7f8:	41 5d                	pop    %r13
  40a7fa:	41 5e                	pop    %r14
  40a7fc:	41 5f                	pop    %r15
  40a7fe:	c3                   	retq   
  40a7ff:	90                   	nop
  40a800:	b8 72 00 00 00       	mov    $0x72,%eax
  40a805:	83 7c 24 34 02       	cmpl   $0x2,0x34(%rsp)
  40a80a:	0f 84 2f 06 00 00    	je     40ae3f <__sprintf_chk@plt+0x893f>
  40a810:	80 7c 24 20 00       	cmpb   $0x0,0x20(%rsp)
  40a815:	0f 84 2d fe ff ff    	je     40a648 <__sprintf_chk@plt+0x8148>
  40a81b:	41 89 c4             	mov    %eax,%r12d
  40a81e:	e9 60 fe ff ff       	jmpq   40a683 <__sprintf_chk@plt+0x8183>
  40a823:	0f 1f 44 00 00       	nopl   0x0(%rax,%rax,1)
  40a828:	b8 62 00 00 00       	mov    $0x62,%eax
  40a82d:	eb e1                	jmp    40a810 <__sprintf_chk@plt+0x8310>
  40a82f:	90                   	nop
  40a830:	b8 66 00 00 00       	mov    $0x66,%eax
  40a835:	eb d9                	jmp    40a810 <__sprintf_chk@plt+0x8310>
  40a837:	66 0f 1f 84 00 00 00 	nopw   0x0(%rax,%rax,1)
  40a83e:	00 00 
  40a840:	b8 76 00 00 00       	mov    $0x76,%eax
  40a845:	eb c9                	jmp    40a810 <__sprintf_chk@plt+0x8310>
  40a847:	66 0f 1f 84 00 00 00 	nopw   0x0(%rax,%rax,1)
  40a84e:	00 00 
  40a850:	b8 6e 00 00 00       	mov    $0x6e,%eax
  40a855:	eb ae                	jmp    40a805 <__sprintf_chk@plt+0x8305>
  40a857:	66 0f 1f 84 00 00 00 	nopw   0x0(%rax,%rax,1)
  40a85e:	00 00 
  40a860:	b8 74 00 00 00       	mov    $0x74,%eax
  40a865:	eb 9e                	jmp    40a805 <__sprintf_chk@plt+0x8305>
  40a867:	66 0f 1f 84 00 00 00 	nopw   0x0(%rax,%rax,1)
  40a86e:	00 00 
  40a870:	80 7c 24 20 00       	cmpb   $0x0,0x20(%rsp)
  40a875:	0f 84 15 05 00 00    	je     40ad90 <__sprintf_chk@plt+0x8890>
  40a87b:	80 7c 24 33 00       	cmpb   $0x0,0x33(%rsp)
  40a880:	0f 85 0a ff ff ff    	jne    40a790 <__sprintf_chk@plt+0x8290>
  40a886:	4c 39 f3             	cmp    %r14,%rbx
  40a889:	73 09                	jae    40a894 <__sprintf_chk@plt+0x8394>
  40a88b:	48 8b 44 24 28       	mov    0x28(%rsp),%rax
  40a890:	c6 04 18 5c          	movb   $0x5c,(%rax,%rbx,1)
  40a894:	48 8d 55 01          	lea    0x1(%rbp),%rdx
  40a898:	48 8d 43 01          	lea    0x1(%rbx),%rax
  40a89c:	49 39 d7             	cmp    %rdx,%r15
  40a89f:	76 2f                	jbe    40a8d0 <__sprintf_chk@plt+0x83d0>
  40a8a1:	41 0f b6 74 28 01    	movzbl 0x1(%r8,%rbp,1),%esi
  40a8a7:	8d 56 d0             	lea    -0x30(%rsi),%edx
  40a8aa:	80 fa 09             	cmp    $0x9,%dl
  40a8ad:	77 21                	ja     40a8d0 <__sprintf_chk@plt+0x83d0>
  40a8af:	49 39 c6             	cmp    %rax,%r14
  40a8b2:	0f 87 98 05 00 00    	ja     40ae50 <__sprintf_chk@plt+0x8950>
  40a8b8:	48 8d 43 02          	lea    0x2(%rbx),%rax
  40a8bc:	49 39 c6             	cmp    %rax,%r14
  40a8bf:	76 0a                	jbe    40a8cb <__sprintf_chk@plt+0x83cb>
  40a8c1:	48 8b 44 24 28       	mov    0x28(%rsp),%rax
  40a8c6:	c6 44 18 02 30       	movb   $0x30,0x2(%rax,%rbx,1)
  40a8cb:	48 8d 43 03          	lea    0x3(%rbx),%rax
  40a8cf:	90                   	nop
  40a8d0:	48 89 c3             	mov    %rax,%rbx
  40a8d3:	41 bc 30 00 00 00    	mov    $0x30,%r12d
  40a8d9:	e9 7b fd ff ff       	jmpq   40a659 <__sprintf_chk@plt+0x8159>
  40a8de:	66 90                	xchg   %ax,%ax
  40a8e0:	b8 61 00 00 00       	mov    $0x61,%eax
  40a8e5:	e9 26 ff ff ff       	jmpq   40a810 <__sprintf_chk@plt+0x8310>
  40a8ea:	66 0f 1f 44 00 00    	nopw   0x0(%rax,%rax,1)
  40a8f0:	80 7c 24 20 00       	cmpb   $0x0,0x20(%rsp)
  40a8f5:	74 0f                	je     40a906 <__sprintf_chk@plt+0x8406>
  40a8f7:	80 7c 24 33 00       	cmpb   $0x0,0x33(%rsp)
  40a8fc:	74 08                	je     40a906 <__sprintf_chk@plt+0x8406>
  40a8fe:	84 c9                	test   %cl,%cl
  40a900:	0f 85 9a fd ff ff    	jne    40a6a0 <__sprintf_chk@plt+0x81a0>
  40a906:	44 89 e0             	mov    %r12d,%eax
  40a909:	e9 f7 fe ff ff       	jmpq   40a805 <__sprintf_chk@plt+0x8305>
  40a90e:	66 90                	xchg   %ax,%ax
  40a910:	83 7c 24 34 02       	cmpl   $0x2,0x34(%rsp)
  40a915:	0f 85 2d fd ff ff    	jne    40a648 <__sprintf_chk@plt+0x8148>
  40a91b:	80 7c 24 33 00       	cmpb   $0x0,0x33(%rsp)
  40a920:	0f 85 6a fe ff ff    	jne    40a790 <__sprintf_chk@plt+0x8290>
  40a926:	4c 39 f3             	cmp    %r14,%rbx
  40a929:	73 09                	jae    40a934 <__sprintf_chk@plt+0x8434>
  40a92b:	48 8b 44 24 28       	mov    0x28(%rsp),%rax
  40a930:	c6 04 18 27          	movb   $0x27,(%rax,%rbx,1)
  40a934:	48 8d 43 01          	lea    0x1(%rbx),%rax
  40a938:	49 39 c6             	cmp    %rax,%r14
  40a93b:	76 0a                	jbe    40a947 <__sprintf_chk@plt+0x8447>
  40a93d:	48 8b 44 24 28       	mov    0x28(%rsp),%rax
  40a942:	c6 44 18 01 5c       	movb   $0x5c,0x1(%rax,%rbx,1)
  40a947:	48 8d 43 02          	lea    0x2(%rbx),%rax
  40a94b:	49 39 c6             	cmp    %rax,%r14
  40a94e:	76 0a                	jbe    40a95a <__sprintf_chk@plt+0x845a>
  40a950:	48 8b 44 24 28       	mov    0x28(%rsp),%rax
  40a955:	c6 44 18 02 27       	movb   $0x27,0x2(%rax,%rbx,1)
  40a95a:	48 83 c3 03          	add    $0x3,%rbx
  40a95e:	e9 e5 fc ff ff       	jmpq   40a648 <__sprintf_chk@plt+0x8148>
  40a963:	0f 1f 44 00 00       	nopl   0x0(%rax,%rax,1)
  40a968:	48 83 7c 24 78 01    	cmpq   $0x1,0x78(%rsp)
  40a96e:	0f 85 9c 02 00 00    	jne    40ac10 <__sprintf_chk@plt+0x8710>
  40a974:	4c 89 44 24 50       	mov    %r8,0x50(%rsp)
  40a979:	4c 89 4c 24 48       	mov    %r9,0x48(%rsp)
  40a97e:	44 89 5c 24 40       	mov    %r11d,0x40(%rsp)
  40a983:	e8 58 7b ff ff       	callq  4024e0 <__ctype_b_loc@plt>
  40a988:	48 8b 00             	mov    (%rax),%rax
  40a98b:	41 0f b6 d4          	movzbl %r12b,%edx
  40a98f:	44 8b 5c 24 40       	mov    0x40(%rsp),%r11d
  40a994:	4c 8b 4c 24 48       	mov    0x48(%rsp),%r9
  40a999:	4c 8b 44 24 50       	mov    0x50(%rsp),%r8
  40a99e:	0f b7 14 50          	movzwl (%rax,%rdx,2),%edx
  40a9a2:	b8 01 00 00 00       	mov    $0x1,%eax
  40a9a7:	66 c1 ea 0e          	shr    $0xe,%dx
  40a9ab:	83 f2 01             	xor    $0x1,%edx
  40a9ae:	83 e2 01             	and    $0x1,%edx
  40a9b1:	22 54 24 20          	and    0x20(%rsp),%dl
  40a9b5:	0f 84 8d fc ff ff    	je     40a648 <__sprintf_chk@plt+0x8148>
  40a9bb:	48 01 e8             	add    %rbp,%rax
  40a9be:	0f b6 7c 24 33       	movzbl 0x33(%rsp),%edi
  40a9c3:	48 8b 4c 24 28       	mov    0x28(%rsp),%rcx
  40a9c8:	eb 76                	jmp    40aa40 <__sprintf_chk@plt+0x8540>
  40a9ca:	66 0f 1f 44 00 00    	nopw   0x0(%rax,%rax,1)
  40a9d0:	40 84 ff             	test   %dil,%dil
  40a9d3:	0f 85 b7 fd ff ff    	jne    40a790 <__sprintf_chk@plt+0x8290>
  40a9d9:	4c 39 f3             	cmp    %r14,%rbx
  40a9dc:	73 04                	jae    40a9e2 <__sprintf_chk@plt+0x84e2>
  40a9de:	c6 04 19 5c          	movb   $0x5c,(%rcx,%rbx,1)
  40a9e2:	48 8d 73 01          	lea    0x1(%rbx),%rsi
  40a9e6:	49 39 f6             	cmp    %rsi,%r14
  40a9e9:	76 0f                	jbe    40a9fa <__sprintf_chk@plt+0x84fa>
  40a9eb:	44 89 e6             	mov    %r12d,%esi
  40a9ee:	40 c0 ee 06          	shr    $0x6,%sil
  40a9f2:	83 c6 30             	add    $0x30,%esi
  40a9f5:	40 88 74 19 01       	mov    %sil,0x1(%rcx,%rbx,1)
  40a9fa:	48 8d 73 02          	lea    0x2(%rbx),%rsi
  40a9fe:	49 39 f6             	cmp    %rsi,%r14
  40aa01:	76 12                	jbe    40aa15 <__sprintf_chk@plt+0x8515>
  40aa03:	44 89 e6             	mov    %r12d,%esi
  40aa06:	40 c0 ee 03          	shr    $0x3,%sil
  40aa0a:	83 e6 07             	and    $0x7,%esi
  40aa0d:	83 c6 30             	add    $0x30,%esi
  40aa10:	40 88 74 19 02       	mov    %sil,0x2(%rcx,%rbx,1)
  40aa15:	41 83 e4 07          	and    $0x7,%r12d
  40aa19:	48 83 c3 03          	add    $0x3,%rbx
  40aa1d:	41 83 c4 30          	add    $0x30,%r12d
  40aa21:	48 83 c5 01          	add    $0x1,%rbp
  40aa25:	48 39 e8             	cmp    %rbp,%rax
  40aa28:	0f 86 76 fc ff ff    	jbe    40a6a4 <__sprintf_chk@plt+0x81a4>
  40aa2e:	4c 39 f3             	cmp    %r14,%rbx
  40aa31:	73 04                	jae    40aa37 <__sprintf_chk@plt+0x8537>
  40aa33:	44 88 24 19          	mov    %r12b,(%rcx,%rbx,1)
  40aa37:	45 0f b6 24 28       	movzbl (%r8,%rbp,1),%r12d
  40aa3c:	48 83 c3 01          	add    $0x1,%rbx
  40aa40:	84 d2                	test   %dl,%dl
  40aa42:	75 8c                	jne    40a9d0 <__sprintf_chk@plt+0x84d0>
  40aa44:	45 84 db             	test   %r11b,%r11b
  40aa47:	74 d8                	je     40aa21 <__sprintf_chk@plt+0x8521>
  40aa49:	4c 39 f3             	cmp    %r14,%rbx
  40aa4c:	73 04                	jae    40aa52 <__sprintf_chk@plt+0x8552>
  40aa4e:	c6 04 19 5c          	movb   $0x5c,(%rcx,%rbx,1)
  40aa52:	48 83 c3 01          	add    $0x1,%rbx
  40aa56:	45 31 db             	xor    %r11d,%r11d
  40aa59:	eb c6                	jmp    40aa21 <__sprintf_chk@plt+0x8521>
  40aa5b:	0f 1f 44 00 00       	nopl   0x0(%rax,%rax,1)
  40aa60:	80 7c 24 33 00       	cmpb   $0x0,0x33(%rsp)
  40aa65:	0f 85 ed 04 00 00    	jne    40af58 <__sprintf_chk@plt+0x8a58>
  40aa6b:	4d 85 db             	test   %r11,%r11
  40aa6e:	0f 84 ad 03 00 00    	je     40ae21 <__sprintf_chk@plt+0x8921>
  40aa74:	48 8b 44 24 28       	mov    0x28(%rsp),%rax
  40aa79:	c6 44 24 20 00       	movb   $0x0,0x20(%rsp)
  40aa7e:	41 be 01 00 00 00    	mov    $0x1,%r14d
  40aa84:	48 c7 44 24 60 2c 52 	movq   $0x41522c,0x60(%rsp)
  40aa8b:	41 00 
  40aa8d:	bb 01 00 00 00       	mov    $0x1,%ebx
  40aa92:	c6 00 27             	movb   $0x27,(%rax)
  40aa95:	e9 16 fa ff ff       	jmpq   40a4b0 <__sprintf_chk@plt+0x7fb0>
  40aa9a:	66 0f 1f 44 00 00    	nopw   0x0(%rax,%rax,1)
  40aaa0:	80 7c 24 33 00       	cmpb   $0x0,0x33(%rsp)
  40aaa5:	0f 85 cd 04 00 00    	jne    40af78 <__sprintf_chk@plt+0x8a78>
  40aaab:	4d 85 db             	test   %r11,%r11
  40aaae:	0f 84 4f 03 00 00    	je     40ae03 <__sprintf_chk@plt+0x8903>
  40aab4:	48 8b 44 24 28       	mov    0x28(%rsp),%rax
  40aab9:	c6 44 24 20 01       	movb   $0x1,0x20(%rsp)
  40aabe:	41 be 01 00 00 00    	mov    $0x1,%r14d
  40aac4:	48 c7 44 24 60 2a 58 	movq   $0x41582a,0x60(%rsp)
  40aacb:	41 00 
  40aacd:	bb 01 00 00 00       	mov    $0x1,%ebx
  40aad2:	c6 00 22             	movb   $0x22,(%rax)
  40aad5:	e9 d6 f9 ff ff       	jmpq   40a4b0 <__sprintf_chk@plt+0x7fb0>
  40aada:	66 0f 1f 44 00 00    	nopw   0x0(%rax,%rax,1)
  40aae0:	c6 44 24 33 00       	movb   $0x0,0x33(%rsp)
  40aae5:	c6 44 24 20 01       	movb   $0x1,0x20(%rsp)
  40aaea:	45 31 f6             	xor    %r14d,%r14d
  40aaed:	48 c7 44 24 60 00 00 	movq   $0x0,0x60(%rsp)
  40aaf4:	00 00 
  40aaf6:	31 db                	xor    %ebx,%ebx
  40aaf8:	e9 b3 f9 ff ff       	jmpq   40a4b0 <__sprintf_chk@plt+0x7fb0>
  40aafd:	0f 1f 00             	nopl   (%rax)
  40ab00:	c6 44 24 33 01       	movb   $0x1,0x33(%rsp)
  40ab05:	c6 44 24 20 01       	movb   $0x1,0x20(%rsp)
  40ab0a:	41 be 01 00 00 00    	mov    $0x1,%r14d
  40ab10:	48 c7 44 24 60 2a 58 	movq   $0x41582a,0x60(%rsp)
  40ab17:	41 00 
  40ab19:	31 db                	xor    %ebx,%ebx
  40ab1b:	c7 44 24 34 03 00 00 	movl   $0x3,0x34(%rsp)
  40ab22:	00 
  40ab23:	e9 88 f9 ff ff       	jmpq   40a4b0 <__sprintf_chk@plt+0x7fb0>
  40ab28:	0f 1f 84 00 00 00 00 	nopl   0x0(%rax,%rax,1)
  40ab2f:	00 
  40ab30:	74 30                	je     40ab62 <__sprintf_chk@plt+0x8662>
  40ab32:	8b 5c 24 34          	mov    0x34(%rsp),%ebx
  40ab36:	bf 34 58 41 00       	mov    $0x415834,%edi
  40ab3b:	4c 89 5c 24 20       	mov    %r11,0x20(%rsp)
  40ab40:	89 de                	mov    %ebx,%esi
  40ab42:	e8 b9 f7 ff ff       	callq  40a300 <__sprintf_chk@plt+0x7e00>
  40ab47:	89 de                	mov    %ebx,%esi
  40ab49:	bf 2c 52 41 00       	mov    $0x41522c,%edi
  40ab4e:	48 89 44 24 70       	mov    %rax,0x70(%rsp)
  40ab53:	e8 a8 f7 ff ff       	callq  40a300 <__sprintf_chk@plt+0x7e00>
  40ab58:	4c 8b 5c 24 20       	mov    0x20(%rsp),%r11
  40ab5d:	48 89 44 24 68       	mov    %rax,0x68(%rsp)
  40ab62:	31 db                	xor    %ebx,%ebx
  40ab64:	80 7c 24 33 00       	cmpb   $0x0,0x33(%rsp)
  40ab69:	75 29                	jne    40ab94 <__sprintf_chk@plt+0x8694>
  40ab6b:	48 8b 54 24 70       	mov    0x70(%rsp),%rdx
  40ab70:	0f b6 02             	movzbl (%rdx),%eax
  40ab73:	84 c0                	test   %al,%al
  40ab75:	74 1d                	je     40ab94 <__sprintf_chk@plt+0x8694>
  40ab77:	48 8b 4c 24 28       	mov    0x28(%rsp),%rcx
  40ab7c:	0f 1f 40 00          	nopl   0x0(%rax)
  40ab80:	4c 39 db             	cmp    %r11,%rbx
  40ab83:	73 03                	jae    40ab88 <__sprintf_chk@plt+0x8688>
  40ab85:	88 04 19             	mov    %al,(%rcx,%rbx,1)
  40ab88:	48 83 c3 01          	add    $0x1,%rbx
  40ab8c:	0f b6 04 1a          	movzbl (%rdx,%rbx,1),%eax
  40ab90:	84 c0                	test   %al,%al
  40ab92:	75 ec                	jne    40ab80 <__sprintf_chk@plt+0x8680>
  40ab94:	48 8b 6c 24 68       	mov    0x68(%rsp),%rbp
  40ab99:	4c 89 5c 24 38       	mov    %r11,0x38(%rsp)
  40ab9e:	48 89 ef             	mov    %rbp,%rdi
  40aba1:	e8 6a 74 ff ff       	callq  402010 <strlen@plt>
  40aba6:	48 89 6c 24 60       	mov    %rbp,0x60(%rsp)
  40abab:	49 89 c6             	mov    %rax,%r14
  40abae:	c6 44 24 20 01       	movb   $0x1,0x20(%rsp)
  40abb3:	4c 8b 5c 24 38       	mov    0x38(%rsp),%r11
  40abb8:	e9 f3 f8 ff ff       	jmpq   40a4b0 <__sprintf_chk@plt+0x7fb0>
  40abbd:	0f 1f 00             	nopl   (%rax)
  40abc0:	c6 44 24 33 01       	movb   $0x1,0x33(%rsp)
  40abc5:	c6 44 24 20 00       	movb   $0x0,0x20(%rsp)
  40abca:	41 be 01 00 00 00    	mov    $0x1,%r14d
  40abd0:	48 c7 44 24 60 2c 52 	movq   $0x41522c,0x60(%rsp)
  40abd7:	41 00 
  40abd9:	31 db                	xor    %ebx,%ebx
  40abdb:	c7 44 24 34 02 00 00 	movl   $0x2,0x34(%rsp)
  40abe2:	00 
  40abe3:	e9 c8 f8 ff ff       	jmpq   40a4b0 <__sprintf_chk@plt+0x7fb0>
  40abe8:	0f 1f 84 00 00 00 00 	nopl   0x0(%rax,%rax,1)
  40abef:	00 
  40abf0:	4d 8d 2c 28          	lea    (%r8,%rbp,1),%r13
  40abf4:	45 31 db             	xor    %r11d,%r11d
  40abf7:	e9 74 f9 ff ff       	jmpq   40a570 <__sprintf_chk@plt+0x8070>
  40abfc:	0f 1f 40 00          	nopl   0x0(%rax)
  40ac00:	45 31 db             	xor    %r11d,%r11d
  40ac03:	e9 68 f9 ff ff       	jmpq   40a570 <__sprintf_chk@plt+0x8070>
  40ac08:	0f 1f 84 00 00 00 00 	nopl   0x0(%rax,%rax,1)
  40ac0f:	00 
  40ac10:	49 83 ff ff          	cmp    $0xffffffffffffffff,%r15
  40ac14:	48 c7 84 24 b0 00 00 	movq   $0x0,0xb0(%rsp)
  40ac1b:	00 00 00 00 00 
  40ac20:	0f 84 af 01 00 00    	je     40add5 <__sprintf_chk@plt+0x88d5>
  40ac26:	be 01 00 00 00       	mov    $0x1,%esi
  40ac2b:	31 c0                	xor    %eax,%eax
  40ac2d:	48 89 9c 24 80 00 00 	mov    %rbx,0x80(%rsp)
  40ac34:	00 
  40ac35:	44 88 a4 24 96 00 00 	mov    %r12b,0x96(%rsp)
  40ac3c:	00 
  40ac3d:	4c 89 ac 24 98 00 00 	mov    %r13,0x98(%rsp)
  40ac44:	00 
  40ac45:	48 89 c3             	mov    %rax,%rbx
  40ac48:	48 89 6c 24 48       	mov    %rbp,0x48(%rsp)
  40ac4d:	4c 89 8c 24 88 00 00 	mov    %r9,0x88(%rsp)
  40ac54:	00 
  40ac55:	41 89 f4             	mov    %esi,%r12d
  40ac58:	44 88 9c 24 97 00 00 	mov    %r11b,0x97(%rsp)
  40ac5f:	00 
  40ac60:	4c 89 74 24 50       	mov    %r14,0x50(%rsp)
  40ac65:	4d 89 c5             	mov    %r8,%r13
  40ac68:	4c 89 7c 24 40       	mov    %r15,0x40(%rsp)
  40ac6d:	48 8b 44 24 48       	mov    0x48(%rsp),%rax
  40ac72:	48 8b 54 24 40       	mov    0x40(%rsp),%rdx
  40ac77:	48 8d 8c 24 b0 00 00 	lea    0xb0(%rsp),%rcx
  40ac7e:	00 
  40ac7f:	48 8d bc 24 ac 00 00 	lea    0xac(%rsp),%rdi
  40ac86:	00 
  40ac87:	4c 8d 34 03          	lea    (%rbx,%rax,1),%r14
  40ac8b:	4f 8d 7c 35 00       	lea    0x0(%r13,%r14,1),%r15
  40ac90:	4c 29 f2             	sub    %r14,%rdx
  40ac93:	4c 89 fe             	mov    %r15,%rsi
  40ac96:	e8 c5 73 ff ff       	callq  402060 <mbrtowc@plt>
  40ac9b:	48 85 c0             	test   %rax,%rax
  40ac9e:	48 89 c5             	mov    %rax,%rbp
  40aca1:	0f 84 b7 01 00 00    	je     40ae5e <__sprintf_chk@plt+0x895e>
  40aca7:	48 83 f8 ff          	cmp    $0xffffffffffffffff,%rax
  40acab:	0f 84 ef 01 00 00    	je     40aea0 <__sprintf_chk@plt+0x89a0>
  40acb1:	48 83 f8 fe          	cmp    $0xfffffffffffffffe,%rax
  40acb5:	0f 84 26 02 00 00    	je     40aee1 <__sprintf_chk@plt+0x89e1>
  40acbb:	80 7c 24 33 00       	cmpb   $0x0,0x33(%rsp)
  40acc0:	74 4d                	je     40ad0f <__sprintf_chk@plt+0x880f>
  40acc2:	83 7c 24 34 02       	cmpl   $0x2,0x34(%rsp)
  40acc7:	75 46                	jne    40ad0f <__sprintf_chk@plt+0x880f>
  40acc9:	48 83 f8 01          	cmp    $0x1,%rax
  40accd:	74 40                	je     40ad0f <__sprintf_chk@plt+0x880f>
  40accf:	ba 01 00 00 00       	mov    $0x1,%edx
  40acd4:	b8 01 00 00 00       	mov    $0x1,%eax
  40acd9:	0f 1f 80 00 00 00 00 	nopl   0x0(%rax)
  40ace0:	41 0f b6 3c 17       	movzbl (%r15,%rdx,1),%edi
  40ace5:	8d 4f a5             	lea    -0x5b(%rdi),%ecx
  40ace8:	80 f9 21             	cmp    $0x21,%cl
  40aceb:	77 19                	ja     40ad06 <__sprintf_chk@plt+0x8806>
  40aced:	48 89 c6             	mov    %rax,%rsi
  40acf0:	48 bf 2b 00 00 00 02 	movabs $0x20000002b,%rdi
  40acf7:	00 00 00 
  40acfa:	48 d3 e6             	shl    %cl,%rsi
  40acfd:	48 85 fe             	test   %rdi,%rsi
  40ad00:	0f 85 aa 00 00 00    	jne    40adb0 <__sprintf_chk@plt+0x88b0>
  40ad06:	48 83 c2 01          	add    $0x1,%rdx
  40ad0a:	48 39 ea             	cmp    %rbp,%rdx
  40ad0d:	75 d1                	jne    40ace0 <__sprintf_chk@plt+0x87e0>
  40ad0f:	8b bc 24 ac 00 00 00 	mov    0xac(%rsp),%edi
  40ad16:	e8 85 77 ff ff       	callq  4024a0 <iswprint@plt>
  40ad1b:	48 8d bc 24 b0 00 00 	lea    0xb0(%rsp),%rdi
  40ad22:	00 
  40ad23:	85 c0                	test   %eax,%eax
  40ad25:	b8 00 00 00 00       	mov    $0x0,%eax
  40ad2a:	44 0f 44 e0          	cmove  %eax,%r12d
  40ad2e:	48 01 eb             	add    %rbp,%rbx
  40ad31:	e8 5a 77 ff ff       	callq  402490 <mbsinit@plt>
  40ad36:	85 c0                	test   %eax,%eax
  40ad38:	0f 84 2f ff ff ff    	je     40ac6d <__sprintf_chk@plt+0x876d>
  40ad3e:	44 89 e6             	mov    %r12d,%esi
  40ad41:	44 0f b6 9c 24 97 00 	movzbl 0x97(%rsp),%r11d
  40ad48:	00 00 
  40ad4a:	44 0f b6 a4 24 96 00 	movzbl 0x96(%rsp),%r12d
  40ad51:	00 00 
  40ad53:	48 89 d8             	mov    %rbx,%rax
  40ad56:	48 8b 6c 24 48       	mov    0x48(%rsp),%rbp
  40ad5b:	4c 8b 8c 24 88 00 00 	mov    0x88(%rsp),%r9
  40ad62:	00 
  40ad63:	48 8b 9c 24 80 00 00 	mov    0x80(%rsp),%rbx
  40ad6a:	00 
  40ad6b:	4c 8b 74 24 50       	mov    0x50(%rsp),%r14
  40ad70:	89 f2                	mov    %esi,%edx
  40ad72:	4c 8b 7c 24 40       	mov    0x40(%rsp),%r15
  40ad77:	4d 89 e8             	mov    %r13,%r8
  40ad7a:	83 f2 01             	xor    $0x1,%edx
  40ad7d:	48 83 f8 01          	cmp    $0x1,%rax
  40ad81:	0f 86 2a fc ff ff    	jbe    40a9b1 <__sprintf_chk@plt+0x84b1>
  40ad87:	22 54 24 20          	and    0x20(%rsp),%dl
  40ad8b:	e9 2b fc ff ff       	jmpq   40a9bb <__sprintf_chk@plt+0x84bb>
  40ad90:	f6 84 24 90 00 00 00 	testb  $0x1,0x90(%rsp)
  40ad97:	01 
  40ad98:	0f 84 aa f8 ff ff    	je     40a648 <__sprintf_chk@plt+0x8148>
  40ad9e:	48 83 c5 01          	add    $0x1,%rbp
  40ada2:	e9 2f f7 ff ff       	jmpq   40a4d6 <__sprintf_chk@plt+0x7fd6>
  40ada7:	66 0f 1f 84 00 00 00 	nopw   0x0(%rax,%rax,1)
  40adae:	00 00 
  40adb0:	4c 8b 5c 24 50       	mov    0x50(%rsp),%r11
  40adb5:	4c 8b 7c 24 40       	mov    0x40(%rsp),%r15
  40adba:	e9 d7 f9 ff ff       	jmpq   40a796 <__sprintf_chk@plt+0x8296>
  40adbf:	90                   	nop
  40adc0:	41 80 78 01 00       	cmpb   $0x0,0x1(%r8)
  40adc5:	0f 95 c0             	setne  %al
  40adc8:	e9 94 f9 ff ff       	jmpq   40a761 <__sprintf_chk@plt+0x8261>
  40adcd:	0f 1f 00             	nopl   (%rax)
  40add0:	e8 2b 71 ff ff       	callq  401f00 <abort@plt>
  40add5:	4c 89 c7             	mov    %r8,%rdi
  40add8:	4c 89 4c 24 50       	mov    %r9,0x50(%rsp)
  40addd:	44 89 5c 24 48       	mov    %r11d,0x48(%rsp)
  40ade2:	4c 89 44 24 40       	mov    %r8,0x40(%rsp)
  40ade7:	e8 24 72 ff ff       	callq  402010 <strlen@plt>
  40adec:	4c 8b 4c 24 50       	mov    0x50(%rsp),%r9
  40adf1:	49 89 c7             	mov    %rax,%r15
  40adf4:	44 8b 5c 24 48       	mov    0x48(%rsp),%r11d
  40adf9:	4c 8b 44 24 40       	mov    0x40(%rsp),%r8
  40adfe:	e9 23 fe ff ff       	jmpq   40ac26 <__sprintf_chk@plt+0x8726>
  40ae03:	c6 44 24 20 01       	movb   $0x1,0x20(%rsp)
  40ae08:	41 be 01 00 00 00    	mov    $0x1,%r14d
  40ae0e:	48 c7 44 24 60 2a 58 	movq   $0x41582a,0x60(%rsp)
  40ae15:	41 00 
  40ae17:	bb 01 00 00 00       	mov    $0x1,%ebx
  40ae1c:	e9 8f f6 ff ff       	jmpq   40a4b0 <__sprintf_chk@plt+0x7fb0>
  40ae21:	c6 44 24 20 00       	movb   $0x0,0x20(%rsp)
  40ae26:	41 be 01 00 00 00    	mov    $0x1,%r14d
  40ae2c:	48 c7 44 24 60 2c 52 	movq   $0x41522c,0x60(%rsp)
  40ae33:	41 00 
  40ae35:	bb 01 00 00 00       	mov    $0x1,%ebx
  40ae3a:	e9 71 f6 ff ff       	jmpq   40a4b0 <__sprintf_chk@plt+0x7fb0>
  40ae3f:	80 7c 24 33 00       	cmpb   $0x0,0x33(%rsp)
  40ae44:	0f 84 c6 f9 ff ff    	je     40a810 <__sprintf_chk@plt+0x8310>
  40ae4a:	e9 41 f9 ff ff       	jmpq   40a790 <__sprintf_chk@plt+0x8290>
  40ae4f:	90                   	nop
  40ae50:	48 8b 74 24 28       	mov    0x28(%rsp),%rsi
  40ae55:	c6 04 06 30          	movb   $0x30,(%rsi,%rax,1)
  40ae59:	e9 5a fa ff ff       	jmpq   40a8b8 <__sprintf_chk@plt+0x83b8>
  40ae5e:	44 89 e2             	mov    %r12d,%edx
  40ae61:	48 89 d8             	mov    %rbx,%rax
  40ae64:	48 8b 6c 24 48       	mov    0x48(%rsp),%rbp
  40ae69:	4c 8b 8c 24 88 00 00 	mov    0x88(%rsp),%r9
  40ae70:	00 
  40ae71:	44 0f b6 9c 24 97 00 	movzbl 0x97(%rsp),%r11d
  40ae78:	00 00 
  40ae7a:	4d 89 e8             	mov    %r13,%r8
  40ae7d:	48 8b 9c 24 80 00 00 	mov    0x80(%rsp),%rbx
  40ae84:	00 
  40ae85:	44 0f b6 a4 24 96 00 	movzbl 0x96(%rsp),%r12d
  40ae8c:	00 00 
  40ae8e:	83 f2 01             	xor    $0x1,%edx
  40ae91:	4c 8b 74 24 50       	mov    0x50(%rsp),%r14
  40ae96:	4c 8b 7c 24 40       	mov    0x40(%rsp),%r15
  40ae9b:	e9 dd fe ff ff       	jmpq   40ad7d <__sprintf_chk@plt+0x887d>
  40aea0:	48 89 d8             	mov    %rbx,%rax
  40aea3:	48 8b 6c 24 48       	mov    0x48(%rsp),%rbp
  40aea8:	4c 8b 8c 24 88 00 00 	mov    0x88(%rsp),%r9
  40aeaf:	00 
  40aeb0:	44 0f b6 a4 24 96 00 	movzbl 0x96(%rsp),%r12d
  40aeb7:	00 00 
  40aeb9:	44 0f b6 9c 24 97 00 	movzbl 0x97(%rsp),%r11d
  40aec0:	00 00 
  40aec2:	4d 89 e8             	mov    %r13,%r8
  40aec5:	48 8b 9c 24 80 00 00 	mov    0x80(%rsp),%rbx
  40aecc:	00 
  40aecd:	4c 8b 74 24 50       	mov    0x50(%rsp),%r14
  40aed2:	ba 01 00 00 00       	mov    $0x1,%edx
  40aed7:	4c 8b 7c 24 40       	mov    0x40(%rsp),%r15
  40aedc:	e9 9c fe ff ff       	jmpq   40ad7d <__sprintf_chk@plt+0x887d>
  40aee1:	4d 89 fa             	mov    %r15,%r10
  40aee4:	4c 8b 7c 24 40       	mov    0x40(%rsp),%r15
  40aee9:	4c 89 f6             	mov    %r14,%rsi
  40aeec:	48 89 d8             	mov    %rbx,%rax
  40aeef:	4d 89 e8             	mov    %r13,%r8
  40aef2:	48 8b 6c 24 48       	mov    0x48(%rsp),%rbp
  40aef7:	4c 8b 8c 24 88 00 00 	mov    0x88(%rsp),%r9
  40aefe:	00 
  40aeff:	44 0f b6 a4 24 96 00 	movzbl 0x96(%rsp),%r12d
  40af06:	00 00 
  40af08:	49 39 f7             	cmp    %rsi,%r15
  40af0b:	44 0f b6 9c 24 97 00 	movzbl 0x97(%rsp),%r11d
  40af12:	00 00 
  40af14:	48 8b 9c 24 80 00 00 	mov    0x80(%rsp),%rbx
  40af1b:	00 
  40af1c:	4c 8b 74 24 50       	mov    0x50(%rsp),%r14
  40af21:	4c 8b ac 24 98 00 00 	mov    0x98(%rsp),%r13
  40af28:	00 
  40af29:	76 23                	jbe    40af4e <__sprintf_chk@plt+0x8a4e>
  40af2b:	41 80 3a 00          	cmpb   $0x0,(%r10)
  40af2f:	75 0f                	jne    40af40 <__sprintf_chk@plt+0x8a40>
  40af31:	eb 1b                	jmp    40af4e <__sprintf_chk@plt+0x8a4e>
  40af33:	0f 1f 44 00 00       	nopl   0x0(%rax,%rax,1)
  40af38:	41 80 7c 05 00 00    	cmpb   $0x0,0x0(%r13,%rax,1)
  40af3e:	74 0e                	je     40af4e <__sprintf_chk@plt+0x8a4e>
  40af40:	48 83 c0 01          	add    $0x1,%rax
  40af44:	48 8d 54 05 00       	lea    0x0(%rbp,%rax,1),%rdx
  40af49:	49 39 d7             	cmp    %rdx,%r15
  40af4c:	77 ea                	ja     40af38 <__sprintf_chk@plt+0x8a38>
  40af4e:	ba 01 00 00 00       	mov    $0x1,%edx
  40af53:	e9 25 fe ff ff       	jmpq   40ad7d <__sprintf_chk@plt+0x887d>
  40af58:	c6 44 24 20 00       	movb   $0x0,0x20(%rsp)
  40af5d:	41 be 01 00 00 00    	mov    $0x1,%r14d
  40af63:	48 c7 44 24 60 2c 52 	movq   $0x41522c,0x60(%rsp)
  40af6a:	41 00 
  40af6c:	31 db                	xor    %ebx,%ebx
  40af6e:	e9 3d f5 ff ff       	jmpq   40a4b0 <__sprintf_chk@plt+0x7fb0>
  40af73:	e8 c8 70 ff ff       	callq  402040 <__stack_chk_fail@plt>
  40af78:	c6 44 24 20 01       	movb   $0x1,0x20(%rsp)
  40af7d:	41 be 01 00 00 00    	mov    $0x1,%r14d
  40af83:	48 c7 44 24 60 2a 58 	movq   $0x41582a,0x60(%rsp)
  40af8a:	41 00 
  40af8c:	31 db                	xor    %ebx,%ebx
  40af8e:	e9 1d f5 ff ff       	jmpq   40a4b0 <__sprintf_chk@plt+0x7fb0>
  40af93:	66 66 66 66 2e 0f 1f 	data32 data32 data32 nopw %cs:0x0(%rax,%rax,1)
  40af9a:	84 00 00 00 00 00 
  40afa0:	41 57                	push   %r15
  40afa2:	4c 63 ff             	movslq %edi,%r15
  40afa5:	41 56                	push   %r14
  40afa7:	41 55                	push   %r13
  40afa9:	41 54                	push   %r12
  40afab:	55                   	push   %rbp
  40afac:	53                   	push   %rbx
  40afad:	48 89 cb             	mov    %rcx,%rbx
  40afb0:	48 83 ec 48          	sub    $0x48,%rsp
  40afb4:	48 89 74 24 20       	mov    %rsi,0x20(%rsp)
  40afb9:	48 89 54 24 28       	mov    %rdx,0x28(%rsp)
  40afbe:	e8 4d 6f ff ff       	callq  401f10 <__errno_location@plt>
  40afc3:	49 89 c5             	mov    %rax,%r13
  40afc6:	8b 00                	mov    (%rax),%eax
  40afc8:	45 85 ff             	test   %r15d,%r15d
  40afcb:	4c 8b 25 06 f4 20 00 	mov    0x20f406(%rip),%r12        # 61a3d8 <fts_children+0x20aa18>
  40afd2:	89 44 24 34          	mov    %eax,0x34(%rsp)
  40afd6:	0f 88 6b 01 00 00    	js     40b147 <__sprintf_chk@plt+0x8c47>
  40afdc:	44 3b 3d 0d f4 20 00 	cmp    0x20f40d(%rip),%r15d        # 61a3f0 <fts_children+0x20aa30>
  40afe3:	72 65                	jb     40b04a <__sprintf_chk@plt+0x8b4a>
  40afe5:	41 8d 6f 01          	lea    0x1(%r15),%ebp
  40afe9:	41 89 ee             	mov    %ebp,%r14d
  40afec:	4c 89 f6             	mov    %r14,%rsi
  40afef:	48 c1 e6 04          	shl    $0x4,%rsi
  40aff3:	49 81 fc e0 a3 61 00 	cmp    $0x61a3e0,%r12
  40affa:	0f 85 30 01 00 00    	jne    40b130 <__sprintf_chk@plt+0x8c30>
  40b000:	31 ff                	xor    %edi,%edi
  40b002:	e8 c9 13 00 00       	callq  40c3d0 <__sprintf_chk@plt+0x9ed0>
  40b007:	48 8b 35 d2 f3 20 00 	mov    0x20f3d2(%rip),%rsi        # 61a3e0 <fts_children+0x20aa20>
  40b00e:	48 8b 3d d3 f3 20 00 	mov    0x20f3d3(%rip),%rdi        # 61a3e8 <fts_children+0x20aa28>
  40b015:	49 89 c4             	mov    %rax,%r12
  40b018:	48 89 05 b9 f3 20 00 	mov    %rax,0x20f3b9(%rip)        # 61a3d8 <fts_children+0x20aa18>
  40b01f:	48 89 30             	mov    %rsi,(%rax)
  40b022:	48 89 78 08          	mov    %rdi,0x8(%rax)
  40b026:	8b 3d c4 f3 20 00    	mov    0x20f3c4(%rip),%edi        # 61a3f0 <fts_children+0x20aa30>
  40b02c:	4c 89 f2             	mov    %r14,%rdx
  40b02f:	31 f6                	xor    %esi,%esi
  40b031:	48 29 fa             	sub    %rdi,%rdx
  40b034:	48 c1 e7 04          	shl    $0x4,%rdi
  40b038:	48 c1 e2 04          	shl    $0x4,%rdx
  40b03c:	4c 01 e7             	add    %r12,%rdi
  40b03f:	e8 bc 70 ff ff       	callq  402100 <memset@plt>
  40b044:	89 2d a6 f3 20 00    	mov    %ebp,0x20f3a6(%rip)        # 61a3f0 <fts_children+0x20aa30>
  40b04a:	48 8b 43 30          	mov    0x30(%rbx),%rax
  40b04e:	49 c1 e7 04          	shl    $0x4,%r15
  40b052:	8b 6b 04             	mov    0x4(%rbx),%ebp
  40b055:	4d 01 fc             	add    %r15,%r12
  40b058:	44 8b 03             	mov    (%rbx),%r8d
  40b05b:	4c 8d 7b 08          	lea    0x8(%rbx),%r15
  40b05f:	4d 8b 1c 24          	mov    (%r12),%r11
  40b063:	4d 8b 74 24 08       	mov    0x8(%r12),%r14
  40b068:	48 89 44 24 10       	mov    %rax,0x10(%rsp)
  40b06d:	48 8b 43 28          	mov    0x28(%rbx),%rax
  40b071:	83 cd 01             	or     $0x1,%ebp
  40b074:	48 8b 4c 24 28       	mov    0x28(%rsp),%rcx
  40b079:	48 8b 54 24 20       	mov    0x20(%rsp),%rdx
  40b07e:	41 89 e9             	mov    %ebp,%r9d
  40b081:	4c 89 de             	mov    %r11,%rsi
  40b084:	4c 89 3c 24          	mov    %r15,(%rsp)
  40b088:	4c 89 f7             	mov    %r14,%rdi
  40b08b:	48 89 44 24 08       	mov    %rax,0x8(%rsp)
  40b090:	4c 89 5c 24 38       	mov    %r11,0x38(%rsp)
  40b095:	e8 56 f3 ff ff       	callq  40a3f0 <__sprintf_chk@plt+0x7ef0>
  40b09a:	4c 8b 5c 24 38       	mov    0x38(%rsp),%r11
  40b09f:	49 39 c3             	cmp    %rax,%r11
  40b0a2:	77 6b                	ja     40b10f <__sprintf_chk@plt+0x8c0f>
  40b0a4:	48 8d 70 01          	lea    0x1(%rax),%rsi
  40b0a8:	49 81 fe 20 a5 61 00 	cmp    $0x61a520,%r14
  40b0af:	49 89 34 24          	mov    %rsi,(%r12)
  40b0b3:	74 12                	je     40b0c7 <__sprintf_chk@plt+0x8bc7>
  40b0b5:	4c 89 f7             	mov    %r14,%rdi
  40b0b8:	48 89 74 24 38       	mov    %rsi,0x38(%rsp)
  40b0bd:	e8 0e 6e ff ff       	callq  401ed0 <free@plt>
  40b0c2:	48 8b 74 24 38       	mov    0x38(%rsp),%rsi
  40b0c7:	48 89 f7             	mov    %rsi,%rdi
  40b0ca:	48 89 74 24 38       	mov    %rsi,0x38(%rsp)
  40b0cf:	e8 ac 12 00 00       	callq  40c380 <__sprintf_chk@plt+0x9e80>
  40b0d4:	49 89 44 24 08       	mov    %rax,0x8(%r12)
  40b0d9:	49 89 c6             	mov    %rax,%r14
  40b0dc:	48 8b 43 30          	mov    0x30(%rbx),%rax
  40b0e0:	44 8b 03             	mov    (%rbx),%r8d
  40b0e3:	48 8b 4c 24 28       	mov    0x28(%rsp),%rcx
  40b0e8:	41 89 e9             	mov    %ebp,%r9d
  40b0eb:	48 8b 54 24 20       	mov    0x20(%rsp),%rdx
  40b0f0:	48 8b 74 24 38       	mov    0x38(%rsp),%rsi
  40b0f5:	4c 89 f7             	mov    %r14,%rdi
  40b0f8:	48 89 44 24 10       	mov    %rax,0x10(%rsp)
  40b0fd:	48 8b 43 28          	mov    0x28(%rbx),%rax
  40b101:	4c 89 3c 24          	mov    %r15,(%rsp)
  40b105:	48 89 44 24 08       	mov    %rax,0x8(%rsp)
  40b10a:	e8 e1 f2 ff ff       	callq  40a3f0 <__sprintf_chk@plt+0x7ef0>
  40b10f:	8b 44 24 34          	mov    0x34(%rsp),%eax
  40b113:	41 89 45 00          	mov    %eax,0x0(%r13)
  40b117:	48 83 c4 48          	add    $0x48,%rsp
  40b11b:	4c 89 f0             	mov    %r14,%rax
  40b11e:	5b                   	pop    %rbx
  40b11f:	5d                   	pop    %rbp
  40b120:	41 5c                	pop    %r12
  40b122:	41 5d                	pop    %r13
  40b124:	41 5e                	pop    %r14
  40b126:	41 5f                	pop    %r15
  40b128:	c3                   	retq   
  40b129:	0f 1f 80 00 00 00 00 	nopl   0x0(%rax)
  40b130:	4c 89 e7             	mov    %r12,%rdi
  40b133:	e8 98 12 00 00       	callq  40c3d0 <__sprintf_chk@plt+0x9ed0>
  40b138:	49 89 c4             	mov    %rax,%r12
  40b13b:	48 89 05 96 f2 20 00 	mov    %rax,0x20f296(%rip)        # 61a3d8 <fts_children+0x20aa18>
  40b142:	e9 df fe ff ff       	jmpq   40b026 <__sprintf_chk@plt+0x8b26>
  40b147:	e8 b4 6d ff ff       	callq  401f00 <abort@plt>
  40b14c:	0f 1f 40 00          	nopl   0x0(%rax)
  40b150:	41 54                	push   %r12
  40b152:	55                   	push   %rbp
  40b153:	48 89 fd             	mov    %rdi,%rbp
  40b156:	53                   	push   %rbx
  40b157:	e8 b4 6d ff ff       	callq  401f10 <__errno_location@plt>
  40b15c:	44 8b 20             	mov    (%rax),%r12d
  40b15f:	48 85 ed             	test   %rbp,%rbp
  40b162:	bf 20 a6 61 00       	mov    $0x61a620,%edi
  40b167:	48 89 c3             	mov    %rax,%rbx
  40b16a:	48 0f 45 fd          	cmovne %rbp,%rdi
  40b16e:	be 38 00 00 00       	mov    $0x38,%esi
  40b173:	e8 c8 13 00 00       	callq  40c540 <__sprintf_chk@plt+0xa040>
  40b178:	44 89 23             	mov    %r12d,(%rbx)
  40b17b:	5b                   	pop    %rbx
  40b17c:	5d                   	pop    %rbp
  40b17d:	41 5c                	pop    %r12
  40b17f:	c3                   	retq   
  40b180:	48 85 ff             	test   %rdi,%rdi
  40b183:	b8 20 a6 61 00       	mov    $0x61a620,%eax
  40b188:	48 0f 45 c7          	cmovne %rdi,%rax
  40b18c:	8b 00                	mov    (%rax),%eax
  40b18e:	c3                   	retq   
  40b18f:	90                   	nop
  40b190:	b8 20 a6 61 00       	mov    $0x61a620,%eax
  40b195:	48 85 ff             	test   %rdi,%rdi
  40b198:	48 0f 45 c7          	cmovne %rdi,%rax
  40b19c:	89 30                	mov    %esi,(%rax)
  40b19e:	c3                   	retq   
  40b19f:	90                   	nop
  40b1a0:	48 85 ff             	test   %rdi,%rdi
  40b1a3:	b8 20 a6 61 00       	mov    $0x61a620,%eax
  40b1a8:	89 f1                	mov    %esi,%ecx
  40b1aa:	48 0f 45 c7          	cmovne %rdi,%rax
  40b1ae:	40 c0 ee 05          	shr    $0x5,%sil
  40b1b2:	83 e1 1f             	and    $0x1f,%ecx
  40b1b5:	40 0f b6 f6          	movzbl %sil,%esi
  40b1b9:	48 8d 34 b0          	lea    (%rax,%rsi,4),%rsi
  40b1bd:	8b 7e 08             	mov    0x8(%rsi),%edi
  40b1c0:	89 f8                	mov    %edi,%eax
  40b1c2:	d3 e8                	shr    %cl,%eax
  40b1c4:	31 c2                	xor    %eax,%edx
  40b1c6:	83 e0 01             	and    $0x1,%eax
  40b1c9:	83 e2 01             	and    $0x1,%edx
  40b1cc:	d3 e2                	shl    %cl,%edx
  40b1ce:	31 fa                	xor    %edi,%edx
  40b1d0:	89 56 08             	mov    %edx,0x8(%rsi)
  40b1d3:	c3                   	retq   
  40b1d4:	66 66 66 2e 0f 1f 84 	data32 data32 nopw %cs:0x0(%rax,%rax,1)
  40b1db:	00 00 00 00 00 
  40b1e0:	48 85 ff             	test   %rdi,%rdi
  40b1e3:	b8 20 a6 61 00       	mov    $0x61a620,%eax
  40b1e8:	48 0f 44 f8          	cmove  %rax,%rdi
  40b1ec:	8b 47 04             	mov    0x4(%rdi),%eax
  40b1ef:	89 77 04             	mov    %esi,0x4(%rdi)
  40b1f2:	c3                   	retq   
  40b1f3:	66 66 66 66 2e 0f 1f 	data32 data32 data32 nopw %cs:0x0(%rax,%rax,1)
  40b1fa:	84 00 00 00 00 00 
  40b200:	48 83 ec 08          	sub    $0x8,%rsp
  40b204:	b8 20 a6 61 00       	mov    $0x61a620,%eax
  40b209:	48 85 ff             	test   %rdi,%rdi
  40b20c:	48 0f 44 f8          	cmove  %rax,%rdi
  40b210:	48 85 f6             	test   %rsi,%rsi
  40b213:	c7 07 08 00 00 00    	movl   $0x8,(%rdi)
  40b219:	74 12                	je     40b22d <__sprintf_chk@plt+0x8d2d>
  40b21b:	48 85 d2             	test   %rdx,%rdx
  40b21e:	74 0d                	je     40b22d <__sprintf_chk@plt+0x8d2d>
  40b220:	48 89 77 28          	mov    %rsi,0x28(%rdi)
  40b224:	48 89 57 30          	mov    %rdx,0x30(%rdi)
  40b228:	48 83 c4 08          	add    $0x8,%rsp
  40b22c:	c3                   	retq   
  40b22d:	e8 ce 6c ff ff       	callq  401f00 <abort@plt>
  40b232:	66 66 66 66 66 2e 0f 	data32 data32 data32 data32 nopw %cs:0x0(%rax,%rax,1)
  40b239:	1f 84 00 00 00 00 00 
  40b240:	41 57                	push   %r15
  40b242:	b8 20 a6 61 00       	mov    $0x61a620,%eax
  40b247:	49 89 cf             	mov    %rcx,%r15
  40b24a:	41 56                	push   %r14
  40b24c:	49 89 d6             	mov    %rdx,%r14
  40b24f:	41 55                	push   %r13
  40b251:	49 89 f5             	mov    %rsi,%r13
  40b254:	41 54                	push   %r12
  40b256:	55                   	push   %rbp
  40b257:	53                   	push   %rbx
  40b258:	4c 89 c3             	mov    %r8,%rbx
  40b25b:	48 83 ec 28          	sub    $0x28,%rsp
  40b25f:	4d 85 c0             	test   %r8,%r8
  40b262:	48 0f 44 d8          	cmove  %rax,%rbx
  40b266:	48 89 7c 24 18       	mov    %rdi,0x18(%rsp)
  40b26b:	e8 a0 6c ff ff       	callq  401f10 <__errno_location@plt>
  40b270:	44 8b 20             	mov    (%rax),%r12d
  40b273:	48 89 c5             	mov    %rax,%rbp
  40b276:	48 8b 43 30          	mov    0x30(%rbx),%rax
  40b27a:	44 8b 4b 04          	mov    0x4(%rbx),%r9d
  40b27e:	48 8b 7c 24 18       	mov    0x18(%rsp),%rdi
  40b283:	4c 89 f9             	mov    %r15,%rcx
  40b286:	4c 89 f2             	mov    %r14,%rdx
  40b289:	4c 89 ee             	mov    %r13,%rsi
  40b28c:	48 89 44 24 10       	mov    %rax,0x10(%rsp)
  40b291:	48 8b 43 28          	mov    0x28(%rbx),%rax
  40b295:	48 89 44 24 08       	mov    %rax,0x8(%rsp)
  40b29a:	48 8d 43 08          	lea    0x8(%rbx),%rax
  40b29e:	48 89 04 24          	mov    %rax,(%rsp)
  40b2a2:	44 8b 03             	mov    (%rbx),%r8d
  40b2a5:	e8 46 f1 ff ff       	callq  40a3f0 <__sprintf_chk@plt+0x7ef0>
  40b2aa:	44 89 65 00          	mov    %r12d,0x0(%rbp)
  40b2ae:	48 83 c4 28          	add    $0x28,%rsp
  40b2b2:	5b                   	pop    %rbx
  40b2b3:	5d                   	pop    %rbp
  40b2b4:	41 5c                	pop    %r12
  40b2b6:	41 5d                	pop    %r13
  40b2b8:	41 5e                	pop    %r14
  40b2ba:	41 5f                	pop    %r15
  40b2bc:	c3                   	retq   
  40b2bd:	0f 1f 00             	nopl   (%rax)
  40b2c0:	41 57                	push   %r15
  40b2c2:	b8 20 a6 61 00       	mov    $0x61a620,%eax
  40b2c7:	41 56                	push   %r14
  40b2c9:	49 89 f6             	mov    %rsi,%r14
  40b2cc:	41 55                	push   %r13
  40b2ce:	49 89 fd             	mov    %rdi,%r13
  40b2d1:	41 54                	push   %r12
  40b2d3:	49 89 d4             	mov    %rdx,%r12
  40b2d6:	55                   	push   %rbp
  40b2d7:	53                   	push   %rbx
  40b2d8:	48 89 cb             	mov    %rcx,%rbx
  40b2db:	48 83 ec 48          	sub    $0x48,%rsp
  40b2df:	48 85 c9             	test   %rcx,%rcx
  40b2e2:	48 0f 44 d8          	cmove  %rax,%rbx
  40b2e6:	31 ed                	xor    %ebp,%ebp
  40b2e8:	e8 23 6c ff ff       	callq  401f10 <__errno_location@plt>
  40b2ed:	49 89 c7             	mov    %rax,%r15
  40b2f0:	8b 00                	mov    (%rax),%eax
  40b2f2:	4d 85 e4             	test   %r12,%r12
  40b2f5:	40 0f 94 c5          	sete   %bpl
  40b2f9:	0b 6b 04             	or     0x4(%rbx),%ebp
  40b2fc:	4c 8d 53 08          	lea    0x8(%rbx),%r10
  40b300:	4c 89 f1             	mov    %r14,%rcx
  40b303:	4c 89 ea             	mov    %r13,%rdx
  40b306:	31 f6                	xor    %esi,%esi
  40b308:	89 44 24 1c          	mov    %eax,0x1c(%rsp)
  40b30c:	48 8b 43 30          	mov    0x30(%rbx),%rax
  40b310:	31 ff                	xor    %edi,%edi
  40b312:	4c 89 54 24 30       	mov    %r10,0x30(%rsp)
  40b317:	41 89 e9             	mov    %ebp,%r9d
  40b31a:	48 89 44 24 10       	mov    %rax,0x10(%rsp)
  40b31f:	48 8b 43 28          	mov    0x28(%rbx),%rax
  40b323:	4c 89 14 24          	mov    %r10,(%rsp)
  40b327:	48 89 44 24 08       	mov    %rax,0x8(%rsp)
  40b32c:	44 8b 03             	mov    (%rbx),%r8d
  40b32f:	e8 bc f0 ff ff       	callq  40a3f0 <__sprintf_chk@plt+0x7ef0>
  40b334:	48 8d 70 01          	lea    0x1(%rax),%rsi
  40b338:	48 89 44 24 38       	mov    %rax,0x38(%rsp)
  40b33d:	48 89 f7             	mov    %rsi,%rdi
  40b340:	48 89 74 24 28       	mov    %rsi,0x28(%rsp)
  40b345:	e8 36 10 00 00       	callq  40c380 <__sprintf_chk@plt+0x9e80>
  40b34a:	48 89 c7             	mov    %rax,%rdi
  40b34d:	48 89 44 24 20       	mov    %rax,0x20(%rsp)
  40b352:	48 8b 43 30          	mov    0x30(%rbx),%rax
  40b356:	4c 8b 54 24 30       	mov    0x30(%rsp),%r10
  40b35b:	48 8b 74 24 28       	mov    0x28(%rsp),%rsi
  40b360:	41 89 e9             	mov    %ebp,%r9d
  40b363:	4c 89 f1             	mov    %r14,%rcx
  40b366:	4c 89 ea             	mov    %r13,%rdx
  40b369:	48 89 44 24 10       	mov    %rax,0x10(%rsp)
  40b36e:	48 8b 43 28          	mov    0x28(%rbx),%rax
  40b372:	4c 89 14 24          	mov    %r10,(%rsp)
  40b376:	48 89 44 24 08       	mov    %rax,0x8(%rsp)
  40b37b:	44 8b 03             	mov    (%rbx),%r8d
  40b37e:	e8 6d f0 ff ff       	callq  40a3f0 <__sprintf_chk@plt+0x7ef0>
  40b383:	8b 44 24 1c          	mov    0x1c(%rsp),%eax
  40b387:	4d 85 e4             	test   %r12,%r12
  40b38a:	41 89 07             	mov    %eax,(%r15)
  40b38d:	74 09                	je     40b398 <__sprintf_chk@plt+0x8e98>
  40b38f:	4c 8b 5c 24 38       	mov    0x38(%rsp),%r11
  40b394:	4d 89 1c 24          	mov    %r11,(%r12)
  40b398:	48 8b 44 24 20       	mov    0x20(%rsp),%rax
  40b39d:	48 83 c4 48          	add    $0x48,%rsp
  40b3a1:	5b                   	pop    %rbx
  40b3a2:	5d                   	pop    %rbp
  40b3a3:	41 5c                	pop    %r12
  40b3a5:	41 5d                	pop    %r13
  40b3a7:	41 5e                	pop    %r14
  40b3a9:	41 5f                	pop    %r15
  40b3ab:	c3                   	retq   
  40b3ac:	0f 1f 40 00          	nopl   0x0(%rax)
  40b3b0:	48 89 d1             	mov    %rdx,%rcx
  40b3b3:	31 d2                	xor    %edx,%edx
  40b3b5:	e9 06 ff ff ff       	jmpq   40b2c0 <__sprintf_chk@plt+0x8dc0>
  40b3ba:	66 0f 1f 44 00 00    	nopw   0x0(%rax,%rax,1)
  40b3c0:	41 54                	push   %r12
  40b3c2:	8b 05 28 f0 20 00    	mov    0x20f028(%rip),%eax        # 61a3f0 <fts_children+0x20aa30>
  40b3c8:	4c 8b 25 09 f0 20 00 	mov    0x20f009(%rip),%r12        # 61a3d8 <fts_children+0x20aa18>
  40b3cf:	55                   	push   %rbp
  40b3d0:	83 f8 01             	cmp    $0x1,%eax
  40b3d3:	53                   	push   %rbx
  40b3d4:	76 24                	jbe    40b3fa <__sprintf_chk@plt+0x8efa>
  40b3d6:	83 e8 02             	sub    $0x2,%eax
  40b3d9:	4c 89 e3             	mov    %r12,%rbx
  40b3dc:	48 c1 e0 04          	shl    $0x4,%rax
  40b3e0:	49 8d 6c 04 10       	lea    0x10(%r12,%rax,1),%rbp
  40b3e5:	0f 1f 00             	nopl   (%rax)
  40b3e8:	48 8b 7b 18          	mov    0x18(%rbx),%rdi
  40b3ec:	48 83 c3 10          	add    $0x10,%rbx
  40b3f0:	e8 db 6a ff ff       	callq  401ed0 <free@plt>
  40b3f5:	48 39 eb             	cmp    %rbp,%rbx
  40b3f8:	75 ee                	jne    40b3e8 <__sprintf_chk@plt+0x8ee8>
  40b3fa:	49 8b 7c 24 08       	mov    0x8(%r12),%rdi
  40b3ff:	48 81 ff 20 a5 61 00 	cmp    $0x61a520,%rdi
  40b406:	74 1b                	je     40b423 <__sprintf_chk@plt+0x8f23>
  40b408:	e8 c3 6a ff ff       	callq  401ed0 <free@plt>
  40b40d:	48 c7 05 c8 ef 20 00 	movq   $0x100,0x20efc8(%rip)        # 61a3e0 <fts_children+0x20aa20>
  40b414:	00 01 00 00 
  40b418:	48 c7 05 c5 ef 20 00 	movq   $0x61a520,0x20efc5(%rip)        # 61a3e8 <fts_children+0x20aa28>
  40b41f:	20 a5 61 00 
  40b423:	49 81 fc e0 a3 61 00 	cmp    $0x61a3e0,%r12
  40b42a:	74 13                	je     40b43f <__sprintf_chk@plt+0x8f3f>
  40b42c:	4c 89 e7             	mov    %r12,%rdi
  40b42f:	e8 9c 6a ff ff       	callq  401ed0 <free@plt>
  40b434:	48 c7 05 99 ef 20 00 	movq   $0x61a3e0,0x20ef99(%rip)        # 61a3d8 <fts_children+0x20aa18>
  40b43b:	e0 a3 61 00 
  40b43f:	5b                   	pop    %rbx
  40b440:	5d                   	pop    %rbp
  40b441:	c7 05 a5 ef 20 00 01 	movl   $0x1,0x20efa5(%rip)        # 61a3f0 <fts_children+0x20aa30>
  40b448:	00 00 00 
  40b44b:	41 5c                	pop    %r12
  40b44d:	c3                   	retq   
  40b44e:	66 90                	xchg   %ax,%ax
  40b450:	b9 20 a6 61 00       	mov    $0x61a620,%ecx
  40b455:	48 c7 c2 ff ff ff ff 	mov    $0xffffffffffffffff,%rdx
  40b45c:	e9 3f fb ff ff       	jmpq   40afa0 <__sprintf_chk@plt+0x8aa0>
  40b461:	66 66 66 66 66 66 2e 	data32 data32 data32 data32 data32 nopw %cs:0x0(%rax,%rax,1)
  40b468:	0f 1f 84 00 00 00 00 
  40b46f:	00 
  40b470:	b9 20 a6 61 00       	mov    $0x61a620,%ecx
  40b475:	e9 26 fb ff ff       	jmpq   40afa0 <__sprintf_chk@plt+0x8aa0>
  40b47a:	66 0f 1f 44 00 00    	nopw   0x0(%rax,%rax,1)
  40b480:	48 89 fe             	mov    %rdi,%rsi
  40b483:	b9 20 a6 61 00       	mov    $0x61a620,%ecx
  40b488:	48 c7 c2 ff ff ff ff 	mov    $0xffffffffffffffff,%rdx
  40b48f:	31 ff                	xor    %edi,%edi
  40b491:	e9 0a fb ff ff       	jmpq   40afa0 <__sprintf_chk@plt+0x8aa0>
  40b496:	66 2e 0f 1f 84 00 00 	nopw   %cs:0x0(%rax,%rax,1)
  40b49d:	00 00 00 
  40b4a0:	48 89 f2             	mov    %rsi,%rdx
  40b4a3:	b9 20 a6 61 00       	mov    $0x61a620,%ecx
  40b4a8:	48 89 fe             	mov    %rdi,%rsi
  40b4ab:	31 ff                	xor    %edi,%edi
  40b4ad:	e9 ee fa ff ff       	jmpq   40afa0 <__sprintf_chk@plt+0x8aa0>
  40b4b2:	66 66 66 66 66 2e 0f 	data32 data32 data32 data32 nopw %cs:0x0(%rax,%rax,1)
  40b4b9:	1f 84 00 00 00 00 00 
  40b4c0:	55                   	push   %rbp
  40b4c1:	48 89 d5             	mov    %rdx,%rbp
  40b4c4:	53                   	push   %rbx
  40b4c5:	89 fb                	mov    %edi,%ebx
  40b4c7:	48 83 ec 48          	sub    $0x48,%rsp
  40b4cb:	48 89 e7             	mov    %rsp,%rdi
  40b4ce:	e8 bd ed ff ff       	callq  40a290 <__sprintf_chk@plt+0x7d90>
  40b4d3:	48 89 e1             	mov    %rsp,%rcx
  40b4d6:	48 89 ee             	mov    %rbp,%rsi
  40b4d9:	89 df                	mov    %ebx,%edi
  40b4db:	48 c7 c2 ff ff ff ff 	mov    $0xffffffffffffffff,%rdx
  40b4e2:	e8 b9 fa ff ff       	callq  40afa0 <__sprintf_chk@plt+0x8aa0>
  40b4e7:	48 83 c4 48          	add    $0x48,%rsp
  40b4eb:	5b                   	pop    %rbx
  40b4ec:	5d                   	pop    %rbp
  40b4ed:	c3                   	retq   
  40b4ee:	66 90                	xchg   %ax,%ax
  40b4f0:	41 54                	push   %r12
  40b4f2:	49 89 cc             	mov    %rcx,%r12
  40b4f5:	55                   	push   %rbp
  40b4f6:	48 89 d5             	mov    %rdx,%rbp
  40b4f9:	53                   	push   %rbx
  40b4fa:	89 fb                	mov    %edi,%ebx
  40b4fc:	48 83 ec 40          	sub    $0x40,%rsp
  40b500:	48 89 e7             	mov    %rsp,%rdi
  40b503:	e8 88 ed ff ff       	callq  40a290 <__sprintf_chk@plt+0x7d90>
  40b508:	48 89 e1             	mov    %rsp,%rcx
  40b50b:	4c 89 e2             	mov    %r12,%rdx
  40b50e:	48 89 ee             	mov    %rbp,%rsi
  40b511:	89 df                	mov    %ebx,%edi
  40b513:	e8 88 fa ff ff       	callq  40afa0 <__sprintf_chk@plt+0x8aa0>
  40b518:	48 83 c4 40          	add    $0x40,%rsp
  40b51c:	5b                   	pop    %rbx
  40b51d:	5d                   	pop    %rbp
  40b51e:	41 5c                	pop    %r12
  40b520:	c3                   	retq   
  40b521:	66 66 66 66 66 66 2e 	data32 data32 data32 data32 data32 nopw %cs:0x0(%rax,%rax,1)
  40b528:	0f 1f 84 00 00 00 00 
  40b52f:	00 
  40b530:	48 89 f2             	mov    %rsi,%rdx
  40b533:	89 fe                	mov    %edi,%esi
  40b535:	31 ff                	xor    %edi,%edi
  40b537:	e9 84 ff ff ff       	jmpq   40b4c0 <__sprintf_chk@plt+0x8fc0>
  40b53c:	0f 1f 40 00          	nopl   0x0(%rax)
  40b540:	48 89 d1             	mov    %rdx,%rcx
  40b543:	48 89 f2             	mov    %rsi,%rdx
  40b546:	89 fe                	mov    %edi,%esi
  40b548:	31 ff                	xor    %edi,%edi
  40b54a:	e9 a1 ff ff ff       	jmpq   40b4f0 <__sprintf_chk@plt+0x8ff0>
  40b54f:	90                   	nop
  40b550:	48 83 ec 48          	sub    $0x48,%rsp
  40b554:	48 8b 05 c5 f0 20 00 	mov    0x20f0c5(%rip),%rax        # 61a620 <stderr+0x1d0>
  40b55b:	41 89 d0             	mov    %edx,%r8d
  40b55e:	41 c0 e8 05          	shr    $0x5,%r8b
  40b562:	89 d1                	mov    %edx,%ecx
  40b564:	48 89 f2             	mov    %rsi,%rdx
  40b567:	45 0f b6 c0          	movzbl %r8b,%r8d
  40b56b:	83 e1 1f             	and    $0x1f,%ecx
  40b56e:	48 89 fe             	mov    %rdi,%rsi
  40b571:	48 89 04 24          	mov    %rax,(%rsp)
  40b575:	48 8b 05 ac f0 20 00 	mov    0x20f0ac(%rip),%rax        # 61a628 <stderr+0x1d8>
  40b57c:	31 ff                	xor    %edi,%edi
  40b57e:	48 89 44 24 08       	mov    %rax,0x8(%rsp)
  40b583:	48 8b 05 a6 f0 20 00 	mov    0x20f0a6(%rip),%rax        # 61a630 <stderr+0x1e0>
  40b58a:	48 89 44 24 10       	mov    %rax,0x10(%rsp)
  40b58f:	48 8b 05 a2 f0 20 00 	mov    0x20f0a2(%rip),%rax        # 61a638 <stderr+0x1e8>
  40b596:	48 89 44 24 18       	mov    %rax,0x18(%rsp)
  40b59b:	48 8b 05 9e f0 20 00 	mov    0x20f09e(%rip),%rax        # 61a640 <stderr+0x1f0>
  40b5a2:	48 89 44 24 20       	mov    %rax,0x20(%rsp)
  40b5a7:	48 8b 05 9a f0 20 00 	mov    0x20f09a(%rip),%rax        # 61a648 <stderr+0x1f8>
  40b5ae:	46 8b 4c 84 08       	mov    0x8(%rsp,%r8,4),%r9d
  40b5b3:	48 89 44 24 28       	mov    %rax,0x28(%rsp)
  40b5b8:	48 8b 05 91 f0 20 00 	mov    0x20f091(%rip),%rax        # 61a650 <stderr+0x200>
  40b5bf:	48 89 44 24 30       	mov    %rax,0x30(%rsp)
  40b5c4:	44 89 c8             	mov    %r9d,%eax
  40b5c7:	d3 e8                	shr    %cl,%eax
  40b5c9:	83 f0 01             	xor    $0x1,%eax
  40b5cc:	83 e0 01             	and    $0x1,%eax
  40b5cf:	d3 e0                	shl    %cl,%eax
  40b5d1:	48 89 e1             	mov    %rsp,%rcx
  40b5d4:	44 31 c8             	xor    %r9d,%eax
  40b5d7:	42 89 44 84 08       	mov    %eax,0x8(%rsp,%r8,4)
  40b5dc:	e8 bf f9 ff ff       	callq  40afa0 <__sprintf_chk@plt+0x8aa0>
  40b5e1:	48 83 c4 48          	add    $0x48,%rsp
  40b5e5:	c3                   	retq   
  40b5e6:	66 2e 0f 1f 84 00 00 	nopw   %cs:0x0(%rax,%rax,1)
  40b5ed:	00 00 00 
  40b5f0:	40 0f be d6          	movsbl %sil,%edx
  40b5f4:	48 c7 c6 ff ff ff ff 	mov    $0xffffffffffffffff,%rsi
  40b5fb:	e9 50 ff ff ff       	jmpq   40b550 <__sprintf_chk@plt+0x9050>
  40b600:	ba 3a 00 00 00       	mov    $0x3a,%edx
  40b605:	48 c7 c6 ff ff ff ff 	mov    $0xffffffffffffffff,%rsi
  40b60c:	e9 3f ff ff ff       	jmpq   40b550 <__sprintf_chk@plt+0x9050>
  40b611:	66 66 66 66 66 66 2e 	data32 data32 data32 data32 data32 nopw %cs:0x0(%rax,%rax,1)
  40b618:	0f 1f 84 00 00 00 00 
  40b61f:	00 
  40b620:	ba 3a 00 00 00       	mov    $0x3a,%edx
  40b625:	e9 26 ff ff ff       	jmpq   40b550 <__sprintf_chk@plt+0x9050>
  40b62a:	66 0f 1f 44 00 00    	nopw   0x0(%rax,%rax,1)
  40b630:	41 54                	push   %r12
  40b632:	4d 89 c4             	mov    %r8,%r12
  40b635:	55                   	push   %rbp
  40b636:	48 89 cd             	mov    %rcx,%rbp
  40b639:	53                   	push   %rbx
  40b63a:	89 fb                	mov    %edi,%ebx
  40b63c:	48 83 ec 40          	sub    $0x40,%rsp
  40b640:	48 8b 05 d9 ef 20 00 	mov    0x20efd9(%rip),%rax        # 61a620 <stderr+0x1d0>
  40b647:	48 89 e7             	mov    %rsp,%rdi
  40b64a:	48 89 04 24          	mov    %rax,(%rsp)
  40b64e:	48 8b 05 d3 ef 20 00 	mov    0x20efd3(%rip),%rax        # 61a628 <stderr+0x1d8>
  40b655:	48 89 44 24 08       	mov    %rax,0x8(%rsp)
  40b65a:	48 8b 05 cf ef 20 00 	mov    0x20efcf(%rip),%rax        # 61a630 <stderr+0x1e0>
  40b661:	48 89 44 24 10       	mov    %rax,0x10(%rsp)
  40b666:	48 8b 05 cb ef 20 00 	mov    0x20efcb(%rip),%rax        # 61a638 <stderr+0x1e8>
  40b66d:	48 89 44 24 18       	mov    %rax,0x18(%rsp)
  40b672:	48 8b 05 c7 ef 20 00 	mov    0x20efc7(%rip),%rax        # 61a640 <stderr+0x1f0>
  40b679:	48 89 44 24 20       	mov    %rax,0x20(%rsp)
  40b67e:	48 8b 05 c3 ef 20 00 	mov    0x20efc3(%rip),%rax        # 61a648 <stderr+0x1f8>
  40b685:	48 89 44 24 28       	mov    %rax,0x28(%rsp)
  40b68a:	48 8b 05 bf ef 20 00 	mov    0x20efbf(%rip),%rax        # 61a650 <stderr+0x200>
  40b691:	48 89 44 24 30       	mov    %rax,0x30(%rsp)
  40b696:	e8 65 fb ff ff       	callq  40b200 <__sprintf_chk@plt+0x8d00>
  40b69b:	48 89 e1             	mov    %rsp,%rcx
  40b69e:	4c 89 e2             	mov    %r12,%rdx
  40b6a1:	48 89 ee             	mov    %rbp,%rsi
  40b6a4:	89 df                	mov    %ebx,%edi
  40b6a6:	e8 f5 f8 ff ff       	callq  40afa0 <__sprintf_chk@plt+0x8aa0>
  40b6ab:	48 83 c4 40          	add    $0x40,%rsp
  40b6af:	5b                   	pop    %rbx
  40b6b0:	5d                   	pop    %rbp
  40b6b1:	41 5c                	pop    %r12
  40b6b3:	c3                   	retq   
  40b6b4:	66 66 66 2e 0f 1f 84 	data32 data32 nopw %cs:0x0(%rax,%rax,1)
  40b6bb:	00 00 00 00 00 
  40b6c0:	49 c7 c0 ff ff ff ff 	mov    $0xffffffffffffffff,%r8
  40b6c7:	e9 64 ff ff ff       	jmpq   40b630 <__sprintf_chk@plt+0x9130>
  40b6cc:	0f 1f 40 00          	nopl   0x0(%rax)
  40b6d0:	48 89 d1             	mov    %rdx,%rcx
  40b6d3:	49 c7 c0 ff ff ff ff 	mov    $0xffffffffffffffff,%r8
  40b6da:	48 89 f2             	mov    %rsi,%rdx
  40b6dd:	48 89 fe             	mov    %rdi,%rsi
  40b6e0:	31 ff                	xor    %edi,%edi
  40b6e2:	e9 49 ff ff ff       	jmpq   40b630 <__sprintf_chk@plt+0x9130>
  40b6e7:	66 0f 1f 84 00 00 00 	nopw   0x0(%rax,%rax,1)
  40b6ee:	00 00 
  40b6f0:	49 89 c8             	mov    %rcx,%r8
  40b6f3:	48 89 d1             	mov    %rdx,%rcx
  40b6f6:	48 89 f2             	mov    %rsi,%rdx
  40b6f9:	48 89 fe             	mov    %rdi,%rsi
  40b6fc:	31 ff                	xor    %edi,%edi
  40b6fe:	e9 2d ff ff ff       	jmpq   40b630 <__sprintf_chk@plt+0x9130>
  40b703:	66 66 66 66 2e 0f 1f 	data32 data32 data32 nopw %cs:0x0(%rax,%rax,1)
  40b70a:	84 00 00 00 00 00 
  40b710:	b9 a0 a3 61 00       	mov    $0x61a3a0,%ecx
  40b715:	e9 86 f8 ff ff       	jmpq   40afa0 <__sprintf_chk@plt+0x8aa0>
  40b71a:	66 0f 1f 44 00 00    	nopw   0x0(%rax,%rax,1)
  40b720:	48 89 f2             	mov    %rsi,%rdx
  40b723:	b9 a0 a3 61 00       	mov    $0x61a3a0,%ecx
  40b728:	48 89 fe             	mov    %rdi,%rsi
  40b72b:	31 ff                	xor    %edi,%edi
  40b72d:	e9 6e f8 ff ff       	jmpq   40afa0 <__sprintf_chk@plt+0x8aa0>
  40b732:	66 66 66 66 66 2e 0f 	data32 data32 data32 data32 nopw %cs:0x0(%rax,%rax,1)
  40b739:	1f 84 00 00 00 00 00 
  40b740:	b9 a0 a3 61 00       	mov    $0x61a3a0,%ecx
  40b745:	48 c7 c2 ff ff ff ff 	mov    $0xffffffffffffffff,%rdx
  40b74c:	e9 4f f8 ff ff       	jmpq   40afa0 <__sprintf_chk@plt+0x8aa0>
  40b751:	66 66 66 66 66 66 2e 	data32 data32 data32 data32 data32 nopw %cs:0x0(%rax,%rax,1)
  40b758:	0f 1f 84 00 00 00 00 
  40b75f:	00 
  40b760:	48 89 fe             	mov    %rdi,%rsi
  40b763:	b9 a0 a3 61 00       	mov    $0x61a3a0,%ecx
  40b768:	48 c7 c2 ff ff ff ff 	mov    $0xffffffffffffffff,%rdx
  40b76f:	31 ff                	xor    %edi,%edi
  40b771:	e9 2a f8 ff ff       	jmpq   40afa0 <__sprintf_chk@plt+0x8aa0>
  40b776:	66 2e 0f 1f 84 00 00 	nopw   %cs:0x0(%rax,%rax,1)
  40b77d:	00 00 00 
  40b780:	55                   	push   %rbp
  40b781:	48 89 f2             	mov    %rsi,%rdx
  40b784:	48 89 f5             	mov    %rsi,%rbp
  40b787:	31 f6                	xor    %esi,%esi
  40b789:	53                   	push   %rbx
  40b78a:	48 89 fb             	mov    %rdi,%rbx
  40b78d:	48 83 ec 08          	sub    $0x8,%rsp
  40b791:	e8 ea 69 ff ff       	callq  402180 <memchr@plt>
  40b796:	48 85 c0             	test   %rax,%rax
  40b799:	74 15                	je     40b7b0 <__sprintf_chk@plt+0x92b0>
  40b79b:	48 83 c4 08          	add    $0x8,%rsp
  40b79f:	48 29 d8             	sub    %rbx,%rax
  40b7a2:	5b                   	pop    %rbx
  40b7a3:	48 83 c0 01          	add    $0x1,%rax
  40b7a7:	5d                   	pop    %rbp
  40b7a8:	c3                   	retq   
  40b7a9:	0f 1f 80 00 00 00 00 	nopl   0x0(%rax)
  40b7b0:	48 83 c4 08          	add    $0x8,%rsp
  40b7b4:	48 89 e8             	mov    %rbp,%rax
  40b7b7:	5b                   	pop    %rbx
  40b7b8:	5d                   	pop    %rbp
  40b7b9:	c3                   	retq   
  40b7ba:	66 0f 1f 44 00 00    	nopw   0x0(%rax,%rax,1)
  40b7c0:	41 57                	push   %r15
  40b7c2:	41 56                	push   %r14
  40b7c4:	41 89 f6             	mov    %esi,%r14d
  40b7c7:	41 55                	push   %r13
  40b7c9:	41 54                	push   %r12
  40b7cb:	55                   	push   %rbp
  40b7cc:	53                   	push   %rbx
  40b7cd:	48 83 ec 68          	sub    $0x68,%rsp
  40b7d1:	64 48 8b 04 25 28 00 	mov    %fs:0x28,%rax
  40b7d8:	00 00 
  40b7da:	48 89 44 24 58       	mov    %rax,0x58(%rsp)
  40b7df:	31 c0                	xor    %eax,%eax
  40b7e1:	e8 8a 69 ff ff       	callq  402170 <__strdup@plt>
  40b7e6:	48 85 c0             	test   %rax,%rax
  40b7e9:	48 89 c5             	mov    %rax,%rbp
  40b7ec:	0f 84 3b 05 00 00    	je     40bd2d <__sprintf_chk@plt+0x982d>
  40b7f2:	e8 09 68 ff ff       	callq  402000 <__ctype_get_mb_cur_max@plt>
  40b7f7:	48 83 f8 01          	cmp    $0x1,%rax
  40b7fb:	0f 86 ef 02 00 00    	jbe    40baf0 <__sprintf_chk@plt+0x95f0>
  40b801:	45 85 f6             	test   %r14d,%r14d
  40b804:	0f 85 86 03 00 00    	jne    40bb90 <__sprintf_chk@plt+0x9690>
  40b80a:	48 89 ef             	mov    %rbp,%rdi
  40b80d:	48 89 6c 24 28       	mov    %rbp,0x28(%rsp)
  40b812:	31 db                	xor    %ebx,%ebx
  40b814:	e8 f7 67 ff ff       	callq  402010 <strlen@plt>
  40b819:	4c 8d 7c 05 00       	lea    0x0(%rbp,%rax,1),%r15
  40b81e:	c6 44 24 18 00       	movb   $0x0,0x18(%rsp)
  40b823:	48 c7 44 24 1c 00 00 	movq   $0x0,0x1c(%rsp)
  40b82a:	00 00 
  40b82c:	c6 44 24 24 00       	movb   $0x0,0x24(%rsp)
  40b831:	48 89 e9             	mov    %rbp,%rcx
  40b834:	4c 8d 64 24 1c       	lea    0x1c(%rsp),%r12
  40b839:	4c 39 fd             	cmp    %r15,%rbp
  40b83c:	4c 89 7c 24 10       	mov    %r15,0x10(%rsp)
  40b841:	0f 82 a0 00 00 00    	jb     40b8e7 <__sprintf_chk@plt+0x93e7>
  40b847:	e9 65 02 00 00       	jmpq   40bab1 <__sprintf_chk@plt+0x95b1>
  40b84c:	0f 1f 40 00          	nopl   0x0(%rax)
  40b850:	0f b6 01             	movzbl (%rcx),%eax
  40b853:	89 c2                	mov    %eax,%edx
  40b855:	83 e0 1f             	and    $0x1f,%eax
  40b858:	c0 ea 05             	shr    $0x5,%dl
  40b85b:	83 e2 07             	and    $0x7,%edx
  40b85e:	8b 14 95 80 57 41 00 	mov    0x415780(,%rdx,4),%edx
  40b865:	0f a3 c2             	bt     %eax,%edx
  40b868:	0f 83 42 01 00 00    	jae    40b9b0 <__sprintf_chk@plt+0x94b0>
  40b86e:	48 c7 44 24 30 01 00 	movq   $0x1,0x30(%rsp)
  40b875:	00 00 
  40b877:	0f be 01             	movsbl (%rcx),%eax
  40b87a:	41 bd 01 00 00 00    	mov    $0x1,%r13d
  40b880:	4c 8b 7c 24 10       	mov    0x10(%rsp),%r15
  40b885:	4c 8b 74 24 28       	mov    0x28(%rsp),%r14
  40b88a:	c6 44 24 38 01       	movb   $0x1,0x38(%rsp)
  40b88f:	89 44 24 3c          	mov    %eax,0x3c(%rsp)
  40b893:	85 db                	test   %ebx,%ebx
  40b895:	c6 44 24 24 01       	movb   $0x1,0x24(%rsp)
  40b89a:	0f 84 e1 00 00 00    	je     40b981 <__sprintf_chk@plt+0x9481>
  40b8a0:	83 fb 01             	cmp    $0x1,%ebx
  40b8a3:	0f 84 27 01 00 00    	je     40b9d0 <__sprintf_chk@plt+0x94d0>
  40b8a9:	83 fb 02             	cmp    $0x2,%ebx
  40b8ac:	0f 85 56 01 00 00    	jne    40ba08 <__sprintf_chk@plt+0x9508>
  40b8b2:	80 7c 24 38 00       	cmpb   $0x0,0x38(%rsp)
  40b8b7:	0f 84 4b 01 00 00    	je     40ba08 <__sprintf_chk@plt+0x9508>
  40b8bd:	8b 7c 24 3c          	mov    0x3c(%rsp),%edi
  40b8c1:	e8 ca 6a ff ff       	callq  402390 <iswspace@plt>
  40b8c6:	85 c0                	test   %eax,%eax
  40b8c8:	b8 01 00 00 00       	mov    $0x1,%eax
  40b8cd:	0f 44 d8             	cmove  %eax,%ebx
  40b8d0:	4b 8d 0c 2e          	lea    (%r14,%r13,1),%rcx
  40b8d4:	c6 44 24 24 00       	movb   $0x0,0x24(%rsp)
  40b8d9:	4c 39 f9             	cmp    %r15,%rcx
  40b8dc:	48 89 4c 24 28       	mov    %rcx,0x28(%rsp)
  40b8e1:	0f 83 f9 01 00 00    	jae    40bae0 <__sprintf_chk@plt+0x95e0>
  40b8e7:	80 7c 24 18 00       	cmpb   $0x0,0x18(%rsp)
  40b8ec:	0f 84 5e ff ff ff    	je     40b850 <__sprintf_chk@plt+0x9350>
  40b8f2:	48 8b 74 24 28       	mov    0x28(%rsp),%rsi
  40b8f7:	48 8d 4c 24 1c       	lea    0x1c(%rsp),%rcx
  40b8fc:	4c 89 fa             	mov    %r15,%rdx
  40b8ff:	48 8d 7c 24 3c       	lea    0x3c(%rsp),%rdi
  40b904:	48 29 f2             	sub    %rsi,%rdx
  40b907:	e8 54 67 ff ff       	callq  402060 <mbrtowc@plt>
  40b90c:	48 83 f8 ff          	cmp    $0xffffffffffffffff,%rax
  40b910:	48 89 44 24 30       	mov    %rax,0x30(%rsp)
  40b915:	0f 84 fd 00 00 00    	je     40ba18 <__sprintf_chk@plt+0x9518>
  40b91b:	48 83 f8 fe          	cmp    $0xfffffffffffffffe,%rax
  40b91f:	0f 84 2b 01 00 00    	je     40ba50 <__sprintf_chk@plt+0x9550>
  40b925:	48 85 c0             	test   %rax,%rax
  40b928:	0f 85 12 01 00 00    	jne    40ba40 <__sprintf_chk@plt+0x9540>
  40b92e:	4c 8b 74 24 28       	mov    0x28(%rsp),%r14
  40b933:	48 c7 44 24 30 01 00 	movq   $0x1,0x30(%rsp)
  40b93a:	00 00 
  40b93c:	41 80 3e 00          	cmpb   $0x0,(%r14)
  40b940:	0f 85 ec 03 00 00    	jne    40bd32 <__sprintf_chk@plt+0x9832>
  40b946:	8b 44 24 3c          	mov    0x3c(%rsp),%eax
  40b94a:	85 c0                	test   %eax,%eax
  40b94c:	0f 85 fe 03 00 00    	jne    40bd50 <__sprintf_chk@plt+0x9850>
  40b952:	48 8d 7c 24 1c       	lea    0x1c(%rsp),%rdi
  40b957:	c6 44 24 38 01       	movb   $0x1,0x38(%rsp)
  40b95c:	e8 2f 6b ff ff       	callq  402490 <mbsinit@plt>
  40b961:	85 c0                	test   %eax,%eax
  40b963:	74 05                	je     40b96a <__sprintf_chk@plt+0x946a>
  40b965:	c6 44 24 18 00       	movb   $0x0,0x18(%rsp)
  40b96a:	85 db                	test   %ebx,%ebx
  40b96c:	4c 8b 7c 24 10       	mov    0x10(%rsp),%r15
  40b971:	4c 8b 6c 24 30       	mov    0x30(%rsp),%r13
  40b976:	c6 44 24 24 01       	movb   $0x1,0x24(%rsp)
  40b97b:	0f 85 1f ff ff ff    	jne    40b8a0 <__sprintf_chk@plt+0x93a0>
  40b981:	80 7c 24 38 00       	cmpb   $0x0,0x38(%rsp)
  40b986:	bb 01 00 00 00       	mov    $0x1,%ebx
  40b98b:	0f 84 3f ff ff ff    	je     40b8d0 <__sprintf_chk@plt+0x93d0>
  40b991:	8b 7c 24 3c          	mov    0x3c(%rsp),%edi
  40b995:	31 db                	xor    %ebx,%ebx
  40b997:	e8 f4 69 ff ff       	callq  402390 <iswspace@plt>
  40b99c:	85 c0                	test   %eax,%eax
  40b99e:	0f 94 c3             	sete   %bl
  40b9a1:	e9 2a ff ff ff       	jmpq   40b8d0 <__sprintf_chk@plt+0x93d0>
  40b9a6:	66 2e 0f 1f 84 00 00 	nopw   %cs:0x0(%rax,%rax,1)
  40b9ad:	00 00 00 
  40b9b0:	4c 89 e7             	mov    %r12,%rdi
  40b9b3:	e8 d8 6a ff ff       	callq  402490 <mbsinit@plt>
  40b9b8:	85 c0                	test   %eax,%eax
  40b9ba:	0f 84 54 03 00 00    	je     40bd14 <__sprintf_chk@plt+0x9814>
  40b9c0:	c6 44 24 18 01       	movb   $0x1,0x18(%rsp)
  40b9c5:	e9 28 ff ff ff       	jmpq   40b8f2 <__sprintf_chk@plt+0x93f2>
  40b9ca:	66 0f 1f 44 00 00    	nopw   0x0(%rax,%rax,1)
  40b9d0:	80 7c 24 38 00       	cmpb   $0x0,0x38(%rsp)
  40b9d5:	0f 84 f5 fe ff ff    	je     40b8d0 <__sprintf_chk@plt+0x93d0>
  40b9db:	8b 7c 24 3c          	mov    0x3c(%rsp),%edi
  40b9df:	e8 ac 69 ff ff       	callq  402390 <iswspace@plt>
  40b9e4:	48 8b 74 24 08       	mov    0x8(%rsp),%rsi
  40b9e9:	85 c0                	test   %eax,%eax
  40b9eb:	b8 02 00 00 00       	mov    $0x2,%eax
  40b9f0:	0f 45 d8             	cmovne %eax,%ebx
  40b9f3:	49 0f 45 f6          	cmovne %r14,%rsi
  40b9f7:	48 89 74 24 08       	mov    %rsi,0x8(%rsp)
  40b9fc:	e9 cf fe ff ff       	jmpq   40b8d0 <__sprintf_chk@plt+0x93d0>
  40ba01:	0f 1f 80 00 00 00 00 	nopl   0x0(%rax)
  40ba08:	bb 01 00 00 00       	mov    $0x1,%ebx
  40ba0d:	e9 be fe ff ff       	jmpq   40b8d0 <__sprintf_chk@plt+0x93d0>
  40ba12:	66 0f 1f 44 00 00    	nopw   0x0(%rax,%rax,1)
  40ba18:	48 c7 44 24 30 01 00 	movq   $0x1,0x30(%rsp)
  40ba1f:	00 00 
  40ba21:	c6 44 24 38 00       	movb   $0x0,0x38(%rsp)
  40ba26:	41 bd 01 00 00 00    	mov    $0x1,%r13d
  40ba2c:	4c 8b 7c 24 10       	mov    0x10(%rsp),%r15
  40ba31:	4c 8b 74 24 28       	mov    0x28(%rsp),%r14
  40ba36:	e9 58 fe ff ff       	jmpq   40b893 <__sprintf_chk@plt+0x9393>
  40ba3b:	0f 1f 44 00 00       	nopl   0x0(%rax,%rax,1)
  40ba40:	4c 8b 74 24 28       	mov    0x28(%rsp),%r14
  40ba45:	e9 08 ff ff ff       	jmpq   40b952 <__sprintf_chk@plt+0x9452>
  40ba4a:	66 0f 1f 44 00 00    	nopw   0x0(%rax,%rax,1)
  40ba50:	4c 8b 7c 24 10       	mov    0x10(%rsp),%r15
  40ba55:	48 8b 4c 24 28       	mov    0x28(%rsp),%rcx
  40ba5a:	c6 44 24 38 00       	movb   $0x0,0x38(%rsp)
  40ba5f:	4c 89 fa             	mov    %r15,%rdx
  40ba62:	49 89 ce             	mov    %rcx,%r14
  40ba65:	48 29 ca             	sub    %rcx,%rdx
  40ba68:	48 89 54 24 30       	mov    %rdx,0x30(%rsp)
  40ba6d:	49 89 d5             	mov    %rdx,%r13
  40ba70:	e9 1e fe ff ff       	jmpq   40b893 <__sprintf_chk@plt+0x9393>
  40ba75:	0f 1f 00             	nopl   (%rax)
  40ba78:	48 8b 5c 24 28       	mov    0x28(%rsp),%rbx
  40ba7d:	48 c7 44 24 30 01 00 	movq   $0x1,0x30(%rsp)
  40ba84:	00 00 
  40ba86:	c6 44 24 38 00       	movb   $0x0,0x38(%rsp)
  40ba8b:	c6 44 24 24 01       	movb   $0x1,0x24(%rsp)
  40ba90:	48 89 df             	mov    %rbx,%rdi
  40ba93:	e8 78 65 ff ff       	callq  402010 <strlen@plt>
  40ba98:	48 8d 50 01          	lea    0x1(%rax),%rdx
  40ba9c:	48 89 de             	mov    %rbx,%rsi
  40ba9f:	48 89 ef             	mov    %rbp,%rdi
  40baa2:	e8 09 69 ff ff       	callq  4023b0 <memmove@plt>
  40baa7:	41 83 fe 01          	cmp    $0x1,%r14d
  40baab:	0f 85 59 fd ff ff    	jne    40b80a <__sprintf_chk@plt+0x930a>
  40bab1:	48 8b 74 24 58       	mov    0x58(%rsp),%rsi
  40bab6:	64 48 33 34 25 28 00 	xor    %fs:0x28,%rsi
  40babd:	00 00 
  40babf:	48 89 e8             	mov    %rbp,%rax
  40bac2:	0f 85 83 02 00 00    	jne    40bd4b <__sprintf_chk@plt+0x984b>
  40bac8:	48 83 c4 68          	add    $0x68,%rsp
  40bacc:	5b                   	pop    %rbx
  40bacd:	5d                   	pop    %rbp
  40bace:	41 5c                	pop    %r12
  40bad0:	41 5d                	pop    %r13
  40bad2:	41 5e                	pop    %r14
  40bad4:	41 5f                	pop    %r15
  40bad6:	c3                   	retq   
  40bad7:	66 0f 1f 84 00 00 00 	nopw   0x0(%rax,%rax,1)
  40bade:	00 00 
  40bae0:	83 fb 02             	cmp    $0x2,%ebx
  40bae3:	75 cc                	jne    40bab1 <__sprintf_chk@plt+0x95b1>
  40bae5:	48 8b 44 24 08       	mov    0x8(%rsp),%rax
  40baea:	c6 00 00             	movb   $0x0,(%rax)
  40baed:	eb c2                	jmp    40bab1 <__sprintf_chk@plt+0x95b1>
  40baef:	90                   	nop
  40baf0:	45 85 f6             	test   %r14d,%r14d
  40baf3:	74 51                	je     40bb46 <__sprintf_chk@plt+0x9646>
  40baf5:	44 0f b6 65 00       	movzbl 0x0(%rbp),%r12d
  40bafa:	45 84 e4             	test   %r12b,%r12b
  40bafd:	0f 84 09 02 00 00    	je     40bd0c <__sprintf_chk@plt+0x980c>
  40bb03:	e8 d8 69 ff ff       	callq  4024e0 <__ctype_b_loc@plt>
  40bb08:	48 89 eb             	mov    %rbp,%rbx
  40bb0b:	48 8b 00             	mov    (%rax),%rax
  40bb0e:	eb 0d                	jmp    40bb1d <__sprintf_chk@plt+0x961d>
  40bb10:	48 83 c3 01          	add    $0x1,%rbx
  40bb14:	44 0f b6 23          	movzbl (%rbx),%r12d
  40bb18:	45 84 e4             	test   %r12b,%r12b
  40bb1b:	74 08                	je     40bb25 <__sprintf_chk@plt+0x9625>
  40bb1d:	42 f6 44 60 01 20    	testb  $0x20,0x1(%rax,%r12,2)
  40bb23:	75 eb                	jne    40bb10 <__sprintf_chk@plt+0x9610>
  40bb25:	48 89 df             	mov    %rbx,%rdi
  40bb28:	e8 e3 64 ff ff       	callq  402010 <strlen@plt>
  40bb2d:	48 8d 50 01          	lea    0x1(%rax),%rdx
  40bb31:	48 89 de             	mov    %rbx,%rsi
  40bb34:	48 89 ef             	mov    %rbp,%rdi
  40bb37:	e8 74 68 ff ff       	callq  4023b0 <memmove@plt>
  40bb3c:	41 83 fe 01          	cmp    $0x1,%r14d
  40bb40:	0f 84 6b ff ff ff    	je     40bab1 <__sprintf_chk@plt+0x95b1>
  40bb46:	48 89 ef             	mov    %rbp,%rdi
  40bb49:	e8 c2 64 ff ff       	callq  402010 <strlen@plt>
  40bb4e:	48 8d 5c 05 ff       	lea    -0x1(%rbp,%rax,1),%rbx
  40bb53:	48 39 dd             	cmp    %rbx,%rbp
  40bb56:	0f 87 55 ff ff ff    	ja     40bab1 <__sprintf_chk@plt+0x95b1>
  40bb5c:	e8 7f 69 ff ff       	callq  4024e0 <__ctype_b_loc@plt>
  40bb61:	eb 15                	jmp    40bb78 <__sprintf_chk@plt+0x9678>
  40bb63:	0f 1f 44 00 00       	nopl   0x0(%rax,%rax,1)
  40bb68:	c6 03 00             	movb   $0x0,(%rbx)
  40bb6b:	48 83 eb 01          	sub    $0x1,%rbx
  40bb6f:	48 39 dd             	cmp    %rbx,%rbp
  40bb72:	0f 87 39 ff ff ff    	ja     40bab1 <__sprintf_chk@plt+0x95b1>
  40bb78:	0f b6 0b             	movzbl (%rbx),%ecx
  40bb7b:	48 8b 10             	mov    (%rax),%rdx
  40bb7e:	f6 44 4a 01 20       	testb  $0x20,0x1(%rdx,%rcx,2)
  40bb83:	75 e3                	jne    40bb68 <__sprintf_chk@plt+0x9668>
  40bb85:	e9 27 ff ff ff       	jmpq   40bab1 <__sprintf_chk@plt+0x95b1>
  40bb8a:	66 0f 1f 44 00 00    	nopw   0x0(%rax,%rax,1)
  40bb90:	48 89 ef             	mov    %rbp,%rdi
  40bb93:	48 89 6c 24 28       	mov    %rbp,0x28(%rsp)
  40bb98:	48 89 eb             	mov    %rbp,%rbx
  40bb9b:	e8 70 64 ff ff       	callq  402010 <strlen@plt>
  40bba0:	4c 8d 64 05 00       	lea    0x0(%rbp,%rax,1),%r12
  40bba5:	c6 44 24 18 00       	movb   $0x0,0x18(%rsp)
  40bbaa:	48 c7 44 24 1c 00 00 	movq   $0x0,0x1c(%rsp)
  40bbb1:	00 00 
  40bbb3:	c6 44 24 24 00       	movb   $0x0,0x24(%rsp)
  40bbb8:	4c 39 e5             	cmp    %r12,%rbp
  40bbbb:	4c 89 64 24 10       	mov    %r12,0x10(%rsp)
  40bbc0:	0f 83 ca fe ff ff    	jae    40ba90 <__sprintf_chk@plt+0x9590>
  40bbc6:	4c 8d 7c 24 1c       	lea    0x1c(%rsp),%r15
  40bbcb:	eb 6e                	jmp    40bc3b <__sprintf_chk@plt+0x973b>
  40bbcd:	0f 1f 00             	nopl   (%rax)
  40bbd0:	0f b6 03             	movzbl (%rbx),%eax
  40bbd3:	89 c2                	mov    %eax,%edx
  40bbd5:	83 e0 1f             	and    $0x1f,%eax
  40bbd8:	c0 ea 05             	shr    $0x5,%dl
  40bbdb:	83 e2 07             	and    $0x7,%edx
  40bbde:	8b 14 95 80 57 41 00 	mov    0x415780(,%rdx,4),%edx
  40bbe5:	0f a3 c2             	bt     %eax,%edx
  40bbe8:	0f 83 d2 00 00 00    	jae    40bcc0 <__sprintf_chk@plt+0x97c0>
  40bbee:	48 c7 44 24 30 01 00 	movq   $0x1,0x30(%rsp)
  40bbf5:	00 00 
  40bbf7:	0f be 03             	movsbl (%rbx),%eax
  40bbfa:	48 8b 5c 24 28       	mov    0x28(%rsp),%rbx
  40bbff:	c6 44 24 38 01       	movb   $0x1,0x38(%rsp)
  40bc04:	89 44 24 3c          	mov    %eax,0x3c(%rsp)
  40bc08:	8b 7c 24 3c          	mov    0x3c(%rsp),%edi
  40bc0c:	c6 44 24 24 01       	movb   $0x1,0x24(%rsp)
  40bc11:	e8 7a 67 ff ff       	callq  402390 <iswspace@plt>
  40bc16:	85 c0                	test   %eax,%eax
  40bc18:	0f 84 72 fe ff ff    	je     40ba90 <__sprintf_chk@plt+0x9590>
  40bc1e:	48 03 5c 24 30       	add    0x30(%rsp),%rbx
  40bc23:	4c 8b 64 24 10       	mov    0x10(%rsp),%r12
  40bc28:	c6 44 24 24 00       	movb   $0x0,0x24(%rsp)
  40bc2d:	49 39 dc             	cmp    %rbx,%r12
  40bc30:	48 89 5c 24 28       	mov    %rbx,0x28(%rsp)
  40bc35:	0f 86 55 fe ff ff    	jbe    40ba90 <__sprintf_chk@plt+0x9590>
  40bc3b:	80 7c 24 18 00       	cmpb   $0x0,0x18(%rsp)
  40bc40:	74 8e                	je     40bbd0 <__sprintf_chk@plt+0x96d0>
  40bc42:	48 8b 74 24 28       	mov    0x28(%rsp),%rsi
  40bc47:	48 8d 4c 24 1c       	lea    0x1c(%rsp),%rcx
  40bc4c:	4c 89 e2             	mov    %r12,%rdx
  40bc4f:	48 8d 7c 24 3c       	lea    0x3c(%rsp),%rdi
  40bc54:	48 29 f2             	sub    %rsi,%rdx
  40bc57:	e8 04 64 ff ff       	callq  402060 <mbrtowc@plt>
  40bc5c:	48 83 f8 ff          	cmp    $0xffffffffffffffff,%rax
  40bc60:	48 89 44 24 30       	mov    %rax,0x30(%rsp)
  40bc65:	0f 84 0d fe ff ff    	je     40ba78 <__sprintf_chk@plt+0x9578>
  40bc6b:	48 83 f8 fe          	cmp    $0xfffffffffffffffe,%rax
  40bc6f:	74 7f                	je     40bcf0 <__sprintf_chk@plt+0x97f0>
  40bc71:	48 85 c0             	test   %rax,%rax
  40bc74:	75 6a                	jne    40bce0 <__sprintf_chk@plt+0x97e0>
  40bc76:	48 8b 5c 24 28       	mov    0x28(%rsp),%rbx
  40bc7b:	48 c7 44 24 30 01 00 	movq   $0x1,0x30(%rsp)
  40bc82:	00 00 
  40bc84:	80 3b 00             	cmpb   $0x0,(%rbx)
  40bc87:	0f 85 a5 00 00 00    	jne    40bd32 <__sprintf_chk@plt+0x9832>
  40bc8d:	8b 54 24 3c          	mov    0x3c(%rsp),%edx
  40bc91:	85 d2                	test   %edx,%edx
  40bc93:	0f 85 b7 00 00 00    	jne    40bd50 <__sprintf_chk@plt+0x9850>
  40bc99:	48 8d 7c 24 1c       	lea    0x1c(%rsp),%rdi
  40bc9e:	c6 44 24 38 01       	movb   $0x1,0x38(%rsp)
  40bca3:	e8 e8 67 ff ff       	callq  402490 <mbsinit@plt>
  40bca8:	85 c0                	test   %eax,%eax
  40bcaa:	0f 84 58 ff ff ff    	je     40bc08 <__sprintf_chk@plt+0x9708>
  40bcb0:	c6 44 24 18 00       	movb   $0x0,0x18(%rsp)
  40bcb5:	e9 4e ff ff ff       	jmpq   40bc08 <__sprintf_chk@plt+0x9708>
  40bcba:	66 0f 1f 44 00 00    	nopw   0x0(%rax,%rax,1)
  40bcc0:	4c 89 ff             	mov    %r15,%rdi
  40bcc3:	e8 c8 67 ff ff       	callq  402490 <mbsinit@plt>
  40bcc8:	85 c0                	test   %eax,%eax
  40bcca:	74 48                	je     40bd14 <__sprintf_chk@plt+0x9814>
  40bccc:	c6 44 24 18 01       	movb   $0x1,0x18(%rsp)
  40bcd1:	e9 6c ff ff ff       	jmpq   40bc42 <__sprintf_chk@plt+0x9742>
  40bcd6:	66 2e 0f 1f 84 00 00 	nopw   %cs:0x0(%rax,%rax,1)
  40bcdd:	00 00 00 
  40bce0:	48 8b 5c 24 28       	mov    0x28(%rsp),%rbx
  40bce5:	eb b2                	jmp    40bc99 <__sprintf_chk@plt+0x9799>
  40bce7:	66 0f 1f 84 00 00 00 	nopw   0x0(%rax,%rax,1)
  40bcee:	00 00 
  40bcf0:	48 8b 5c 24 28       	mov    0x28(%rsp),%rbx
  40bcf5:	48 8b 44 24 10       	mov    0x10(%rsp),%rax
  40bcfa:	c6 44 24 38 00       	movb   $0x0,0x38(%rsp)
  40bcff:	48 29 d8             	sub    %rbx,%rax
  40bd02:	48 89 44 24 30       	mov    %rax,0x30(%rsp)
  40bd07:	e9 7f fd ff ff       	jmpq   40ba8b <__sprintf_chk@plt+0x958b>
  40bd0c:	48 89 eb             	mov    %rbp,%rbx
  40bd0f:	e9 11 fe ff ff       	jmpq   40bb25 <__sprintf_chk@plt+0x9625>
  40bd14:	b9 40 5d 41 00       	mov    $0x415d40,%ecx
  40bd19:	ba 8b 00 00 00       	mov    $0x8b,%edx
  40bd1e:	be 28 5d 41 00       	mov    $0x415d28,%esi
  40bd23:	bf 00 52 41 00       	mov    $0x415200,%edi
  40bd28:	e8 a3 63 ff ff       	callq  4020d0 <__assert_fail@plt>
  40bd2d:	e8 5e 08 00 00       	callq  40c590 <__sprintf_chk@plt+0xa090>
  40bd32:	b9 40 5d 41 00       	mov    $0x415d40,%ecx
  40bd37:	ba a6 00 00 00       	mov    $0xa6,%edx
  40bd3c:	be 28 5d 41 00       	mov    $0x415d28,%esi
  40bd41:	bf 17 52 41 00       	mov    $0x415217,%edi
  40bd46:	e8 85 63 ff ff       	callq  4020d0 <__assert_fail@plt>
  40bd4b:	e8 f0 62 ff ff       	callq  402040 <__stack_chk_fail@plt>
  40bd50:	b9 40 5d 41 00       	mov    $0x415d40,%ecx
  40bd55:	ba a7 00 00 00       	mov    $0xa7,%edx
  40bd5a:	be 28 5d 41 00       	mov    $0x415d28,%esi
  40bd5f:	bf 2e 52 41 00       	mov    $0x41522e,%edi
  40bd64:	e8 67 63 ff ff       	callq  4020d0 <__assert_fail@plt>
  40bd69:	0f 1f 80 00 00 00 00 	nopl   0x0(%rax)
  40bd70:	41 57                	push   %r15
  40bd72:	41 56                	push   %r14
  40bd74:	41 55                	push   %r13
  40bd76:	41 54                	push   %r12
  40bd78:	4d 89 cc             	mov    %r9,%r12
  40bd7b:	55                   	push   %rbp
  40bd7c:	48 89 fd             	mov    %rdi,%rbp
  40bd7f:	53                   	push   %rbx
  40bd80:	4c 89 c3             	mov    %r8,%rbx
  40bd83:	48 83 ec 58          	sub    $0x58,%rsp
  40bd87:	48 85 f6             	test   %rsi,%rsi
  40bd8a:	0f 84 e0 03 00 00    	je     40c170 <__sprintf_chk@plt+0x9c70>
  40bd90:	49 89 c9             	mov    %rcx,%r9
  40bd93:	49 89 d0             	mov    %rdx,%r8
  40bd96:	48 89 f1             	mov    %rsi,%rcx
  40bd99:	ba 52 5d 41 00       	mov    $0x415d52,%edx
  40bd9e:	be 01 00 00 00       	mov    $0x1,%esi
  40bda3:	31 c0                	xor    %eax,%eax
  40bda5:	e8 c6 66 ff ff       	callq  402470 <__fprintf_chk@plt>
  40bdaa:	31 ff                	xor    %edi,%edi
  40bdac:	ba 05 00 00 00       	mov    $0x5,%edx
  40bdb1:	be 65 5d 41 00       	mov    $0x415d65,%esi
  40bdb6:	e8 35 62 ff ff       	callq  401ff0 <dcgettext@plt>
  40bdbb:	41 b8 dd 07 00 00    	mov    $0x7dd,%r8d
  40bdc1:	48 89 c1             	mov    %rax,%rcx
  40bdc4:	ba 40 60 41 00       	mov    $0x416040,%edx
  40bdc9:	be 01 00 00 00       	mov    $0x1,%esi
  40bdce:	48 89 ef             	mov    %rbp,%rdi
  40bdd1:	31 c0                	xor    %eax,%eax
  40bdd3:	e8 98 66 ff ff       	callq  402470 <__fprintf_chk@plt>
  40bdd8:	31 ff                	xor    %edi,%edi
  40bdda:	ba 05 00 00 00       	mov    $0x5,%edx
  40bddf:	be c8 5d 41 00       	mov    $0x415dc8,%esi
  40bde4:	e8 07 62 ff ff       	callq  401ff0 <dcgettext@plt>
  40bde9:	48 89 ee             	mov    %rbp,%rsi
  40bdec:	48 89 c7             	mov    %rax,%rdi
  40bdef:	e8 bc 63 ff ff       	callq  4021b0 <fputs_unlocked@plt>
  40bdf4:	49 83 fc 09          	cmp    $0x9,%r12
  40bdf8:	0f 87 92 03 00 00    	ja     40c190 <__sprintf_chk@plt+0x9c90>
  40bdfe:	42 ff 24 e5 e0 5f 41 	jmpq   *0x415fe0(,%r12,8)
  40be05:	00 
  40be06:	66 2e 0f 1f 84 00 00 	nopw   %cs:0x0(%rax,%rax,1)
  40be0d:	00 00 00 
  40be10:	4c 8b 4b 38          	mov    0x38(%rbx),%r9
  40be14:	4c 8b 43 08          	mov    0x8(%rbx),%r8
  40be18:	ba 05 00 00 00       	mov    $0x5,%edx
  40be1d:	48 8b 43 10          	mov    0x10(%rbx),%rax
  40be21:	be 38 5f 41 00       	mov    $0x415f38,%esi
  40be26:	31 ff                	xor    %edi,%edi
  40be28:	4c 8b 6b 30          	mov    0x30(%rbx),%r13
  40be2c:	4c 8b 63 28          	mov    0x28(%rbx),%r12
  40be30:	4c 8b 7b 20          	mov    0x20(%rbx),%r15
  40be34:	4c 8b 73 18          	mov    0x18(%rbx),%r14
  40be38:	4c 89 4c 24 40       	mov    %r9,0x40(%rsp)
  40be3d:	4c 89 44 24 38       	mov    %r8,0x38(%rsp)
  40be42:	48 8b 1b             	mov    (%rbx),%rbx
  40be45:	48 89 44 24 30       	mov    %rax,0x30(%rsp)
  40be4a:	e8 a1 61 ff ff       	callq  401ff0 <dcgettext@plt>
  40be4f:	4c 8b 4c 24 40       	mov    0x40(%rsp),%r9
  40be54:	4c 8b 44 24 38       	mov    0x38(%rsp),%r8
  40be59:	48 89 c2             	mov    %rax,%rdx
  40be5c:	4c 89 6c 24 18       	mov    %r13,0x18(%rsp)
  40be61:	4c 89 64 24 10       	mov    %r12,0x10(%rsp)
  40be66:	48 89 d9             	mov    %rbx,%rcx
  40be69:	4c 89 7c 24 08       	mov    %r15,0x8(%rsp)
  40be6e:	4c 89 34 24          	mov    %r14,(%rsp)
  40be72:	be 01 00 00 00       	mov    $0x1,%esi
  40be77:	4c 89 4c 24 20       	mov    %r9,0x20(%rsp)
  40be7c:	4c 8b 4c 24 30       	mov    0x30(%rsp),%r9
  40be81:	48 89 ef             	mov    %rbp,%rdi
  40be84:	31 c0                	xor    %eax,%eax
  40be86:	e8 e5 65 ff ff       	callq  402470 <__fprintf_chk@plt>
  40be8b:	48 83 c4 58          	add    $0x58,%rsp
  40be8f:	5b                   	pop    %rbx
  40be90:	5d                   	pop    %rbp
  40be91:	41 5c                	pop    %r12
  40be93:	41 5d                	pop    %r13
  40be95:	41 5e                	pop    %r14
  40be97:	41 5f                	pop    %r15
  40be99:	c3                   	retq   
  40be9a:	66 0f 1f 44 00 00    	nopw   0x0(%rax,%rax,1)
  40bea0:	4c 8b 53 40          	mov    0x40(%rbx),%r10
  40bea4:	4c 8b 4b 38          	mov    0x38(%rbx),%r9
  40bea8:	ba 05 00 00 00       	mov    $0x5,%edx
  40bead:	48 8b 43 10          	mov    0x10(%rbx),%rax
  40beb1:	4c 8b 43 08          	mov    0x8(%rbx),%r8
  40beb5:	be 68 5f 41 00       	mov    $0x415f68,%esi
  40beba:	4c 8b 6b 30          	mov    0x30(%rbx),%r13
  40bebe:	4c 8b 63 28          	mov    0x28(%rbx),%r12
  40bec2:	4c 8b 7b 20          	mov    0x20(%rbx),%r15
  40bec6:	4c 8b 73 18          	mov    0x18(%rbx),%r14
  40beca:	48 8b 1b             	mov    (%rbx),%rbx
  40becd:	4c 89 54 24 48       	mov    %r10,0x48(%rsp)
  40bed2:	4c 89 4c 24 40       	mov    %r9,0x40(%rsp)
  40bed7:	48 89 44 24 30       	mov    %rax,0x30(%rsp)
  40bedc:	4c 89 44 24 38       	mov    %r8,0x38(%rsp)
  40bee1:	31 ff                	xor    %edi,%edi
  40bee3:	e8 08 61 ff ff       	callq  401ff0 <dcgettext@plt>
  40bee8:	4c 8b 4c 24 40       	mov    0x40(%rsp),%r9
  40beed:	4c 8b 54 24 48       	mov    0x48(%rsp),%r10
  40bef2:	48 89 d9             	mov    %rbx,%rcx
  40bef5:	4c 8b 44 24 38       	mov    0x38(%rsp),%r8
  40befa:	4c 89 6c 24 18       	mov    %r13,0x18(%rsp)
  40beff:	48 89 c2             	mov    %rax,%rdx
  40bf02:	4c 89 64 24 10       	mov    %r12,0x10(%rsp)
  40bf07:	4c 89 7c 24 08       	mov    %r15,0x8(%rsp)
  40bf0c:	48 89 ef             	mov    %rbp,%rdi
  40bf0f:	4c 89 4c 24 20       	mov    %r9,0x20(%rsp)
  40bf14:	4c 8b 4c 24 30       	mov    0x30(%rsp),%r9
  40bf19:	be 01 00 00 00       	mov    $0x1,%esi
  40bf1e:	4c 89 34 24          	mov    %r14,(%rsp)
  40bf22:	4c 89 54 24 28       	mov    %r10,0x28(%rsp)
  40bf27:	31 c0                	xor    %eax,%eax
  40bf29:	e8 42 65 ff ff       	callq  402470 <__fprintf_chk@plt>
  40bf2e:	48 83 c4 58          	add    $0x58,%rsp
  40bf32:	5b                   	pop    %rbx
  40bf33:	5d                   	pop    %rbp
  40bf34:	41 5c                	pop    %r12
  40bf36:	41 5d                	pop    %r13
  40bf38:	41 5e                	pop    %r14
  40bf3a:	41 5f                	pop    %r15
  40bf3c:	c3                   	retq   
  40bf3d:	0f 1f 00             	nopl   (%rax)
  40bf40:	e8 bb 5f ff ff       	callq  401f00 <abort@plt>
  40bf45:	0f 1f 00             	nopl   (%rax)
  40bf48:	48 8b 1b             	mov    (%rbx),%rbx
  40bf4b:	ba 05 00 00 00       	mov    $0x5,%edx
  40bf50:	be 69 5d 41 00       	mov    $0x415d69,%esi
  40bf55:	31 ff                	xor    %edi,%edi
  40bf57:	e8 94 60 ff ff       	callq  401ff0 <dcgettext@plt>
  40bf5c:	48 83 c4 58          	add    $0x58,%rsp
  40bf60:	48 89 d9             	mov    %rbx,%rcx
  40bf63:	48 89 ef             	mov    %rbp,%rdi
  40bf66:	5b                   	pop    %rbx
  40bf67:	5d                   	pop    %rbp
  40bf68:	41 5c                	pop    %r12
  40bf6a:	41 5d                	pop    %r13
  40bf6c:	41 5e                	pop    %r14
  40bf6e:	41 5f                	pop    %r15
  40bf70:	48 89 c2             	mov    %rax,%rdx
  40bf73:	be 01 00 00 00       	mov    $0x1,%esi
  40bf78:	31 c0                	xor    %eax,%eax
  40bf7a:	e9 f1 64 ff ff       	jmpq   402470 <__fprintf_chk@plt>
  40bf7f:	90                   	nop
  40bf80:	4c 8b 63 08          	mov    0x8(%rbx),%r12
  40bf84:	48 8b 1b             	mov    (%rbx),%rbx
  40bf87:	ba 05 00 00 00       	mov    $0x5,%edx
  40bf8c:	be 79 5d 41 00       	mov    $0x415d79,%esi
  40bf91:	31 ff                	xor    %edi,%edi
  40bf93:	e8 58 60 ff ff       	callq  401ff0 <dcgettext@plt>
  40bf98:	48 83 c4 58          	add    $0x58,%rsp
  40bf9c:	48 89 d9             	mov    %rbx,%rcx
  40bf9f:	48 89 ef             	mov    %rbp,%rdi
  40bfa2:	5b                   	pop    %rbx
  40bfa3:	5d                   	pop    %rbp
  40bfa4:	4d 89 e0             	mov    %r12,%r8
  40bfa7:	48 89 c2             	mov    %rax,%rdx
  40bfaa:	be 01 00 00 00       	mov    $0x1,%esi
  40bfaf:	41 5c                	pop    %r12
  40bfb1:	41 5d                	pop    %r13
  40bfb3:	41 5e                	pop    %r14
  40bfb5:	41 5f                	pop    %r15
  40bfb7:	31 c0                	xor    %eax,%eax
  40bfb9:	e9 b2 64 ff ff       	jmpq   402470 <__fprintf_chk@plt>
  40bfbe:	66 90                	xchg   %ax,%ax
  40bfc0:	4c 8b 6b 10          	mov    0x10(%rbx),%r13
  40bfc4:	4c 8b 63 08          	mov    0x8(%rbx),%r12
  40bfc8:	ba 05 00 00 00       	mov    $0x5,%edx
  40bfcd:	48 8b 1b             	mov    (%rbx),%rbx
  40bfd0:	be 90 5d 41 00       	mov    $0x415d90,%esi
  40bfd5:	31 ff                	xor    %edi,%edi
  40bfd7:	e8 14 60 ff ff       	callq  401ff0 <dcgettext@plt>
  40bfdc:	48 83 c4 58          	add    $0x58,%rsp
  40bfe0:	48 89 ef             	mov    %rbp,%rdi
  40bfe3:	4d 89 e0             	mov    %r12,%r8
  40bfe6:	48 89 d9             	mov    %rbx,%rcx
  40bfe9:	4d 89 e9             	mov    %r13,%r9
  40bfec:	48 89 c2             	mov    %rax,%rdx
  40bfef:	5b                   	pop    %rbx
  40bff0:	5d                   	pop    %rbp
  40bff1:	41 5c                	pop    %r12
  40bff3:	41 5d                	pop    %r13
  40bff5:	41 5e                	pop    %r14
  40bff7:	41 5f                	pop    %r15
  40bff9:	be 01 00 00 00       	mov    $0x1,%esi
  40bffe:	31 c0                	xor    %eax,%eax
  40c000:	e9 6b 64 ff ff       	jmpq   402470 <__fprintf_chk@plt>
  40c005:	0f 1f 00             	nopl   (%rax)
  40c008:	4c 8b 73 18          	mov    0x18(%rbx),%r14
  40c00c:	4c 8b 6b 10          	mov    0x10(%rbx),%r13
  40c010:	31 ff                	xor    %edi,%edi
  40c012:	4c 8b 63 08          	mov    0x8(%rbx),%r12
  40c016:	48 8b 1b             	mov    (%rbx),%rbx
  40c019:	ba 05 00 00 00       	mov    $0x5,%edx
  40c01e:	be 98 5e 41 00       	mov    $0x415e98,%esi
  40c023:	e8 c8 5f ff ff       	callq  401ff0 <dcgettext@plt>
  40c028:	4c 89 34 24          	mov    %r14,(%rsp)
  40c02c:	48 89 c2             	mov    %rax,%rdx
  40c02f:	4d 89 e9             	mov    %r13,%r9
  40c032:	4d 89 e0             	mov    %r12,%r8
  40c035:	48 89 d9             	mov    %rbx,%rcx
  40c038:	be 01 00 00 00       	mov    $0x1,%esi
  40c03d:	48 89 ef             	mov    %rbp,%rdi
  40c040:	31 c0                	xor    %eax,%eax
  40c042:	e8 29 64 ff ff       	callq  402470 <__fprintf_chk@plt>
  40c047:	e9 3f fe ff ff       	jmpq   40be8b <__sprintf_chk@plt+0x998b>
  40c04c:	0f 1f 40 00          	nopl   0x0(%rax)
  40c050:	4c 8b 7b 20          	mov    0x20(%rbx),%r15
  40c054:	4c 8b 73 18          	mov    0x18(%rbx),%r14
  40c058:	31 ff                	xor    %edi,%edi
  40c05a:	4c 8b 6b 10          	mov    0x10(%rbx),%r13
  40c05e:	4c 8b 63 08          	mov    0x8(%rbx),%r12
  40c062:	ba 05 00 00 00       	mov    $0x5,%edx
  40c067:	48 8b 1b             	mov    (%rbx),%rbx
  40c06a:	be b8 5e 41 00       	mov    $0x415eb8,%esi
  40c06f:	e8 7c 5f ff ff       	callq  401ff0 <dcgettext@plt>
  40c074:	4c 89 7c 24 08       	mov    %r15,0x8(%rsp)
  40c079:	48 89 c2             	mov    %rax,%rdx
  40c07c:	4c 89 34 24          	mov    %r14,(%rsp)
  40c080:	4d 89 e9             	mov    %r13,%r9
  40c083:	4d 89 e0             	mov    %r12,%r8
  40c086:	48 89 d9             	mov    %rbx,%rcx
  40c089:	be 01 00 00 00       	mov    $0x1,%esi
  40c08e:	48 89 ef             	mov    %rbp,%rdi
  40c091:	31 c0                	xor    %eax,%eax
  40c093:	e8 d8 63 ff ff       	callq  402470 <__fprintf_chk@plt>
  40c098:	e9 ee fd ff ff       	jmpq   40be8b <__sprintf_chk@plt+0x998b>
  40c09d:	0f 1f 00             	nopl   (%rax)
  40c0a0:	4c 8b 43 08          	mov    0x8(%rbx),%r8
  40c0a4:	4c 8b 63 28          	mov    0x28(%rbx),%r12
  40c0a8:	31 ff                	xor    %edi,%edi
  40c0aa:	4c 8b 7b 20          	mov    0x20(%rbx),%r15
  40c0ae:	4c 8b 73 18          	mov    0x18(%rbx),%r14
  40c0b2:	ba 05 00 00 00       	mov    $0x5,%edx
  40c0b7:	4c 8b 6b 10          	mov    0x10(%rbx),%r13
  40c0bb:	be e0 5e 41 00       	mov    $0x415ee0,%esi
  40c0c0:	48 8b 1b             	mov    (%rbx),%rbx
  40c0c3:	4c 89 44 24 30       	mov    %r8,0x30(%rsp)
  40c0c8:	e8 23 5f ff ff       	callq  401ff0 <dcgettext@plt>
  40c0cd:	4c 8b 44 24 30       	mov    0x30(%rsp),%r8
  40c0d2:	48 89 c2             	mov    %rax,%rdx
  40c0d5:	4c 89 64 24 10       	mov    %r12,0x10(%rsp)
  40c0da:	4c 89 7c 24 08       	mov    %r15,0x8(%rsp)
  40c0df:	4c 89 34 24          	mov    %r14,(%rsp)
  40c0e3:	4d 89 e9             	mov    %r13,%r9
  40c0e6:	48 89 d9             	mov    %rbx,%rcx
  40c0e9:	be 01 00 00 00       	mov    $0x1,%esi
  40c0ee:	48 89 ef             	mov    %rbp,%rdi
  40c0f1:	31 c0                	xor    %eax,%eax
  40c0f3:	e8 78 63 ff ff       	callq  402470 <__fprintf_chk@plt>
  40c0f8:	e9 8e fd ff ff       	jmpq   40be8b <__sprintf_chk@plt+0x998b>
  40c0fd:	0f 1f 00             	nopl   (%rax)
  40c100:	4c 8b 4b 10          	mov    0x10(%rbx),%r9
  40c104:	4c 8b 43 08          	mov    0x8(%rbx),%r8
  40c108:	31 ff                	xor    %edi,%edi
  40c10a:	4c 8b 6b 30          	mov    0x30(%rbx),%r13
  40c10e:	4c 8b 63 28          	mov    0x28(%rbx),%r12
  40c112:	ba 05 00 00 00       	mov    $0x5,%edx
  40c117:	4c 8b 7b 20          	mov    0x20(%rbx),%r15
  40c11b:	4c 8b 73 18          	mov    0x18(%rbx),%r14
  40c11f:	be 08 5f 41 00       	mov    $0x415f08,%esi
  40c124:	48 8b 1b             	mov    (%rbx),%rbx
  40c127:	4c 89 4c 24 38       	mov    %r9,0x38(%rsp)
  40c12c:	4c 89 44 24 30       	mov    %r8,0x30(%rsp)
  40c131:	e8 ba 5e ff ff       	callq  401ff0 <dcgettext@plt>
  40c136:	4c 8b 4c 24 38       	mov    0x38(%rsp),%r9
  40c13b:	4c 8b 44 24 30       	mov    0x30(%rsp),%r8
  40c140:	48 89 c2             	mov    %rax,%rdx
  40c143:	4c 89 6c 24 18       	mov    %r13,0x18(%rsp)
  40c148:	4c 89 64 24 10       	mov    %r12,0x10(%rsp)
  40c14d:	48 89 d9             	mov    %rbx,%rcx
  40c150:	4c 89 7c 24 08       	mov    %r15,0x8(%rsp)
  40c155:	4c 89 34 24          	mov    %r14,(%rsp)
  40c159:	be 01 00 00 00       	mov    $0x1,%esi
  40c15e:	48 89 ef             	mov    %rbp,%rdi
  40c161:	31 c0                	xor    %eax,%eax
  40c163:	e8 08 63 ff ff       	callq  402470 <__fprintf_chk@plt>
  40c168:	e9 1e fd ff ff       	jmpq   40be8b <__sprintf_chk@plt+0x998b>
  40c16d:	0f 1f 00             	nopl   (%rax)
  40c170:	49 89 c8             	mov    %rcx,%r8
  40c173:	be 01 00 00 00       	mov    $0x1,%esi
  40c178:	48 89 d1             	mov    %rdx,%rcx
  40c17b:	31 c0                	xor    %eax,%eax
  40c17d:	ba 5e 5d 41 00       	mov    $0x415d5e,%edx
  40c182:	e8 e9 62 ff ff       	callq  402470 <__fprintf_chk@plt>
  40c187:	e9 1e fc ff ff       	jmpq   40bdaa <__sprintf_chk@plt+0x98aa>
  40c18c:	0f 1f 40 00          	nopl   0x0(%rax)
  40c190:	4c 8b 53 40          	mov    0x40(%rbx),%r10
  40c194:	4c 8b 4b 38          	mov    0x38(%rbx),%r9
  40c198:	ba 05 00 00 00       	mov    $0x5,%edx
  40c19d:	48 8b 43 10          	mov    0x10(%rbx),%rax
  40c1a1:	4c 8b 43 08          	mov    0x8(%rbx),%r8
  40c1a5:	be a0 5f 41 00       	mov    $0x415fa0,%esi
  40c1aa:	4c 8b 6b 30          	mov    0x30(%rbx),%r13
  40c1ae:	4c 8b 63 28          	mov    0x28(%rbx),%r12
  40c1b2:	4c 8b 7b 20          	mov    0x20(%rbx),%r15
  40c1b6:	4c 8b 73 18          	mov    0x18(%rbx),%r14
  40c1ba:	4c 89 54 24 48       	mov    %r10,0x48(%rsp)
  40c1bf:	4c 89 4c 24 40       	mov    %r9,0x40(%rsp)
  40c1c4:	48 89 44 24 30       	mov    %rax,0x30(%rsp)
  40c1c9:	4c 89 44 24 38       	mov    %r8,0x38(%rsp)
  40c1ce:	48 8b 1b             	mov    (%rbx),%rbx
  40c1d1:	e9 0b fd ff ff       	jmpq   40bee1 <__sprintf_chk@plt+0x99e1>
  40c1d6:	66 2e 0f 1f 84 00 00 	nopw   %cs:0x0(%rax,%rax,1)
  40c1dd:	00 00 00 
  40c1e0:	45 31 c9             	xor    %r9d,%r9d
  40c1e3:	49 83 38 00          	cmpq   $0x0,(%r8)
  40c1e7:	74 12                	je     40c1fb <__sprintf_chk@plt+0x9cfb>
  40c1e9:	0f 1f 80 00 00 00 00 	nopl   0x0(%rax)
  40c1f0:	49 83 c1 01          	add    $0x1,%r9
  40c1f4:	4b 83 3c c8 00       	cmpq   $0x0,(%r8,%r9,8)
  40c1f9:	75 f5                	jne    40c1f0 <__sprintf_chk@plt+0x9cf0>
  40c1fb:	e9 70 fb ff ff       	jmpq   40bd70 <__sprintf_chk@plt+0x9870>
  40c200:	48 83 ec 58          	sub    $0x58,%rsp
  40c204:	45 31 c9             	xor    %r9d,%r9d
  40c207:	eb 2a                	jmp    40c233 <__sprintf_chk@plt+0x9d33>
  40c209:	0f 1f 80 00 00 00 00 	nopl   0x0(%rax)
  40c210:	41 89 c2             	mov    %eax,%r10d
  40c213:	4d 03 50 10          	add    0x10(%r8),%r10
  40c217:	83 c0 08             	add    $0x8,%eax
  40c21a:	41 89 00             	mov    %eax,(%r8)
  40c21d:	49 8b 02             	mov    (%r10),%rax
  40c220:	48 85 c0             	test   %rax,%rax
  40c223:	4a 89 04 cc          	mov    %rax,(%rsp,%r9,8)
  40c227:	74 2f                	je     40c258 <__sprintf_chk@plt+0x9d58>
  40c229:	49 83 c1 01          	add    $0x1,%r9
  40c22d:	49 83 f9 0a          	cmp    $0xa,%r9
  40c231:	74 25                	je     40c258 <__sprintf_chk@plt+0x9d58>
  40c233:	41 8b 00             	mov    (%r8),%eax
  40c236:	83 f8 30             	cmp    $0x30,%eax
  40c239:	72 d5                	jb     40c210 <__sprintf_chk@plt+0x9d10>
  40c23b:	4d 8b 50 08          	mov    0x8(%r8),%r10
  40c23f:	49 8d 42 08          	lea    0x8(%r10),%rax
  40c243:	49 89 40 08          	mov    %rax,0x8(%r8)
  40c247:	49 8b 02             	mov    (%r10),%rax
  40c24a:	48 85 c0             	test   %rax,%rax
  40c24d:	4a 89 04 cc          	mov    %rax,(%rsp,%r9,8)
  40c251:	75 d6                	jne    40c229 <__sprintf_chk@plt+0x9d29>
  40c253:	0f 1f 44 00 00       	nopl   0x0(%rax,%rax,1)
  40c258:	49 89 e0             	mov    %rsp,%r8
  40c25b:	e8 10 fb ff ff       	callq  40bd70 <__sprintf_chk@plt+0x9870>
  40c260:	48 83 c4 58          	add    $0x58,%rsp
  40c264:	c3                   	retq   
  40c265:	66 66 2e 0f 1f 84 00 	data32 nopw %cs:0x0(%rax,%rax,1)
  40c26c:	00 00 00 00 
  40c270:	48 81 ec d8 00 00 00 	sub    $0xd8,%rsp
  40c277:	84 c0                	test   %al,%al
  40c279:	4c 89 44 24 40       	mov    %r8,0x40(%rsp)
  40c27e:	4c 89 4c 24 48       	mov    %r9,0x48(%rsp)
  40c283:	74 37                	je     40c2bc <__sprintf_chk@plt+0x9dbc>
  40c285:	0f 29 44 24 50       	movaps %xmm0,0x50(%rsp)
  40c28a:	0f 29 4c 24 60       	movaps %xmm1,0x60(%rsp)
  40c28f:	0f 29 54 24 70       	movaps %xmm2,0x70(%rsp)
  40c294:	0f 29 9c 24 80 00 00 	movaps %xmm3,0x80(%rsp)
  40c29b:	00 
  40c29c:	0f 29 a4 24 90 00 00 	movaps %xmm4,0x90(%rsp)
  40c2a3:	00 
  40c2a4:	0f 29 ac 24 a0 00 00 	movaps %xmm5,0xa0(%rsp)
  40c2ab:	00 
  40c2ac:	0f 29 b4 24 b0 00 00 	movaps %xmm6,0xb0(%rsp)
  40c2b3:	00 
  40c2b4:	0f 29 bc 24 c0 00 00 	movaps %xmm7,0xc0(%rsp)
  40c2bb:	00 
  40c2bc:	48 8d 84 24 e0 00 00 	lea    0xe0(%rsp),%rax
  40c2c3:	00 
  40c2c4:	4c 8d 44 24 08       	lea    0x8(%rsp),%r8
  40c2c9:	48 89 44 24 10       	mov    %rax,0x10(%rsp)
  40c2ce:	48 8d 44 24 20       	lea    0x20(%rsp),%rax
  40c2d3:	c7 44 24 08 20 00 00 	movl   $0x20,0x8(%rsp)
  40c2da:	00 
  40c2db:	c7 44 24 0c 30 00 00 	movl   $0x30,0xc(%rsp)
  40c2e2:	00 
  40c2e3:	48 89 44 24 18       	mov    %rax,0x18(%rsp)
  40c2e8:	e8 13 ff ff ff       	callq  40c200 <__sprintf_chk@plt+0x9d00>
  40c2ed:	48 81 c4 d8 00 00 00 	add    $0xd8,%rsp
  40c2f4:	c3                   	retq   
  40c2f5:	66 66 2e 0f 1f 84 00 	data32 nopw %cs:0x0(%rax,%rax,1)
  40c2fc:	00 00 00 00 
  40c300:	53                   	push   %rbx
  40c301:	ba 05 00 00 00       	mov    $0x5,%edx
  40c306:	be ac 5d 41 00       	mov    $0x415dac,%esi
  40c30b:	31 ff                	xor    %edi,%edi
  40c30d:	e8 de 5c ff ff       	callq  401ff0 <dcgettext@plt>
  40c312:	ba 05 31 41 00       	mov    $0x413105,%edx
  40c317:	48 89 c6             	mov    %rax,%rsi
  40c31a:	bf 01 00 00 00       	mov    $0x1,%edi
  40c31f:	31 c0                	xor    %eax,%eax
  40c321:	e8 4a 60 ff ff       	callq  402370 <__printf_chk@plt>
  40c326:	ba 05 00 00 00       	mov    $0x5,%edx
  40c32b:	be 1b 31 41 00       	mov    $0x41311b,%esi
  40c330:	31 ff                	xor    %edi,%edi
  40c332:	e8 b9 5c ff ff       	callq  401ff0 <dcgettext@plt>
  40c337:	b9 00 42 41 00       	mov    $0x414200,%ecx
  40c33c:	48 89 c6             	mov    %rax,%rsi
  40c33f:	ba 2f 31 41 00       	mov    $0x41312f,%edx
  40c344:	bf 01 00 00 00       	mov    $0x1,%edi
  40c349:	31 c0                	xor    %eax,%eax
  40c34b:	e8 20 60 ff ff       	callq  402370 <__printf_chk@plt>
  40c350:	48 8b 1d b9 e0 20 00 	mov    0x20e0b9(%rip),%rbx        # 61a410 <stdout>
  40c357:	be 28 42 41 00       	mov    $0x414228,%esi
  40c35c:	31 ff                	xor    %edi,%edi
  40c35e:	ba 05 00 00 00       	mov    $0x5,%edx
  40c363:	e8 88 5c ff ff       	callq  401ff0 <dcgettext@plt>
  40c368:	48 89 de             	mov    %rbx,%rsi
  40c36b:	48 89 c7             	mov    %rax,%rdi
  40c36e:	5b                   	pop    %rbx
  40c36f:	e9 3c 5e ff ff       	jmpq   4021b0 <fputs_unlocked@plt>
  40c374:	66 2e 0f 1f 84 00 00 	nopw   %cs:0x0(%rax,%rax,1)
  40c37b:	00 00 00 
  40c37e:	66 90                	xchg   %ax,%ax
  40c380:	53                   	push   %rbx
  40c381:	48 89 fb             	mov    %rdi,%rbx
  40c384:	e8 07 5f ff ff       	callq  402290 <malloc@plt>
  40c389:	48 85 c0             	test   %rax,%rax
  40c38c:	74 02                	je     40c390 <__sprintf_chk@plt+0x9e90>
  40c38e:	5b                   	pop    %rbx
  40c38f:	c3                   	retq   
  40c390:	48 85 db             	test   %rbx,%rbx
  40c393:	74 f9                	je     40c38e <__sprintf_chk@plt+0x9e8e>
  40c395:	e8 f6 01 00 00       	callq  40c590 <__sprintf_chk@plt+0xa090>
  40c39a:	66 0f 1f 44 00 00    	nopw   0x0(%rax,%rax,1)
  40c3a0:	31 d2                	xor    %edx,%edx
  40c3a2:	48 c7 c0 ff ff ff ff 	mov    $0xffffffffffffffff,%rax
  40c3a9:	48 f7 f6             	div    %rsi
  40c3ac:	48 39 f8             	cmp    %rdi,%rax
  40c3af:	72 09                	jb     40c3ba <__sprintf_chk@plt+0x9eba>
  40c3b1:	48 0f af fe          	imul   %rsi,%rdi
  40c3b5:	e9 c6 ff ff ff       	jmpq   40c380 <__sprintf_chk@plt+0x9e80>
  40c3ba:	50                   	push   %rax
  40c3bb:	e8 d0 01 00 00       	callq  40c590 <__sprintf_chk@plt+0xa090>
  40c3c0:	e9 bb ff ff ff       	jmpq   40c380 <__sprintf_chk@plt+0x9e80>
  40c3c5:	66 66 2e 0f 1f 84 00 	data32 nopw %cs:0x0(%rax,%rax,1)
  40c3cc:	00 00 00 00 
  40c3d0:	48 85 f6             	test   %rsi,%rsi
  40c3d3:	53                   	push   %rbx
  40c3d4:	48 89 f3             	mov    %rsi,%rbx
  40c3d7:	74 17                	je     40c3f0 <__sprintf_chk@plt+0x9ef0>
  40c3d9:	48 89 de             	mov    %rbx,%rsi
  40c3dc:	e8 5f 5f ff ff       	callq  402340 <realloc@plt>
  40c3e1:	48 85 c0             	test   %rax,%rax
  40c3e4:	74 18                	je     40c3fe <__sprintf_chk@plt+0x9efe>
  40c3e6:	5b                   	pop    %rbx
  40c3e7:	c3                   	retq   
  40c3e8:	0f 1f 84 00 00 00 00 	nopl   0x0(%rax,%rax,1)
  40c3ef:	00 
  40c3f0:	48 85 ff             	test   %rdi,%rdi
  40c3f3:	74 e4                	je     40c3d9 <__sprintf_chk@plt+0x9ed9>
  40c3f5:	e8 d6 5a ff ff       	callq  401ed0 <free@plt>
  40c3fa:	31 c0                	xor    %eax,%eax
  40c3fc:	5b                   	pop    %rbx
  40c3fd:	c3                   	retq   
  40c3fe:	48 85 db             	test   %rbx,%rbx
  40c401:	74 e3                	je     40c3e6 <__sprintf_chk@plt+0x9ee6>
  40c403:	e8 88 01 00 00       	callq  40c590 <__sprintf_chk@plt+0xa090>
  40c408:	0f 1f 84 00 00 00 00 	nopl   0x0(%rax,%rax,1)
  40c40f:	00 
  40c410:	48 89 d1             	mov    %rdx,%rcx
  40c413:	48 c7 c0 ff ff ff ff 	mov    $0xffffffffffffffff,%rax
  40c41a:	31 d2                	xor    %edx,%edx
  40c41c:	48 f7 f1             	div    %rcx
  40c41f:	48 39 f0             	cmp    %rsi,%rax
  40c422:	72 09                	jb     40c42d <__sprintf_chk@plt+0x9f2d>
  40c424:	48 0f af f1          	imul   %rcx,%rsi
  40c428:	e9 a3 ff ff ff       	jmpq   40c3d0 <__sprintf_chk@plt+0x9ed0>
  40c42d:	50                   	push   %rax
  40c42e:	e8 5d 01 00 00       	callq  40c590 <__sprintf_chk@plt+0xa090>
  40c433:	66 66 66 66 2e 0f 1f 	data32 data32 data32 nopw %cs:0x0(%rax,%rax,1)
  40c43a:	84 00 00 00 00 00 
  40c440:	48 85 ff             	test   %rdi,%rdi
  40c443:	49 89 d0             	mov    %rdx,%r8
  40c446:	48 8b 0e             	mov    (%rsi),%rcx
  40c449:	74 35                	je     40c480 <__sprintf_chk@plt+0x9f80>
  40c44b:	31 d2                	xor    %edx,%edx
  40c44d:	48 b8 aa aa aa aa aa 	movabs $0xaaaaaaaaaaaaaaaa,%rax
  40c454:	aa aa aa 
  40c457:	49 f7 f0             	div    %r8
  40c45a:	48 39 c1             	cmp    %rax,%rcx
  40c45d:	73 3d                	jae    40c49c <__sprintf_chk@plt+0x9f9c>
  40c45f:	48 8d 41 01          	lea    0x1(%rcx),%rax
  40c463:	48 d1 e8             	shr    %rax
  40c466:	48 01 c1             	add    %rax,%rcx
  40c469:	48 89 0e             	mov    %rcx,(%rsi)
  40c46c:	49 0f af c8          	imul   %r8,%rcx
  40c470:	48 89 ce             	mov    %rcx,%rsi
  40c473:	e9 58 ff ff ff       	jmpq   40c3d0 <__sprintf_chk@plt+0x9ed0>
  40c478:	0f 1f 84 00 00 00 00 	nopl   0x0(%rax,%rax,1)
  40c47f:	00 
  40c480:	48 85 c9             	test   %rcx,%rcx
  40c483:	75 e4                	jne    40c469 <__sprintf_chk@plt+0x9f69>
  40c485:	31 d2                	xor    %edx,%edx
  40c487:	b8 80 00 00 00       	mov    $0x80,%eax
  40c48c:	31 c9                	xor    %ecx,%ecx
  40c48e:	49 f7 f0             	div    %r8
  40c491:	48 85 c0             	test   %rax,%rax
  40c494:	0f 94 c1             	sete   %cl
  40c497:	48 01 c1             	add    %rax,%rcx
  40c49a:	eb cd                	jmp    40c469 <__sprintf_chk@plt+0x9f69>
  40c49c:	50                   	push   %rax
  40c49d:	e8 ee 00 00 00       	callq  40c590 <__sprintf_chk@plt+0xa090>
  40c4a2:	66 66 66 66 66 2e 0f 	data32 data32 data32 data32 nopw %cs:0x0(%rax,%rax,1)
  40c4a9:	1f 84 00 00 00 00 00 
  40c4b0:	48 85 ff             	test   %rdi,%rdi
  40c4b3:	48 8b 06             	mov    (%rsi),%rax
  40c4b6:	74 28                	je     40c4e0 <__sprintf_chk@plt+0x9fe0>
  40c4b8:	48 ba a9 aa aa aa aa 	movabs $0xaaaaaaaaaaaaaaa9,%rdx
  40c4bf:	aa aa aa 
  40c4c2:	48 39 d0             	cmp    %rdx,%rax
  40c4c5:	77 30                	ja     40c4f7 <__sprintf_chk@plt+0x9ff7>
  40c4c7:	48 8d 50 01          	lea    0x1(%rax),%rdx
  40c4cb:	48 d1 ea             	shr    %rdx
  40c4ce:	48 01 d0             	add    %rdx,%rax
  40c4d1:	48 89 06             	mov    %rax,(%rsi)
  40c4d4:	48 89 c6             	mov    %rax,%rsi
  40c4d7:	e9 f4 fe ff ff       	jmpq   40c3d0 <__sprintf_chk@plt+0x9ed0>
  40c4dc:	0f 1f 40 00          	nopl   0x0(%rax)
  40c4e0:	48 85 c0             	test   %rax,%rax
  40c4e3:	ba 80 00 00 00       	mov    $0x80,%edx
  40c4e8:	48 0f 44 c2          	cmove  %rdx,%rax
  40c4ec:	48 89 06             	mov    %rax,(%rsi)
  40c4ef:	48 89 c6             	mov    %rax,%rsi
  40c4f2:	e9 d9 fe ff ff       	jmpq   40c3d0 <__sprintf_chk@plt+0x9ed0>
  40c4f7:	50                   	push   %rax
  40c4f8:	e8 93 00 00 00       	callq  40c590 <__sprintf_chk@plt+0xa090>
  40c4fd:	0f 1f 00             	nopl   (%rax)
  40c500:	53                   	push   %rbx
  40c501:	48 89 fb             	mov    %rdi,%rbx
  40c504:	e8 77 fe ff ff       	callq  40c380 <__sprintf_chk@plt+0x9e80>
  40c509:	48 89 da             	mov    %rbx,%rdx
  40c50c:	31 f6                	xor    %esi,%esi
  40c50e:	48 89 c7             	mov    %rax,%rdi
  40c511:	5b                   	pop    %rbx
  40c512:	e9 e9 5b ff ff       	jmpq   402100 <memset@plt>
  40c517:	66 0f 1f 84 00 00 00 	nopw   0x0(%rax,%rax,1)
  40c51e:	00 00 
  40c520:	48 83 ec 08          	sub    $0x8,%rsp
  40c524:	e8 97 5c ff ff       	callq  4021c0 <calloc@plt>
  40c529:	48 85 c0             	test   %rax,%rax
  40c52c:	74 05                	je     40c533 <__sprintf_chk@plt+0xa033>
  40c52e:	48 83 c4 08          	add    $0x8,%rsp
  40c532:	c3                   	retq   
  40c533:	e8 58 00 00 00       	callq  40c590 <__sprintf_chk@plt+0xa090>
  40c538:	0f 1f 84 00 00 00 00 	nopl   0x0(%rax,%rax,1)
  40c53f:	00 
  40c540:	55                   	push   %rbp
  40c541:	48 89 fd             	mov    %rdi,%rbp
  40c544:	48 89 f7             	mov    %rsi,%rdi
  40c547:	53                   	push   %rbx
  40c548:	48 89 f3             	mov    %rsi,%rbx
  40c54b:	48 83 ec 08          	sub    $0x8,%rsp
  40c54f:	e8 2c fe ff ff       	callq  40c380 <__sprintf_chk@plt+0x9e80>
  40c554:	48 83 c4 08          	add    $0x8,%rsp
  40c558:	48 89 da             	mov    %rbx,%rdx
  40c55b:	48 89 ee             	mov    %rbp,%rsi
  40c55e:	5b                   	pop    %rbx
  40c55f:	5d                   	pop    %rbp
  40c560:	48 89 c7             	mov    %rax,%rdi
  40c563:	e9 c8 5c ff ff       	jmpq   402230 <memcpy@plt>
  40c568:	0f 1f 84 00 00 00 00 	nopl   0x0(%rax,%rax,1)
  40c56f:	00 
  40c570:	53                   	push   %rbx
  40c571:	48 89 fb             	mov    %rdi,%rbx
  40c574:	e8 97 5a ff ff       	callq  402010 <strlen@plt>
  40c579:	48 89 df             	mov    %rbx,%rdi
  40c57c:	48 8d 70 01          	lea    0x1(%rax),%rsi
  40c580:	5b                   	pop    %rbx
  40c581:	e9 ba ff ff ff       	jmpq   40c540 <__sprintf_chk@plt+0xa040>
  40c586:	66 2e 0f 1f 84 00 00 	nopw   %cs:0x0(%rax,%rax,1)
  40c58d:	00 00 00 
  40c590:	48 83 ec 08          	sub    $0x8,%rsp
  40c594:	ba 05 00 00 00       	mov    $0x5,%edx
  40c599:	be 6f 60 41 00       	mov    $0x41606f,%esi
  40c59e:	31 ff                	xor    %edi,%edi
  40c5a0:	e8 4b 5a ff ff       	callq  401ff0 <dcgettext@plt>
  40c5a5:	8b 3d dd dd 20 00    	mov    0x20dddd(%rip),%edi        # 61a388 <fts_children+0x20a9c8>
  40c5ab:	48 89 c1             	mov    %rax,%rcx
  40c5ae:	ba dc 51 41 00       	mov    $0x4151dc,%edx
  40c5b3:	31 f6                	xor    %esi,%esi
  40c5b5:	31 c0                	xor    %eax,%eax
  40c5b7:	e8 04 5e ff ff       	callq  4023c0 <error@plt>
  40c5bc:	e8 3f 59 ff ff       	callq  401f00 <abort@plt>
  40c5c1:	66 2e 0f 1f 84 00 00 	nopw   %cs:0x0(%rax,%rax,1)
  40c5c8:	00 00 00 
  40c5cb:	0f 1f 44 00 00       	nopl   0x0(%rax,%rax,1)
  40c5d0:	48 83 ec 08          	sub    $0x8,%rsp
  40c5d4:	81 ce 00 02 00 00    	or     $0x200,%esi
  40c5da:	e8 e1 25 00 00       	callq  40ebc0 <fts_open>
  40c5df:	48 85 c0             	test   %rax,%rax
  40c5e2:	74 0c                	je     40c5f0 <__sprintf_chk@plt+0xa0f0>
  40c5e4:	48 83 c4 08          	add    $0x8,%rsp
  40c5e8:	c3                   	retq   
  40c5e9:	0f 1f 80 00 00 00 00 	nopl   0x0(%rax)
  40c5f0:	e8 1b 59 ff ff       	callq  401f10 <__errno_location@plt>
  40c5f5:	83 38 16             	cmpl   $0x16,(%rax)
  40c5f8:	74 06                	je     40c600 <__sprintf_chk@plt+0xa100>
  40c5fa:	e8 91 ff ff ff       	callq  40c590 <__sprintf_chk@plt+0xa090>
  40c5ff:	90                   	nop
  40c600:	b9 a8 60 41 00       	mov    $0x4160a8,%ecx
  40c605:	ba 29 00 00 00       	mov    $0x29,%edx
  40c60a:	be 80 60 41 00       	mov    $0x416080,%esi
  40c60f:	bf 8b 60 41 00       	mov    $0x41608b,%edi
  40c614:	e8 b7 5a ff ff       	callq  4020d0 <__assert_fail@plt>
  40c619:	0f 1f 80 00 00 00 00 	nopl   0x0(%rax)
  40c620:	8b 57 48             	mov    0x48(%rdi),%edx
  40c623:	83 e2 11             	and    $0x11,%edx
  40c626:	83 fa 10             	cmp    $0x10,%edx
  40c629:	74 1d                	je     40c648 <__sprintf_chk@plt+0xa148>
  40c62b:	31 c0                	xor    %eax,%eax
  40c62d:	83 fa 11             	cmp    $0x11,%edx
  40c630:	74 06                	je     40c638 <__sprintf_chk@plt+0xa138>
  40c632:	f3 c3                	repz retq 
  40c634:	0f 1f 40 00          	nopl   0x0(%rax)
  40c638:	48 83 7e 58 00       	cmpq   $0x0,0x58(%rsi)
  40c63d:	0f 95 c0             	setne  %al
  40c640:	c3                   	retq   
  40c641:	0f 1f 80 00 00 00 00 	nopl   0x0(%rax)
  40c648:	b8 01 00 00 00       	mov    $0x1,%eax
  40c64d:	c3                   	retq   
  40c64e:	66 90                	xchg   %ax,%ax
  40c650:	53                   	push   %rbx
  40c651:	e8 da 5f 00 00       	callq  412630 <fts_children+0x2c70>
  40c656:	85 c0                	test   %eax,%eax
  40c658:	89 c3                	mov    %eax,%ebx
  40c65a:	78 04                	js     40c660 <__sprintf_chk@plt+0xa160>
  40c65c:	89 d8                	mov    %ebx,%eax
  40c65e:	5b                   	pop    %rbx
  40c65f:	c3                   	retq   
  40c660:	e8 ab 58 ff ff       	callq  401f10 <__errno_location@plt>
  40c665:	83 38 0c             	cmpl   $0xc,(%rax)
  40c668:	75 f2                	jne    40c65c <__sprintf_chk@plt+0xa15c>
  40c66a:	e8 21 ff ff ff       	callq  40c590 <__sprintf_chk@plt+0xa090>
  40c66f:	90                   	nop
  40c670:	53                   	push   %rbx
  40c671:	e8 2a 62 00 00       	callq  4128a0 <fts_children+0x2ee0>
  40c676:	48 85 c0             	test   %rax,%rax
  40c679:	48 89 c3             	mov    %rax,%rbx
  40c67c:	74 0a                	je     40c688 <__sprintf_chk@plt+0xa188>
  40c67e:	48 89 d8             	mov    %rbx,%rax
  40c681:	5b                   	pop    %rbx
  40c682:	c3                   	retq   
  40c683:	0f 1f 44 00 00       	nopl   0x0(%rax,%rax,1)
  40c688:	e8 83 58 ff ff       	callq  401f10 <__errno_location@plt>
  40c68d:	83 38 0c             	cmpl   $0xc,(%rax)
  40c690:	75 ec                	jne    40c67e <__sprintf_chk@plt+0xa17e>
  40c692:	e8 f9 fe ff ff       	callq  40c590 <__sprintf_chk@plt+0xa090>
  40c697:	66 0f 1f 84 00 00 00 	nopw   0x0(%rax,%rax,1)
  40c69e:	00 00 
  40c6a0:	53                   	push   %rbx
  40c6a1:	e8 da 63 00 00       	callq  412a80 <fts_children+0x30c0>
  40c6a6:	48 85 c0             	test   %rax,%rax
  40c6a9:	48 89 c3             	mov    %rax,%rbx
  40c6ac:	74 0a                	je     40c6b8 <__sprintf_chk@plt+0xa1b8>
  40c6ae:	48 89 d8             	mov    %rbx,%rax
  40c6b1:	5b                   	pop    %rbx
  40c6b2:	c3                   	retq   
  40c6b3:	0f 1f 44 00 00       	nopl   0x0(%rax,%rax,1)
  40c6b8:	e8 53 58 ff ff       	callq  401f10 <__errno_location@plt>
  40c6bd:	83 38 0c             	cmpl   $0xc,(%rax)
  40c6c0:	75 ec                	jne    40c6ae <__sprintf_chk@plt+0xa1ae>
  40c6c2:	e8 c9 fe ff ff       	callq  40c590 <__sprintf_chk@plt+0xa090>
  40c6c7:	66 0f 1f 84 00 00 00 	nopw   0x0(%rax,%rax,1)
  40c6ce:	00 00 
  40c6d0:	41 57                	push   %r15
  40c6d2:	41 56                	push   %r14
  40c6d4:	41 55                	push   %r13
  40c6d6:	41 54                	push   %r12
  40c6d8:	55                   	push   %rbp
  40c6d9:	89 d5                	mov    %edx,%ebp
  40c6db:	53                   	push   %rbx
  40c6dc:	48 83 ec 28          	sub    $0x28,%rsp
  40c6e0:	83 fa 24             	cmp    $0x24,%edx
  40c6e3:	0f 87 b6 06 00 00    	ja     40cd9f <__sprintf_chk@plt+0xa89f>
  40c6e9:	48 8d 44 24 18       	lea    0x18(%rsp),%rax
  40c6ee:	48 85 f6             	test   %rsi,%rsi
  40c6f1:	48 89 f3             	mov    %rsi,%rbx
  40c6f4:	49 89 fc             	mov    %rdi,%r12
  40c6f7:	49 89 ce             	mov    %rcx,%r14
  40c6fa:	4d 89 c7             	mov    %r8,%r15
  40c6fd:	48 0f 44 d8          	cmove  %rax,%rbx
  40c701:	e8 0a 58 ff ff       	callq  401f10 <__errno_location@plt>
  40c706:	31 c9                	xor    %ecx,%ecx
  40c708:	89 ea                	mov    %ebp,%edx
  40c70a:	c7 00 00 00 00 00    	movl   $0x0,(%rax)
  40c710:	48 89 de             	mov    %rbx,%rsi
  40c713:	4c 89 e7             	mov    %r12,%rdi
  40c716:	49 89 c5             	mov    %rax,%r13
  40c719:	e8 a2 58 ff ff       	callq  401fc0 <__strtol_internal@plt>
  40c71e:	48 8b 2b             	mov    (%rbx),%rbp
  40c721:	48 89 c1             	mov    %rax,%rcx
  40c724:	4c 39 e5             	cmp    %r12,%rbp
  40c727:	0f 84 e3 00 00 00    	je     40c810 <__sprintf_chk@plt+0xa310>
  40c72d:	41 8b 55 00          	mov    0x0(%r13),%edx
  40c731:	85 d2                	test   %edx,%edx
  40c733:	75 2b                	jne    40c760 <__sprintf_chk@plt+0xa260>
  40c735:	45 31 ed             	xor    %r13d,%r13d
  40c738:	4d 85 ff             	test   %r15,%r15
  40c73b:	74 08                	je     40c745 <__sprintf_chk@plt+0xa245>
  40c73d:	0f b6 55 00          	movzbl 0x0(%rbp),%edx
  40c741:	84 d2                	test   %dl,%dl
  40c743:	75 33                	jne    40c778 <__sprintf_chk@plt+0xa278>
  40c745:	49 89 0e             	mov    %rcx,(%r14)
  40c748:	45 89 ec             	mov    %r13d,%r12d
  40c74b:	48 83 c4 28          	add    $0x28,%rsp
  40c74f:	44 89 e0             	mov    %r12d,%eax
  40c752:	5b                   	pop    %rbx
  40c753:	5d                   	pop    %rbp
  40c754:	41 5c                	pop    %r12
  40c756:	41 5d                	pop    %r13
  40c758:	41 5e                	pop    %r14
  40c75a:	41 5f                	pop    %r15
  40c75c:	c3                   	retq   
  40c75d:	0f 1f 00             	nopl   (%rax)
  40c760:	83 fa 22             	cmp    $0x22,%edx
  40c763:	41 bc 04 00 00 00    	mov    $0x4,%r12d
  40c769:	41 bd 01 00 00 00    	mov    $0x1,%r13d
  40c76f:	75 da                	jne    40c74b <__sprintf_chk@plt+0xa24b>
  40c771:	eb c5                	jmp    40c738 <__sprintf_chk@plt+0xa238>
  40c773:	0f 1f 44 00 00       	nopl   0x0(%rax,%rax,1)
  40c778:	0f be f2             	movsbl %dl,%esi
  40c77b:	4c 89 ff             	mov    %r15,%rdi
  40c77e:	48 89 4c 24 08       	mov    %rcx,0x8(%rsp)
  40c783:	89 54 24 04          	mov    %edx,0x4(%rsp)
  40c787:	e8 f4 58 ff ff       	callq  402080 <strchr@plt>
  40c78c:	48 85 c0             	test   %rax,%rax
  40c78f:	8b 54 24 04          	mov    0x4(%rsp),%edx
  40c793:	48 8b 4c 24 08       	mov    0x8(%rsp),%rcx
  40c798:	74 66                	je     40c800 <__sprintf_chk@plt+0xa300>
  40c79a:	be 30 00 00 00       	mov    $0x30,%esi
  40c79f:	4c 89 ff             	mov    %r15,%rdi
  40c7a2:	48 89 4c 24 08       	mov    %rcx,0x8(%rsp)
  40c7a7:	89 54 24 04          	mov    %edx,0x4(%rsp)
  40c7ab:	e8 d0 58 ff ff       	callq  402080 <strchr@plt>
  40c7b0:	48 85 c0             	test   %rax,%rax
  40c7b3:	8b 54 24 04          	mov    0x4(%rsp),%edx
  40c7b7:	48 8b 4c 24 08       	mov    0x8(%rsp),%rcx
  40c7bc:	74 1c                	je     40c7da <__sprintf_chk@plt+0xa2da>
  40c7be:	0f b6 45 01          	movzbl 0x1(%rbp),%eax
  40c7c2:	3c 44                	cmp    $0x44,%al
  40c7c4:	0f 84 8e 00 00 00    	je     40c858 <__sprintf_chk@plt+0xa358>
  40c7ca:	3c 69                	cmp    $0x69,%al
  40c7cc:	0f 84 9e 04 00 00    	je     40cc70 <__sprintf_chk@plt+0xa770>
  40c7d2:	3c 42                	cmp    $0x42,%al
  40c7d4:	0f 84 7e 00 00 00    	je     40c858 <__sprintf_chk@plt+0xa358>
  40c7da:	bf 01 00 00 00       	mov    $0x1,%edi
  40c7df:	b8 00 04 00 00       	mov    $0x400,%eax
  40c7e4:	83 ea 42             	sub    $0x42,%edx
  40c7e7:	80 fa 35             	cmp    $0x35,%dl
  40c7ea:	77 14                	ja     40c800 <__sprintf_chk@plt+0xa300>
  40c7ec:	0f b6 d2             	movzbl %dl,%edx
  40c7ef:	ff 24 d5 e8 60 41 00 	jmpq   *0x4160e8(,%rdx,8)
  40c7f6:	66 2e 0f 1f 84 00 00 	nopw   %cs:0x0(%rax,%rax,1)
  40c7fd:	00 00 00 
  40c800:	41 83 cd 02          	or     $0x2,%r13d
  40c804:	49 89 0e             	mov    %rcx,(%r14)
  40c807:	45 89 ec             	mov    %r13d,%r12d
  40c80a:	e9 3c ff ff ff       	jmpq   40c74b <__sprintf_chk@plt+0xa24b>
  40c80f:	90                   	nop
  40c810:	4d 85 ff             	test   %r15,%r15
  40c813:	41 bc 04 00 00 00    	mov    $0x4,%r12d
  40c819:	0f 84 2c ff ff ff    	je     40c74b <__sprintf_chk@plt+0xa24b>
  40c81f:	0f b6 55 00          	movzbl 0x0(%rbp),%edx
  40c823:	84 d2                	test   %dl,%dl
  40c825:	0f 84 20 ff ff ff    	je     40c74b <__sprintf_chk@plt+0xa24b>
  40c82b:	0f be f2             	movsbl %dl,%esi
  40c82e:	4c 89 ff             	mov    %r15,%rdi
  40c831:	89 54 24 04          	mov    %edx,0x4(%rsp)
  40c835:	45 31 ed             	xor    %r13d,%r13d
  40c838:	e8 43 58 ff ff       	callq  402080 <strchr@plt>
  40c83d:	48 85 c0             	test   %rax,%rax
  40c840:	b9 01 00 00 00       	mov    $0x1,%ecx
  40c845:	8b 54 24 04          	mov    0x4(%rsp),%edx
  40c849:	0f 85 4b ff ff ff    	jne    40c79a <__sprintf_chk@plt+0xa29a>
  40c84f:	e9 f7 fe ff ff       	jmpq   40c74b <__sprintf_chk@plt+0xa24b>
  40c854:	0f 1f 40 00          	nopl   0x0(%rax)
  40c858:	bf 02 00 00 00       	mov    $0x2,%edi
  40c85d:	b8 e8 03 00 00       	mov    $0x3e8,%eax
  40c862:	e9 7d ff ff ff       	jmpq   40c7e4 <__sprintf_chk@plt+0xa2e4>
  40c867:	66 0f 1f 84 00 00 00 	nopw   0x0(%rax,%rax,1)
  40c86e:	00 00 
  40c870:	31 f6                	xor    %esi,%esi
  40c872:	66 0f 1f 44 00 00    	nopw   0x0(%rax,%rax,1)
  40c878:	41 09 f5             	or     %esi,%r13d
  40c87b:	48 63 ff             	movslq %edi,%rdi
  40c87e:	48 01 fd             	add    %rdi,%rbp
  40c881:	44 89 e8             	mov    %r13d,%eax
  40c884:	83 c8 02             	or     $0x2,%eax
  40c887:	48 89 2b             	mov    %rbp,(%rbx)
  40c88a:	80 7d 00 00          	cmpb   $0x0,0x0(%rbp)
  40c88e:	44 0f 45 e8          	cmovne %eax,%r13d
  40c892:	e9 ae fe ff ff       	jmpq   40c745 <__sprintf_chk@plt+0xa245>
  40c897:	66 0f 1f 84 00 00 00 	nopw   0x0(%rax,%rax,1)
  40c89e:	00 00 
  40c8a0:	48 b8 00 00 00 00 00 	movabs $0xffc0000000000000,%rax
  40c8a7:	00 c0 ff 
  40c8aa:	48 39 c1             	cmp    %rax,%rcx
  40c8ad:	0f 8c 25 04 00 00    	jl     40ccd8 <__sprintf_chk@plt+0xa7d8>
  40c8b3:	48 b8 ff ff ff ff ff 	movabs $0x3fffffffffffff,%rax
  40c8ba:	ff 3f 00 
  40c8bd:	48 39 c1             	cmp    %rax,%rcx
  40c8c0:	0f 8f 86 04 00 00    	jg     40cd4c <__sprintf_chk@plt+0xa84c>
  40c8c6:	48 c1 e1 09          	shl    $0x9,%rcx
  40c8ca:	31 f6                	xor    %esi,%esi
  40c8cc:	eb aa                	jmp    40c878 <__sprintf_chk@plt+0xa378>
  40c8ce:	66 90                	xchg   %ax,%ax
  40c8d0:	4c 63 c8             	movslq %eax,%r9
  40c8d3:	48 b8 00 00 00 00 00 	movabs $0x8000000000000000,%rax
  40c8da:	00 00 80 
  40c8dd:	41 b8 07 00 00 00    	mov    $0x7,%r8d
  40c8e3:	48 99                	cqto   
  40c8e5:	31 f6                	xor    %esi,%esi
  40c8e7:	49 ba ff ff ff ff ff 	movabs $0x7fffffffffffffff,%r10
  40c8ee:	ff ff 7f 
  40c8f1:	49 f7 f9             	idiv   %r9
  40c8f4:	49 89 c3             	mov    %rax,%r11
  40c8f7:	eb 2a                	jmp    40c923 <__sprintf_chk@plt+0xa423>
  40c8f9:	0f 1f 80 00 00 00 00 	nopl   0x0(%rax)
  40c900:	4c 89 d0             	mov    %r10,%rax
  40c903:	48 99                	cqto   
  40c905:	49 f7 f9             	idiv   %r9
  40c908:	48 39 c8             	cmp    %rcx,%rax
  40c90b:	0f 8c af 03 00 00    	jl     40ccc0 <__sprintf_chk@plt+0xa7c0>
  40c911:	49 0f af c9          	imul   %r9,%rcx
  40c915:	31 d2                	xor    %edx,%edx
  40c917:	09 d6                	or     %edx,%esi
  40c919:	41 83 e8 01          	sub    $0x1,%r8d
  40c91d:	0f 84 55 ff ff ff    	je     40c878 <__sprintf_chk@plt+0xa378>
  40c923:	49 39 cb             	cmp    %rcx,%r11
  40c926:	7e d8                	jle    40c900 <__sprintf_chk@plt+0xa400>
  40c928:	48 b9 00 00 00 00 00 	movabs $0x8000000000000000,%rcx
  40c92f:	00 00 80 
  40c932:	ba 01 00 00 00       	mov    $0x1,%edx
  40c937:	eb de                	jmp    40c917 <__sprintf_chk@plt+0xa417>
  40c939:	0f 1f 80 00 00 00 00 	nopl   0x0(%rax)
  40c940:	4c 63 c8             	movslq %eax,%r9
  40c943:	48 b8 00 00 00 00 00 	movabs $0x8000000000000000,%rax
  40c94a:	00 00 80 
  40c94d:	41 b8 08 00 00 00    	mov    $0x8,%r8d
  40c953:	48 99                	cqto   
  40c955:	31 f6                	xor    %esi,%esi
  40c957:	49 bb ff ff ff ff ff 	movabs $0x7fffffffffffffff,%r11
  40c95e:	ff ff 7f 
  40c961:	49 f7 f9             	idiv   %r9
  40c964:	49 89 c2             	mov    %rax,%r10
  40c967:	eb 2a                	jmp    40c993 <__sprintf_chk@plt+0xa493>
  40c969:	0f 1f 80 00 00 00 00 	nopl   0x0(%rax)
  40c970:	4c 89 d8             	mov    %r11,%rax
  40c973:	48 99                	cqto   
  40c975:	49 f7 f9             	idiv   %r9
  40c978:	48 39 c8             	cmp    %rcx,%rax
  40c97b:	0f 8c 0f 03 00 00    	jl     40cc90 <__sprintf_chk@plt+0xa790>
  40c981:	49 0f af c9          	imul   %r9,%rcx
  40c985:	31 d2                	xor    %edx,%edx
  40c987:	09 d6                	or     %edx,%esi
  40c989:	41 83 e8 01          	sub    $0x1,%r8d
  40c98d:	0f 84 e5 fe ff ff    	je     40c878 <__sprintf_chk@plt+0xa378>
  40c993:	49 39 ca             	cmp    %rcx,%r10
  40c996:	7e d8                	jle    40c970 <__sprintf_chk@plt+0xa470>
  40c998:	48 b9 00 00 00 00 00 	movabs $0x8000000000000000,%rcx
  40c99f:	00 00 80 
  40c9a2:	ba 01 00 00 00       	mov    $0x1,%edx
  40c9a7:	eb de                	jmp    40c987 <__sprintf_chk@plt+0xa487>
  40c9a9:	0f 1f 80 00 00 00 00 	nopl   0x0(%rax)
  40c9b0:	4c 63 c8             	movslq %eax,%r9
  40c9b3:	48 b8 00 00 00 00 00 	movabs $0x8000000000000000,%rax
  40c9ba:	00 00 80 
  40c9bd:	41 b8 04 00 00 00    	mov    $0x4,%r8d
  40c9c3:	48 99                	cqto   
  40c9c5:	31 f6                	xor    %esi,%esi
  40c9c7:	49 bb ff ff ff ff ff 	movabs $0x7fffffffffffffff,%r11
  40c9ce:	ff ff 7f 
  40c9d1:	49 f7 f9             	idiv   %r9
  40c9d4:	49 89 c2             	mov    %rax,%r10
  40c9d7:	49 39 ca             	cmp    %rcx,%r10
  40c9da:	0f 8f c8 02 00 00    	jg     40cca8 <__sprintf_chk@plt+0xa7a8>
  40c9e0:	4c 89 d8             	mov    %r11,%rax
  40c9e3:	48 99                	cqto   
  40c9e5:	49 f7 f9             	idiv   %r9
  40c9e8:	48 39 c8             	cmp    %rcx,%rax
  40c9eb:	0f 8c 47 03 00 00    	jl     40cd38 <__sprintf_chk@plt+0xa838>
  40c9f1:	49 0f af c9          	imul   %r9,%rcx
  40c9f5:	31 d2                	xor    %edx,%edx
  40c9f7:	09 d6                	or     %edx,%esi
  40c9f9:	41 83 e8 01          	sub    $0x1,%r8d
  40c9fd:	75 d8                	jne    40c9d7 <__sprintf_chk@plt+0xa4d7>
  40c9ff:	e9 74 fe ff ff       	jmpq   40c878 <__sprintf_chk@plt+0xa378>
  40ca04:	0f 1f 40 00          	nopl   0x0(%rax)
  40ca08:	4c 63 c8             	movslq %eax,%r9
  40ca0b:	48 b8 00 00 00 00 00 	movabs $0x8000000000000000,%rax
  40ca12:	00 00 80 
  40ca15:	41 b8 05 00 00 00    	mov    $0x5,%r8d
  40ca1b:	48 99                	cqto   
  40ca1d:	31 f6                	xor    %esi,%esi
  40ca1f:	49 ba ff ff ff ff ff 	movabs $0x7fffffffffffffff,%r10
  40ca26:	ff ff 7f 
  40ca29:	49 f7 f9             	idiv   %r9
  40ca2c:	49 89 c3             	mov    %rax,%r11
  40ca2f:	eb 2a                	jmp    40ca5b <__sprintf_chk@plt+0xa55b>
  40ca31:	0f 1f 80 00 00 00 00 	nopl   0x0(%rax)
  40ca38:	4c 89 d0             	mov    %r10,%rax
  40ca3b:	48 99                	cqto   
  40ca3d:	49 f7 f9             	idiv   %r9
  40ca40:	48 39 c8             	cmp    %rcx,%rax
  40ca43:	0f 8c d7 02 00 00    	jl     40cd20 <__sprintf_chk@plt+0xa820>
  40ca49:	49 0f af c9          	imul   %r9,%rcx
  40ca4d:	31 d2                	xor    %edx,%edx
  40ca4f:	09 d6                	or     %edx,%esi
  40ca51:	41 83 e8 01          	sub    $0x1,%r8d
  40ca55:	0f 84 1d fe ff ff    	je     40c878 <__sprintf_chk@plt+0xa378>
  40ca5b:	49 39 cb             	cmp    %rcx,%r11
  40ca5e:	7e d8                	jle    40ca38 <__sprintf_chk@plt+0xa538>
  40ca60:	48 b9 00 00 00 00 00 	movabs $0x8000000000000000,%rcx
  40ca67:	00 00 80 
  40ca6a:	ba 01 00 00 00       	mov    $0x1,%edx
  40ca6f:	eb de                	jmp    40ca4f <__sprintf_chk@plt+0xa54f>
  40ca71:	0f 1f 80 00 00 00 00 	nopl   0x0(%rax)
  40ca78:	48 b8 00 00 00 00 00 	movabs $0xc000000000000000,%rax
  40ca7f:	00 00 c0 
  40ca82:	48 39 c1             	cmp    %rax,%rcx
  40ca85:	0f 8c 4d 02 00 00    	jl     40ccd8 <__sprintf_chk@plt+0xa7d8>
  40ca8b:	48 b8 ff ff ff ff ff 	movabs $0x3fffffffffffffff,%rax
  40ca92:	ff ff 3f 
  40ca95:	48 39 c1             	cmp    %rax,%rcx
  40ca98:	0f 8f ae 02 00 00    	jg     40cd4c <__sprintf_chk@plt+0xa84c>
  40ca9e:	48 01 c9             	add    %rcx,%rcx
  40caa1:	31 f6                	xor    %esi,%esi
  40caa3:	e9 d0 fd ff ff       	jmpq   40c878 <__sprintf_chk@plt+0xa378>
  40caa8:	0f 1f 84 00 00 00 00 	nopl   0x0(%rax,%rax,1)
  40caaf:	00 
  40cab0:	48 b8 00 00 00 00 00 	movabs $0xffe0000000000000,%rax
  40cab7:	00 e0 ff 
  40caba:	48 39 c1             	cmp    %rax,%rcx
  40cabd:	0f 8c 15 02 00 00    	jl     40ccd8 <__sprintf_chk@plt+0xa7d8>
  40cac3:	48 b8 ff ff ff ff ff 	movabs $0x1fffffffffffff,%rax
  40caca:	ff 1f 00 
  40cacd:	48 39 c1             	cmp    %rax,%rcx
  40cad0:	0f 8f 76 02 00 00    	jg     40cd4c <__sprintf_chk@plt+0xa84c>
  40cad6:	48 c1 e1 0a          	shl    $0xa,%rcx
  40cada:	31 f6                	xor    %esi,%esi
  40cadc:	e9 97 fd ff ff       	jmpq   40c878 <__sprintf_chk@plt+0xa378>
  40cae1:	0f 1f 80 00 00 00 00 	nopl   0x0(%rax)
  40cae8:	49 b9 00 00 00 00 00 	movabs $0x8000000000000000,%r9
  40caef:	00 00 80 
  40caf2:	4c 63 c0             	movslq %eax,%r8
  40caf5:	4c 89 c8             	mov    %r9,%rax
  40caf8:	48 99                	cqto   
  40cafa:	49 f7 f8             	idiv   %r8
  40cafd:	48 39 c8             	cmp    %rcx,%rax
  40cb00:	48 89 c6             	mov    %rax,%rsi
  40cb03:	0f 8f 78 02 00 00    	jg     40cd81 <__sprintf_chk@plt+0xa881>
  40cb09:	49 ba ff ff ff ff ff 	movabs $0x7fffffffffffffff,%r10
  40cb10:	ff ff 7f 
  40cb13:	4c 89 d0             	mov    %r10,%rax
  40cb16:	48 99                	cqto   
  40cb18:	49 f7 f8             	idiv   %r8
  40cb1b:	48 39 c8             	cmp    %rcx,%rax
  40cb1e:	0f 8c 71 02 00 00    	jl     40cd95 <__sprintf_chk@plt+0xa895>
  40cb24:	49 0f af c8          	imul   %r8,%rcx
  40cb28:	48 39 ce             	cmp    %rcx,%rsi
  40cb2b:	49 89 ca             	mov    %rcx,%r10
  40cb2e:	be 00 00 00 00       	mov    $0x0,%esi
  40cb33:	0f 8f 7f 02 00 00    	jg     40cdb8 <__sprintf_chk@plt+0xa8b8>
  40cb39:	4c 39 d0             	cmp    %r10,%rax
  40cb3c:	48 b9 ff ff ff ff ff 	movabs $0x7fffffffffffffff,%rcx
  40cb43:	ff ff 7f 
  40cb46:	ba 01 00 00 00       	mov    $0x1,%edx
  40cb4b:	7c 09                	jl     40cb56 <__sprintf_chk@plt+0xa656>
  40cb4d:	4c 89 d1             	mov    %r10,%rcx
  40cb50:	30 d2                	xor    %dl,%dl
  40cb52:	49 0f af c8          	imul   %r8,%rcx
  40cb56:	09 d6                	or     %edx,%esi
  40cb58:	e9 1b fd ff ff       	jmpq   40c878 <__sprintf_chk@plt+0xa378>
  40cb5d:	0f 1f 00             	nopl   (%rax)
  40cb60:	49 b8 00 00 00 00 00 	movabs $0x8000000000000000,%r8
  40cb67:	00 00 80 
  40cb6a:	48 63 f0             	movslq %eax,%rsi
  40cb6d:	4c 89 c0             	mov    %r8,%rax
  40cb70:	48 99                	cqto   
  40cb72:	48 f7 fe             	idiv   %rsi
  40cb75:	48 39 c1             	cmp    %rax,%rcx
  40cb78:	0f 8c e2 01 00 00    	jl     40cd60 <__sprintf_chk@plt+0xa860>
  40cb7e:	49 b8 ff ff ff ff ff 	movabs $0x7fffffffffffffff,%r8
  40cb85:	ff ff 7f 
  40cb88:	4c 89 c0             	mov    %r8,%rax
  40cb8b:	48 99                	cqto   
  40cb8d:	48 f7 fe             	idiv   %rsi
  40cb90:	48 39 c1             	cmp    %rax,%rcx
  40cb93:	0f 8f c7 01 00 00    	jg     40cd60 <__sprintf_chk@plt+0xa860>
  40cb99:	48 0f af ce          	imul   %rsi,%rcx
  40cb9d:	31 f6                	xor    %esi,%esi
  40cb9f:	e9 d4 fc ff ff       	jmpq   40c878 <__sprintf_chk@plt+0xa378>
  40cba4:	0f 1f 40 00          	nopl   0x0(%rax)
  40cba8:	4c 63 c8             	movslq %eax,%r9
  40cbab:	48 b8 00 00 00 00 00 	movabs $0x8000000000000000,%rax
  40cbb2:	00 00 80 
  40cbb5:	41 b8 03 00 00 00    	mov    $0x3,%r8d
  40cbbb:	48 99                	cqto   
  40cbbd:	31 f6                	xor    %esi,%esi
  40cbbf:	49 ba ff ff ff ff ff 	movabs $0x7fffffffffffffff,%r10
  40cbc6:	ff ff 7f 
  40cbc9:	49 f7 f9             	idiv   %r9
  40cbcc:	49 89 c3             	mov    %rax,%r11
  40cbcf:	49 39 cb             	cmp    %rcx,%r11
  40cbd2:	0f 8f 18 01 00 00    	jg     40ccf0 <__sprintf_chk@plt+0xa7f0>
  40cbd8:	4c 89 d0             	mov    %r10,%rax
  40cbdb:	48 99                	cqto   
  40cbdd:	49 f7 f9             	idiv   %r9
  40cbe0:	48 39 c8             	cmp    %rcx,%rax
  40cbe3:	0f 8c 84 01 00 00    	jl     40cd6d <__sprintf_chk@plt+0xa86d>
  40cbe9:	49 0f af c9          	imul   %r9,%rcx
  40cbed:	31 d2                	xor    %edx,%edx
  40cbef:	09 d6                	or     %edx,%esi
  40cbf1:	41 83 e8 01          	sub    $0x1,%r8d
  40cbf5:	75 d8                	jne    40cbcf <__sprintf_chk@plt+0xa6cf>
  40cbf7:	e9 7c fc ff ff       	jmpq   40c878 <__sprintf_chk@plt+0xa378>
  40cbfc:	0f 1f 40 00          	nopl   0x0(%rax)
  40cc00:	4c 63 c8             	movslq %eax,%r9
  40cc03:	48 b8 00 00 00 00 00 	movabs $0x8000000000000000,%rax
  40cc0a:	00 00 80 
  40cc0d:	41 b8 06 00 00 00    	mov    $0x6,%r8d
  40cc13:	48 99                	cqto   
  40cc15:	31 f6                	xor    %esi,%esi
  40cc17:	49 bb ff ff ff ff ff 	movabs $0x7fffffffffffffff,%r11
  40cc1e:	ff ff 7f 
  40cc21:	49 f7 f9             	idiv   %r9
  40cc24:	49 89 c2             	mov    %rax,%r10
  40cc27:	eb 2a                	jmp    40cc53 <__sprintf_chk@plt+0xa753>
  40cc29:	0f 1f 80 00 00 00 00 	nopl   0x0(%rax)
  40cc30:	4c 89 d8             	mov    %r11,%rax
  40cc33:	48 99                	cqto   
  40cc35:	49 f7 f9             	idiv   %r9
  40cc38:	48 39 c8             	cmp    %rcx,%rax
  40cc3b:	0f 8c c7 00 00 00    	jl     40cd08 <__sprintf_chk@plt+0xa808>
  40cc41:	49 0f af c9          	imul   %r9,%rcx
  40cc45:	31 d2                	xor    %edx,%edx
  40cc47:	09 d6                	or     %edx,%esi
  40cc49:	41 83 e8 01          	sub    $0x1,%r8d
  40cc4d:	0f 84 25 fc ff ff    	je     40c878 <__sprintf_chk@plt+0xa378>
  40cc53:	49 39 ca             	cmp    %rcx,%r10
  40cc56:	7e d8                	jle    40cc30 <__sprintf_chk@plt+0xa730>
  40cc58:	48 b9 00 00 00 00 00 	movabs $0x8000000000000000,%rcx
  40cc5f:	00 00 80 
  40cc62:	ba 01 00 00 00       	mov    $0x1,%edx
  40cc67:	eb de                	jmp    40cc47 <__sprintf_chk@plt+0xa747>
  40cc69:	0f 1f 80 00 00 00 00 	nopl   0x0(%rax)
  40cc70:	31 ff                	xor    %edi,%edi
  40cc72:	80 7d 02 42          	cmpb   $0x42,0x2(%rbp)
  40cc76:	b8 00 04 00 00       	mov    $0x400,%eax
  40cc7b:	40 0f 94 c7          	sete   %dil
  40cc7f:	8d 7c 3f 01          	lea    0x1(%rdi,%rdi,1),%edi
  40cc83:	e9 5c fb ff ff       	jmpq   40c7e4 <__sprintf_chk@plt+0xa2e4>
  40cc88:	0f 1f 84 00 00 00 00 	nopl   0x0(%rax,%rax,1)
  40cc8f:	00 
  40cc90:	48 b9 ff ff ff ff ff 	movabs $0x7fffffffffffffff,%rcx
  40cc97:	ff ff 7f 
  40cc9a:	ba 01 00 00 00       	mov    $0x1,%edx
  40cc9f:	e9 e3 fc ff ff       	jmpq   40c987 <__sprintf_chk@plt+0xa487>
  40cca4:	0f 1f 40 00          	nopl   0x0(%rax)
  40cca8:	48 b9 00 00 00 00 00 	movabs $0x8000000000000000,%rcx
  40ccaf:	00 00 80 
  40ccb2:	ba 01 00 00 00       	mov    $0x1,%edx
  40ccb7:	e9 3b fd ff ff       	jmpq   40c9f7 <__sprintf_chk@plt+0xa4f7>
  40ccbc:	0f 1f 40 00          	nopl   0x0(%rax)
  40ccc0:	48 b9 ff ff ff ff ff 	movabs $0x7fffffffffffffff,%rcx
  40ccc7:	ff ff 7f 
  40ccca:	ba 01 00 00 00       	mov    $0x1,%edx
  40cccf:	e9 43 fc ff ff       	jmpq   40c917 <__sprintf_chk@plt+0xa417>
  40ccd4:	0f 1f 40 00          	nopl   0x0(%rax)
  40ccd8:	48 b9 00 00 00 00 00 	movabs $0x8000000000000000,%rcx
  40ccdf:	00 00 80 
  40cce2:	be 01 00 00 00       	mov    $0x1,%esi
  40cce7:	e9 8c fb ff ff       	jmpq   40c878 <__sprintf_chk@plt+0xa378>
  40ccec:	0f 1f 40 00          	nopl   0x0(%rax)
  40ccf0:	48 b9 00 00 00 00 00 	movabs $0x8000000000000000,%rcx
  40ccf7:	00 00 80 
  40ccfa:	ba 01 00 00 00       	mov    $0x1,%edx
  40ccff:	e9 eb fe ff ff       	jmpq   40cbef <__sprintf_chk@plt+0xa6ef>
  40cd04:	0f 1f 40 00          	nopl   0x0(%rax)
  40cd08:	48 b9 ff ff ff ff ff 	movabs $0x7fffffffffffffff,%rcx
  40cd0f:	ff ff 7f 
  40cd12:	ba 01 00 00 00       	mov    $0x1,%edx
  40cd17:	e9 2b ff ff ff       	jmpq   40cc47 <__sprintf_chk@plt+0xa747>
  40cd1c:	0f 1f 40 00          	nopl   0x0(%rax)
  40cd20:	48 b9 ff ff ff ff ff 	movabs $0x7fffffffffffffff,%rcx
  40cd27:	ff ff 7f 
  40cd2a:	ba 01 00 00 00       	mov    $0x1,%edx
  40cd2f:	e9 1b fd ff ff       	jmpq   40ca4f <__sprintf_chk@plt+0xa54f>
  40cd34:	0f 1f 40 00          	nopl   0x0(%rax)
  40cd38:	48 b9 ff ff ff ff ff 	movabs $0x7fffffffffffffff,%rcx
  40cd3f:	ff ff 7f 
  40cd42:	ba 01 00 00 00       	mov    $0x1,%edx
  40cd47:	e9 ab fc ff ff       	jmpq   40c9f7 <__sprintf_chk@plt+0xa4f7>
  40cd4c:	48 b9 ff ff ff ff ff 	movabs $0x7fffffffffffffff,%rcx
  40cd53:	ff ff 7f 
  40cd56:	be 01 00 00 00       	mov    $0x1,%esi
  40cd5b:	e9 18 fb ff ff       	jmpq   40c878 <__sprintf_chk@plt+0xa378>
  40cd60:	4c 89 c1             	mov    %r8,%rcx
  40cd63:	be 01 00 00 00       	mov    $0x1,%esi
  40cd68:	e9 0b fb ff ff       	jmpq   40c878 <__sprintf_chk@plt+0xa378>
  40cd6d:	48 b9 ff ff ff ff ff 	movabs $0x7fffffffffffffff,%rcx
  40cd74:	ff ff 7f 
  40cd77:	ba 01 00 00 00       	mov    $0x1,%edx
  40cd7c:	e9 6e fe ff ff       	jmpq   40cbef <__sprintf_chk@plt+0xa6ef>
  40cd81:	be 01 00 00 00       	mov    $0x1,%esi
  40cd86:	ba 01 00 00 00       	mov    $0x1,%edx
  40cd8b:	4c 89 c9             	mov    %r9,%rcx
  40cd8e:	09 d6                	or     %edx,%esi
  40cd90:	e9 e3 fa ff ff       	jmpq   40c878 <__sprintf_chk@plt+0xa378>
  40cd95:	be 01 00 00 00       	mov    $0x1,%esi
  40cd9a:	e9 9a fd ff ff       	jmpq   40cb39 <__sprintf_chk@plt+0xa639>
  40cd9f:	b9 98 62 41 00       	mov    $0x416298,%ecx
  40cda4:	ba 60 00 00 00       	mov    $0x60,%edx
  40cda9:	be b2 60 41 00       	mov    $0x4160b2,%esi
  40cdae:	bf c0 60 41 00       	mov    $0x4160c0,%edi
  40cdb3:	e8 18 53 ff ff       	callq  4020d0 <__assert_fail@plt>
  40cdb8:	ba 01 00 00 00       	mov    $0x1,%edx
  40cdbd:	4c 89 c9             	mov    %r9,%rcx
  40cdc0:	09 d6                	or     %edx,%esi
  40cdc2:	e9 b1 fa ff ff       	jmpq   40c878 <__sprintf_chk@plt+0xa378>
  40cdc7:	66 0f 1f 84 00 00 00 	nopw   0x0(%rax,%rax,1)
  40cdce:	00 00 
  40cdd0:	41 57                	push   %r15
  40cdd2:	41 56                	push   %r14
  40cdd4:	41 89 d6             	mov    %edx,%r14d
  40cdd7:	41 55                	push   %r13
  40cdd9:	41 54                	push   %r12
  40cddb:	55                   	push   %rbp
  40cddc:	53                   	push   %rbx
  40cddd:	48 83 ec 28          	sub    $0x28,%rsp
  40cde1:	83 fa 24             	cmp    $0x24,%edx
  40cde4:	0f 87 06 04 00 00    	ja     40d1f0 <__sprintf_chk@plt+0xacf0>
  40cdea:	48 8d 44 24 18       	lea    0x18(%rsp),%rax
  40cdef:	48 89 fd             	mov    %rdi,%rbp
  40cdf2:	49 89 f7             	mov    %rsi,%r15
  40cdf5:	48 85 f6             	test   %rsi,%rsi
  40cdf8:	49 89 cd             	mov    %rcx,%r13
  40cdfb:	4d 89 c4             	mov    %r8,%r12
  40cdfe:	4c 0f 44 f8          	cmove  %rax,%r15
  40ce02:	0f b6 1f             	movzbl (%rdi),%ebx
  40ce05:	e8 d6 56 ff ff       	callq  4024e0 <__ctype_b_loc@plt>
  40ce0a:	48 8b 10             	mov    (%rax),%rdx
  40ce0d:	48 89 e8             	mov    %rbp,%rax
  40ce10:	eb 0d                	jmp    40ce1f <__sprintf_chk@plt+0xa91f>
  40ce12:	66 0f 1f 44 00 00    	nopw   0x0(%rax,%rax,1)
  40ce18:	48 83 c0 01          	add    $0x1,%rax
  40ce1c:	0f b6 18             	movzbl (%rax),%ebx
  40ce1f:	44 0f b6 cb          	movzbl %bl,%r9d
  40ce23:	42 f6 44 4a 01 20    	testb  $0x20,0x1(%rdx,%r9,2)
  40ce29:	75 ed                	jne    40ce18 <__sprintf_chk@plt+0xa918>
  40ce2b:	80 fb 2d             	cmp    $0x2d,%bl
  40ce2e:	75 18                	jne    40ce48 <__sprintf_chk@plt+0xa948>
  40ce30:	b8 04 00 00 00       	mov    $0x4,%eax
  40ce35:	48 83 c4 28          	add    $0x28,%rsp
  40ce39:	5b                   	pop    %rbx
  40ce3a:	5d                   	pop    %rbp
  40ce3b:	41 5c                	pop    %r12
  40ce3d:	41 5d                	pop    %r13
  40ce3f:	41 5e                	pop    %r14
  40ce41:	41 5f                	pop    %r15
  40ce43:	c3                   	retq   
  40ce44:	0f 1f 40 00          	nopl   0x0(%rax)
  40ce48:	e8 c3 50 ff ff       	callq  401f10 <__errno_location@plt>
  40ce4d:	44 89 f2             	mov    %r14d,%edx
  40ce50:	c7 00 00 00 00 00    	movl   $0x0,(%rax)
  40ce56:	4c 89 fe             	mov    %r15,%rsi
  40ce59:	48 89 ef             	mov    %rbp,%rdi
  40ce5c:	48 89 44 24 08       	mov    %rax,0x8(%rsp)
  40ce61:	e8 ba 55 ff ff       	callq  402420 <strtoul@plt>
  40ce66:	4d 8b 37             	mov    (%r15),%r14
  40ce69:	48 89 c3             	mov    %rax,%rbx
  40ce6c:	48 8b 4c 24 08       	mov    0x8(%rsp),%rcx
  40ce71:	49 39 ee             	cmp    %rbp,%r14
  40ce74:	0f 84 ad 00 00 00    	je     40cf27 <__sprintf_chk@plt+0xaa27>
  40ce7a:	8b 01                	mov    (%rcx),%eax
  40ce7c:	85 c0                	test   %eax,%eax
  40ce7e:	75 28                	jne    40cea8 <__sprintf_chk@plt+0xa9a8>
  40ce80:	31 ed                	xor    %ebp,%ebp
  40ce82:	4d 85 e4             	test   %r12,%r12
  40ce85:	74 08                	je     40ce8f <__sprintf_chk@plt+0xa98f>
  40ce87:	41 0f b6 16          	movzbl (%r14),%edx
  40ce8b:	84 d2                	test   %dl,%dl
  40ce8d:	75 29                	jne    40ceb8 <__sprintf_chk@plt+0xa9b8>
  40ce8f:	49 89 5d 00          	mov    %rbx,0x0(%r13)
  40ce93:	48 83 c4 28          	add    $0x28,%rsp
  40ce97:	89 e8                	mov    %ebp,%eax
  40ce99:	5b                   	pop    %rbx
  40ce9a:	5d                   	pop    %rbp
  40ce9b:	41 5c                	pop    %r12
  40ce9d:	41 5d                	pop    %r13
  40ce9f:	41 5e                	pop    %r14
  40cea1:	41 5f                	pop    %r15
  40cea3:	c3                   	retq   
  40cea4:	0f 1f 40 00          	nopl   0x0(%rax)
  40cea8:	83 f8 22             	cmp    $0x22,%eax
  40ceab:	bd 01 00 00 00       	mov    $0x1,%ebp
  40ceb0:	0f 85 7a ff ff ff    	jne    40ce30 <__sprintf_chk@plt+0xa930>
  40ceb6:	eb ca                	jmp    40ce82 <__sprintf_chk@plt+0xa982>
  40ceb8:	0f be f2             	movsbl %dl,%esi
  40cebb:	4c 89 e7             	mov    %r12,%rdi
  40cebe:	89 54 24 08          	mov    %edx,0x8(%rsp)
  40cec2:	e8 b9 51 ff ff       	callq  402080 <strchr@plt>
  40cec7:	48 85 c0             	test   %rax,%rax
  40ceca:	8b 54 24 08          	mov    0x8(%rsp),%edx
  40cece:	0f 84 94 00 00 00    	je     40cf68 <__sprintf_chk@plt+0xaa68>
  40ced4:	be 30 00 00 00       	mov    $0x30,%esi
  40ced9:	4c 89 e7             	mov    %r12,%rdi
  40cedc:	89 54 24 08          	mov    %edx,0x8(%rsp)
  40cee0:	e8 9b 51 ff ff       	callq  402080 <strchr@plt>
  40cee5:	48 85 c0             	test   %rax,%rax
  40cee8:	8b 54 24 08          	mov    0x8(%rsp),%edx
  40ceec:	74 1d                	je     40cf0b <__sprintf_chk@plt+0xaa0b>
  40ceee:	41 0f b6 46 01       	movzbl 0x1(%r14),%eax
  40cef3:	3c 44                	cmp    $0x44,%al
  40cef5:	0f 84 a7 02 00 00    	je     40d1a2 <__sprintf_chk@plt+0xaca2>
  40cefb:	3c 69                	cmp    $0x69,%al
  40cefd:	0f 84 87 02 00 00    	je     40d18a <__sprintf_chk@plt+0xac8a>
  40cf03:	3c 42                	cmp    $0x42,%al
  40cf05:	0f 84 97 02 00 00    	je     40d1a2 <__sprintf_chk@plt+0xaca2>
  40cf0b:	b9 01 00 00 00       	mov    $0x1,%ecx
  40cf10:	b8 00 04 00 00       	mov    $0x400,%eax
  40cf15:	83 ea 42             	sub    $0x42,%edx
  40cf18:	80 fa 35             	cmp    $0x35,%dl
  40cf1b:	77 4b                	ja     40cf68 <__sprintf_chk@plt+0xaa68>
  40cf1d:	0f b6 d2             	movzbl %dl,%edx
  40cf20:	ff 24 d5 a8 62 41 00 	jmpq   *0x4162a8(,%rdx,8)
  40cf27:	4d 85 e4             	test   %r12,%r12
  40cf2a:	0f 84 00 ff ff ff    	je     40ce30 <__sprintf_chk@plt+0xa930>
  40cf30:	0f b6 55 00          	movzbl 0x0(%rbp),%edx
  40cf34:	84 d2                	test   %dl,%dl
  40cf36:	0f 84 f4 fe ff ff    	je     40ce30 <__sprintf_chk@plt+0xa930>
  40cf3c:	0f be f2             	movsbl %dl,%esi
  40cf3f:	4c 89 e7             	mov    %r12,%rdi
  40cf42:	89 54 24 08          	mov    %edx,0x8(%rsp)
  40cf46:	31 ed                	xor    %ebp,%ebp
  40cf48:	bb 01 00 00 00       	mov    $0x1,%ebx
  40cf4d:	e8 2e 51 ff ff       	callq  402080 <strchr@plt>
  40cf52:	48 85 c0             	test   %rax,%rax
  40cf55:	8b 54 24 08          	mov    0x8(%rsp),%edx
  40cf59:	0f 85 75 ff ff ff    	jne    40ced4 <__sprintf_chk@plt+0xa9d4>
  40cf5f:	e9 cc fe ff ff       	jmpq   40ce30 <__sprintf_chk@plt+0xa930>
  40cf64:	0f 1f 40 00          	nopl   0x0(%rax)
  40cf68:	89 e8                	mov    %ebp,%eax
  40cf6a:	49 89 5d 00          	mov    %rbx,0x0(%r13)
  40cf6e:	83 c8 02             	or     $0x2,%eax
  40cf71:	e9 bf fe ff ff       	jmpq   40ce35 <__sprintf_chk@plt+0xa935>
  40cf76:	31 d2                	xor    %edx,%edx
  40cf78:	09 d5                	or     %edx,%ebp
  40cf7a:	48 63 c9             	movslq %ecx,%rcx
  40cf7d:	49 01 ce             	add    %rcx,%r14
  40cf80:	89 e8                	mov    %ebp,%eax
  40cf82:	83 c8 02             	or     $0x2,%eax
  40cf85:	4d 89 37             	mov    %r14,(%r15)
  40cf88:	41 80 3e 00          	cmpb   $0x0,(%r14)
  40cf8c:	0f 45 e8             	cmovne %eax,%ebp
  40cf8f:	e9 fb fe ff ff       	jmpq   40ce8f <__sprintf_chk@plt+0xa98f>
  40cf94:	48 85 db             	test   %rbx,%rbx
  40cf97:	0f 88 26 02 00 00    	js     40d1c3 <__sprintf_chk@plt+0xacc3>
  40cf9d:	48 01 db             	add    %rbx,%rbx
  40cfa0:	31 d2                	xor    %edx,%edx
  40cfa2:	eb d4                	jmp    40cf78 <__sprintf_chk@plt+0xaa78>
  40cfa4:	48 b8 ff ff ff ff ff 	movabs $0x7fffffffffffff,%rax
  40cfab:	ff 7f 00 
  40cfae:	48 39 c3             	cmp    %rax,%rbx
  40cfb1:	0f 87 0c 02 00 00    	ja     40d1c3 <__sprintf_chk@plt+0xacc3>
  40cfb7:	48 c1 e3 09          	shl    $0x9,%rbx
  40cfbb:	31 d2                	xor    %edx,%edx
  40cfbd:	eb b9                	jmp    40cf78 <__sprintf_chk@plt+0xaa78>
  40cfbf:	48 63 f8             	movslq %eax,%rdi
  40cfc2:	31 d2                	xor    %edx,%edx
  40cfc4:	48 c7 c0 ff ff ff ff 	mov    $0xffffffffffffffff,%rax
  40cfcb:	48 f7 f7             	div    %rdi
  40cfce:	be 07 00 00 00       	mov    $0x7,%esi
  40cfd3:	31 d2                	xor    %edx,%edx
  40cfd5:	eb 0f                	jmp    40cfe6 <__sprintf_chk@plt+0xaae6>
  40cfd7:	48 0f af df          	imul   %rdi,%rbx
  40cfdb:	45 31 c0             	xor    %r8d,%r8d
  40cfde:	44 09 c2             	or     %r8d,%edx
  40cfe1:	83 ee 01             	sub    $0x1,%esi
  40cfe4:	74 92                	je     40cf78 <__sprintf_chk@plt+0xaa78>
  40cfe6:	48 39 d8             	cmp    %rbx,%rax
  40cfe9:	73 ec                	jae    40cfd7 <__sprintf_chk@plt+0xaad7>
  40cfeb:	48 c7 c3 ff ff ff ff 	mov    $0xffffffffffffffff,%rbx
  40cff2:	41 b8 01 00 00 00    	mov    $0x1,%r8d
  40cff8:	eb e4                	jmp    40cfde <__sprintf_chk@plt+0xaade>
  40cffa:	48 63 f8             	movslq %eax,%rdi
  40cffd:	31 d2                	xor    %edx,%edx
  40cfff:	48 c7 c0 ff ff ff ff 	mov    $0xffffffffffffffff,%rax
  40d006:	48 f7 f7             	div    %rdi
  40d009:	be 08 00 00 00       	mov    $0x8,%esi
  40d00e:	31 d2                	xor    %edx,%edx
  40d010:	eb 13                	jmp    40d025 <__sprintf_chk@plt+0xab25>
  40d012:	48 0f af df          	imul   %rdi,%rbx
  40d016:	45 31 c0             	xor    %r8d,%r8d
  40d019:	44 09 c2             	or     %r8d,%edx
  40d01c:	83 ee 01             	sub    $0x1,%esi
  40d01f:	0f 84 53 ff ff ff    	je     40cf78 <__sprintf_chk@plt+0xaa78>
  40d025:	48 39 d8             	cmp    %rbx,%rax
  40d028:	73 e8                	jae    40d012 <__sprintf_chk@plt+0xab12>
  40d02a:	48 c7 c3 ff ff ff ff 	mov    $0xffffffffffffffff,%rbx
  40d031:	41 b8 01 00 00 00    	mov    $0x1,%r8d
  40d037:	eb e0                	jmp    40d019 <__sprintf_chk@plt+0xab19>
  40d039:	48 63 f0             	movslq %eax,%rsi
  40d03c:	31 d2                	xor    %edx,%edx
  40d03e:	48 c7 c0 ff ff ff ff 	mov    $0xffffffffffffffff,%rax
  40d045:	48 f7 f6             	div    %rsi
  40d048:	bf 04 00 00 00       	mov    $0x4,%edi
  40d04d:	31 d2                	xor    %edx,%edx
  40d04f:	48 39 d8             	cmp    %rbx,%rax
  40d052:	0f 82 59 01 00 00    	jb     40d1b1 <__sprintf_chk@plt+0xacb1>
  40d058:	45 31 c0             	xor    %r8d,%r8d
  40d05b:	48 0f af de          	imul   %rsi,%rbx
  40d05f:	44 09 c2             	or     %r8d,%edx
  40d062:	83 ef 01             	sub    $0x1,%edi
  40d065:	75 e8                	jne    40d04f <__sprintf_chk@plt+0xab4f>
  40d067:	e9 0c ff ff ff       	jmpq   40cf78 <__sprintf_chk@plt+0xaa78>
  40d06c:	48 63 f0             	movslq %eax,%rsi
  40d06f:	31 d2                	xor    %edx,%edx
  40d071:	48 c7 c0 ff ff ff ff 	mov    $0xffffffffffffffff,%rax
  40d078:	48 f7 f6             	div    %rsi
  40d07b:	bf 05 00 00 00       	mov    $0x5,%edi
  40d080:	31 d2                	xor    %edx,%edx
  40d082:	eb 13                	jmp    40d097 <__sprintf_chk@plt+0xab97>
  40d084:	48 0f af de          	imul   %rsi,%rbx
  40d088:	45 31 c0             	xor    %r8d,%r8d
  40d08b:	44 09 c2             	or     %r8d,%edx
  40d08e:	83 ef 01             	sub    $0x1,%edi
  40d091:	0f 84 e1 fe ff ff    	je     40cf78 <__sprintf_chk@plt+0xaa78>
  40d097:	48 39 d8             	cmp    %rbx,%rax
  40d09a:	73 e8                	jae    40d084 <__sprintf_chk@plt+0xab84>
  40d09c:	48 c7 c3 ff ff ff ff 	mov    $0xffffffffffffffff,%rbx
  40d0a3:	41 b8 01 00 00 00    	mov    $0x1,%r8d
  40d0a9:	eb e0                	jmp    40d08b <__sprintf_chk@plt+0xab8b>
  40d0ab:	48 c7 c6 ff ff ff ff 	mov    $0xffffffffffffffff,%rsi
  40d0b2:	48 63 f8             	movslq %eax,%rdi
  40d0b5:	31 d2                	xor    %edx,%edx
  40d0b7:	48 89 f0             	mov    %rsi,%rax
  40d0ba:	48 f7 f7             	div    %rdi
  40d0bd:	48 39 c3             	cmp    %rax,%rbx
  40d0c0:	0f 87 1d 01 00 00    	ja     40d1e3 <__sprintf_chk@plt+0xace3>
  40d0c6:	48 0f af df          	imul   %rdi,%rbx
  40d0ca:	48 39 d8             	cmp    %rbx,%rax
  40d0cd:	0f 82 10 01 00 00    	jb     40d1e3 <__sprintf_chk@plt+0xace3>
  40d0d3:	48 0f af df          	imul   %rdi,%rbx
  40d0d7:	31 d2                	xor    %edx,%edx
  40d0d9:	e9 9a fe ff ff       	jmpq   40cf78 <__sprintf_chk@plt+0xaa78>
  40d0de:	48 c7 c6 ff ff ff ff 	mov    $0xffffffffffffffff,%rsi
  40d0e5:	48 63 f8             	movslq %eax,%rdi
  40d0e8:	31 d2                	xor    %edx,%edx
  40d0ea:	48 89 f0             	mov    %rsi,%rax
  40d0ed:	48 f7 f7             	div    %rdi
  40d0f0:	48 39 c3             	cmp    %rax,%rbx
  40d0f3:	76 de                	jbe    40d0d3 <__sprintf_chk@plt+0xabd3>
  40d0f5:	48 89 f3             	mov    %rsi,%rbx
  40d0f8:	ba 01 00 00 00       	mov    $0x1,%edx
  40d0fd:	e9 76 fe ff ff       	jmpq   40cf78 <__sprintf_chk@plt+0xaa78>
  40d102:	48 63 f8             	movslq %eax,%rdi
  40d105:	31 d2                	xor    %edx,%edx
  40d107:	48 c7 c0 ff ff ff ff 	mov    $0xffffffffffffffff,%rax
  40d10e:	48 f7 f7             	div    %rdi
  40d111:	be 06 00 00 00       	mov    $0x6,%esi
  40d116:	31 d2                	xor    %edx,%edx
  40d118:	eb 13                	jmp    40d12d <__sprintf_chk@plt+0xac2d>
  40d11a:	48 0f af df          	imul   %rdi,%rbx
  40d11e:	45 31 c0             	xor    %r8d,%r8d
  40d121:	44 09 c2             	or     %r8d,%edx
  40d124:	83 ee 01             	sub    $0x1,%esi
  40d127:	0f 84 4b fe ff ff    	je     40cf78 <__sprintf_chk@plt+0xaa78>
  40d12d:	48 39 d8             	cmp    %rbx,%rax
  40d130:	73 e8                	jae    40d11a <__sprintf_chk@plt+0xac1a>
  40d132:	48 c7 c3 ff ff ff ff 	mov    $0xffffffffffffffff,%rbx
  40d139:	41 b8 01 00 00 00    	mov    $0x1,%r8d
  40d13f:	eb e0                	jmp    40d121 <__sprintf_chk@plt+0xac21>
  40d141:	48 b8 ff ff ff ff ff 	movabs $0x3fffffffffffff,%rax
  40d148:	ff 3f 00 
  40d14b:	48 39 c3             	cmp    %rax,%rbx
  40d14e:	77 73                	ja     40d1c3 <__sprintf_chk@plt+0xacc3>
  40d150:	48 c1 e3 0a          	shl    $0xa,%rbx
  40d154:	31 d2                	xor    %edx,%edx
  40d156:	e9 1d fe ff ff       	jmpq   40cf78 <__sprintf_chk@plt+0xaa78>
  40d15b:	48 63 f0             	movslq %eax,%rsi
  40d15e:	31 d2                	xor    %edx,%edx
  40d160:	48 c7 c0 ff ff ff ff 	mov    $0xffffffffffffffff,%rax
  40d167:	48 f7 f6             	div    %rsi
  40d16a:	bf 03 00 00 00       	mov    $0x3,%edi
  40d16f:	31 d2                	xor    %edx,%edx
  40d171:	48 39 d8             	cmp    %rbx,%rax
  40d174:	72 5e                	jb     40d1d4 <__sprintf_chk@plt+0xacd4>
  40d176:	45 31 c0             	xor    %r8d,%r8d
  40d179:	48 0f af de          	imul   %rsi,%rbx
  40d17d:	44 09 c2             	or     %r8d,%edx
  40d180:	83 ef 01             	sub    $0x1,%edi
  40d183:	75 ec                	jne    40d171 <__sprintf_chk@plt+0xac71>
  40d185:	e9 ee fd ff ff       	jmpq   40cf78 <__sprintf_chk@plt+0xaa78>
  40d18a:	31 c9                	xor    %ecx,%ecx
  40d18c:	41 80 7e 02 42       	cmpb   $0x42,0x2(%r14)
  40d191:	b8 00 04 00 00       	mov    $0x400,%eax
  40d196:	0f 94 c1             	sete   %cl
  40d199:	8d 4c 09 01          	lea    0x1(%rcx,%rcx,1),%ecx
  40d19d:	e9 73 fd ff ff       	jmpq   40cf15 <__sprintf_chk@plt+0xaa15>
  40d1a2:	b9 02 00 00 00       	mov    $0x2,%ecx
  40d1a7:	b8 e8 03 00 00       	mov    $0x3e8,%eax
  40d1ac:	e9 64 fd ff ff       	jmpq   40cf15 <__sprintf_chk@plt+0xaa15>
  40d1b1:	48 c7 c3 ff ff ff ff 	mov    $0xffffffffffffffff,%rbx
  40d1b8:	41 b8 01 00 00 00    	mov    $0x1,%r8d
  40d1be:	e9 9c fe ff ff       	jmpq   40d05f <__sprintf_chk@plt+0xab5f>
  40d1c3:	48 c7 c3 ff ff ff ff 	mov    $0xffffffffffffffff,%rbx
  40d1ca:	ba 01 00 00 00       	mov    $0x1,%edx
  40d1cf:	e9 a4 fd ff ff       	jmpq   40cf78 <__sprintf_chk@plt+0xaa78>
  40d1d4:	48 c7 c3 ff ff ff ff 	mov    $0xffffffffffffffff,%rbx
  40d1db:	41 b8 01 00 00 00    	mov    $0x1,%r8d
  40d1e1:	eb 9a                	jmp    40d17d <__sprintf_chk@plt+0xac7d>
  40d1e3:	ba 01 00 00 00       	mov    $0x1,%edx
  40d1e8:	48 89 f3             	mov    %rsi,%rbx
  40d1eb:	e9 88 fd ff ff       	jmpq   40cf78 <__sprintf_chk@plt+0xaa78>
  40d1f0:	b9 58 64 41 00       	mov    $0x416458,%ecx
  40d1f5:	ba 60 00 00 00       	mov    $0x60,%edx
  40d1fa:	be b2 60 41 00       	mov    $0x4160b2,%esi
  40d1ff:	bf c0 60 41 00       	mov    $0x4160c0,%edi
  40d204:	e8 c7 4e ff ff       	callq  4020d0 <__assert_fail@plt>
  40d209:	0f 1f 80 00 00 00 00 	nopl   0x0(%rax)
  40d210:	41 55                	push   %r13
  40d212:	4c 63 d6             	movslq %esi,%r10
  40d215:	41 54                	push   %r12
  40d217:	4d 89 c4             	mov    %r8,%r12
  40d21a:	55                   	push   %rbp
  40d21b:	53                   	push   %rbx
  40d21c:	48 83 ec 18          	sub    $0x18,%rsp
  40d220:	83 ff 03             	cmp    $0x3,%edi
  40d223:	8b 2d 5f d1 20 00    	mov    0x20d15f(%rip),%ebp        # 61a388 <fts_children+0x20a9c8>
  40d229:	77 50                	ja     40d27b <__sprintf_chk@plt+0xad7b>
  40d22b:	83 ff 02             	cmp    $0x2,%edi
  40d22e:	73 44                	jae    40d274 <__sprintf_chk@plt+0xad74>
  40d230:	83 ef 01             	sub    $0x1,%edi
  40d233:	be 7c 64 41 00       	mov    $0x41647c,%esi
  40d238:	75 35                	jne    40d26f <__sprintf_chk@plt+0xad6f>
  40d23a:	45 85 d2             	test   %r10d,%r10d
  40d23d:	78 48                	js     40d287 <__sprintf_chk@plt+0xad87>
  40d23f:	49 c1 e2 05          	shl    $0x5,%r10
  40d243:	bb 99 64 41 00       	mov    $0x416499,%ebx
  40d248:	4e 8b 2c 11          	mov    (%rcx,%r10,1),%r13
  40d24c:	ba 05 00 00 00       	mov    $0x5,%edx
  40d251:	31 ff                	xor    %edi,%edi
  40d253:	e8 98 4d ff ff       	callq  401ff0 <dcgettext@plt>
  40d258:	4d 89 e1             	mov    %r12,%r9
  40d25b:	48 89 c2             	mov    %rax,%rdx
  40d25e:	4d 89 e8             	mov    %r13,%r8
  40d261:	48 89 d9             	mov    %rbx,%rcx
  40d264:	31 f6                	xor    %esi,%esi
  40d266:	89 ef                	mov    %ebp,%edi
  40d268:	31 c0                	xor    %eax,%eax
  40d26a:	e8 51 51 ff ff       	callq  4023c0 <error@plt>
  40d26f:	e8 8c 4c ff ff       	callq  401f00 <abort@plt>
  40d274:	be a0 64 41 00       	mov    $0x4164a0,%esi
  40d279:	eb bf                	jmp    40d23a <__sprintf_chk@plt+0xad3a>
  40d27b:	83 ff 04             	cmp    $0x4,%edi
  40d27e:	be 61 64 41 00       	mov    $0x416461,%esi
  40d283:	74 b5                	je     40d23a <__sprintf_chk@plt+0xad3a>
  40d285:	eb e8                	jmp    40d26f <__sprintf_chk@plt+0xad6f>
  40d287:	bb 99 64 41 00       	mov    $0x416499,%ebx
  40d28c:	88 14 24             	mov    %dl,(%rsp)
  40d28f:	c6 44 24 01 00       	movb   $0x0,0x1(%rsp)
  40d294:	4c 29 d3             	sub    %r10,%rbx
  40d297:	49 89 e5             	mov    %rsp,%r13
  40d29a:	eb b0                	jmp    40d24c <__sprintf_chk@plt+0xad4c>
  40d29c:	0f 1f 40 00          	nopl   0x0(%rax)
  40d2a0:	41 57                	push   %r15
  40d2a2:	41 56                	push   %r14
  40d2a4:	41 89 d6             	mov    %edx,%r14d
  40d2a7:	41 55                	push   %r13
  40d2a9:	41 54                	push   %r12
  40d2ab:	55                   	push   %rbp
  40d2ac:	53                   	push   %rbx
  40d2ad:	48 83 ec 28          	sub    $0x28,%rsp
  40d2b1:	83 fa 24             	cmp    $0x24,%edx
  40d2b4:	0f 87 0e 04 00 00    	ja     40d6c8 <__sprintf_chk@plt+0xb1c8>
  40d2ba:	48 8d 44 24 18       	lea    0x18(%rsp),%rax
  40d2bf:	48 89 fd             	mov    %rdi,%rbp
  40d2c2:	49 89 f7             	mov    %rsi,%r15
  40d2c5:	48 85 f6             	test   %rsi,%rsi
  40d2c8:	49 89 cd             	mov    %rcx,%r13
  40d2cb:	4d 89 c4             	mov    %r8,%r12
  40d2ce:	4c 0f 44 f8          	cmove  %rax,%r15
  40d2d2:	0f b6 1f             	movzbl (%rdi),%ebx
  40d2d5:	e8 06 52 ff ff       	callq  4024e0 <__ctype_b_loc@plt>
  40d2da:	48 8b 10             	mov    (%rax),%rdx
  40d2dd:	48 89 e8             	mov    %rbp,%rax
  40d2e0:	eb 0d                	jmp    40d2ef <__sprintf_chk@plt+0xadef>
  40d2e2:	66 0f 1f 44 00 00    	nopw   0x0(%rax,%rax,1)
  40d2e8:	48 83 c0 01          	add    $0x1,%rax
  40d2ec:	0f b6 18             	movzbl (%rax),%ebx
  40d2ef:	44 0f b6 cb          	movzbl %bl,%r9d
  40d2f3:	42 f6 44 4a 01 20    	testb  $0x20,0x1(%rdx,%r9,2)
  40d2f9:	75 ed                	jne    40d2e8 <__sprintf_chk@plt+0xade8>
  40d2fb:	80 fb 2d             	cmp    $0x2d,%bl
  40d2fe:	75 18                	jne    40d318 <__sprintf_chk@plt+0xae18>
  40d300:	b8 04 00 00 00       	mov    $0x4,%eax
  40d305:	48 83 c4 28          	add    $0x28,%rsp
  40d309:	5b                   	pop    %rbx
  40d30a:	5d                   	pop    %rbp
  40d30b:	41 5c                	pop    %r12
  40d30d:	41 5d                	pop    %r13
  40d30f:	41 5e                	pop    %r14
  40d311:	41 5f                	pop    %r15
  40d313:	c3                   	retq   
  40d314:	0f 1f 40 00          	nopl   0x0(%rax)
  40d318:	e8 f3 4b ff ff       	callq  401f10 <__errno_location@plt>
  40d31d:	31 c9                	xor    %ecx,%ecx
  40d31f:	44 89 f2             	mov    %r14d,%edx
  40d322:	c7 00 00 00 00 00    	movl   $0x0,(%rax)
  40d328:	4c 89 fe             	mov    %r15,%rsi
  40d32b:	48 89 ef             	mov    %rbp,%rdi
  40d32e:	48 89 44 24 08       	mov    %rax,0x8(%rsp)
  40d333:	e8 a8 4d ff ff       	callq  4020e0 <__strtoul_internal@plt>
  40d338:	4d 8b 37             	mov    (%r15),%r14
  40d33b:	48 89 c3             	mov    %rax,%rbx
  40d33e:	4c 8b 44 24 08       	mov    0x8(%rsp),%r8
  40d343:	49 39 ee             	cmp    %rbp,%r14
  40d346:	0f 84 b3 00 00 00    	je     40d3ff <__sprintf_chk@plt+0xaeff>
  40d34c:	41 8b 00             	mov    (%r8),%eax
  40d34f:	85 c0                	test   %eax,%eax
  40d351:	75 2d                	jne    40d380 <__sprintf_chk@plt+0xae80>
  40d353:	31 ed                	xor    %ebp,%ebp
  40d355:	4d 85 e4             	test   %r12,%r12
  40d358:	74 08                	je     40d362 <__sprintf_chk@plt+0xae62>
  40d35a:	41 0f b6 16          	movzbl (%r14),%edx
  40d35e:	84 d2                	test   %dl,%dl
  40d360:	75 2e                	jne    40d390 <__sprintf_chk@plt+0xae90>
  40d362:	49 89 5d 00          	mov    %rbx,0x0(%r13)
  40d366:	48 83 c4 28          	add    $0x28,%rsp
  40d36a:	89 e8                	mov    %ebp,%eax
  40d36c:	5b                   	pop    %rbx
  40d36d:	5d                   	pop    %rbp
  40d36e:	41 5c                	pop    %r12
  40d370:	41 5d                	pop    %r13
  40d372:	41 5e                	pop    %r14
  40d374:	41 5f                	pop    %r15
  40d376:	c3                   	retq   
  40d377:	66 0f 1f 84 00 00 00 	nopw   0x0(%rax,%rax,1)
  40d37e:	00 00 
  40d380:	83 f8 22             	cmp    $0x22,%eax
  40d383:	bd 01 00 00 00       	mov    $0x1,%ebp
  40d388:	0f 85 72 ff ff ff    	jne    40d300 <__sprintf_chk@plt+0xae00>
  40d38e:	eb c5                	jmp    40d355 <__sprintf_chk@plt+0xae55>
  40d390:	0f be f2             	movsbl %dl,%esi
  40d393:	4c 89 e7             	mov    %r12,%rdi
  40d396:	89 54 24 08          	mov    %edx,0x8(%rsp)
  40d39a:	e8 e1 4c ff ff       	callq  402080 <strchr@plt>
  40d39f:	48 85 c0             	test   %rax,%rax
  40d3a2:	8b 54 24 08          	mov    0x8(%rsp),%edx
  40d3a6:	0f 84 94 00 00 00    	je     40d440 <__sprintf_chk@plt+0xaf40>
  40d3ac:	be 30 00 00 00       	mov    $0x30,%esi
  40d3b1:	4c 89 e7             	mov    %r12,%rdi
  40d3b4:	89 54 24 08          	mov    %edx,0x8(%rsp)
  40d3b8:	e8 c3 4c ff ff       	callq  402080 <strchr@plt>
  40d3bd:	48 85 c0             	test   %rax,%rax
  40d3c0:	8b 54 24 08          	mov    0x8(%rsp),%edx
  40d3c4:	74 1d                	je     40d3e3 <__sprintf_chk@plt+0xaee3>
  40d3c6:	41 0f b6 46 01       	movzbl 0x1(%r14),%eax
  40d3cb:	3c 44                	cmp    $0x44,%al
  40d3cd:	0f 84 a7 02 00 00    	je     40d67a <__sprintf_chk@plt+0xb17a>
  40d3d3:	3c 69                	cmp    $0x69,%al
  40d3d5:	0f 84 87 02 00 00    	je     40d662 <__sprintf_chk@plt+0xb162>
  40d3db:	3c 42                	cmp    $0x42,%al
  40d3dd:	0f 84 97 02 00 00    	je     40d67a <__sprintf_chk@plt+0xb17a>
  40d3e3:	b9 01 00 00 00       	mov    $0x1,%ecx
  40d3e8:	b8 00 04 00 00       	mov    $0x400,%eax
  40d3ed:	83 ea 42             	sub    $0x42,%edx
  40d3f0:	80 fa 35             	cmp    $0x35,%dl
  40d3f3:	77 4b                	ja     40d440 <__sprintf_chk@plt+0xaf40>
  40d3f5:	0f b6 d2             	movzbl %dl,%edx
  40d3f8:	ff 24 d5 c8 64 41 00 	jmpq   *0x4164c8(,%rdx,8)
  40d3ff:	4d 85 e4             	test   %r12,%r12
  40d402:	0f 84 f8 fe ff ff    	je     40d300 <__sprintf_chk@plt+0xae00>
  40d408:	0f b6 55 00          	movzbl 0x0(%rbp),%edx
  40d40c:	84 d2                	test   %dl,%dl
  40d40e:	0f 84 ec fe ff ff    	je     40d300 <__sprintf_chk@plt+0xae00>
  40d414:	0f be f2             	movsbl %dl,%esi
  40d417:	4c 89 e7             	mov    %r12,%rdi
  40d41a:	89 54 24 08          	mov    %edx,0x8(%rsp)
  40d41e:	31 ed                	xor    %ebp,%ebp
  40d420:	bb 01 00 00 00       	mov    $0x1,%ebx
  40d425:	e8 56 4c ff ff       	callq  402080 <strchr@plt>
  40d42a:	48 85 c0             	test   %rax,%rax
  40d42d:	8b 54 24 08          	mov    0x8(%rsp),%edx
  40d431:	0f 85 75 ff ff ff    	jne    40d3ac <__sprintf_chk@plt+0xaeac>
  40d437:	e9 c4 fe ff ff       	jmpq   40d300 <__sprintf_chk@plt+0xae00>
  40d43c:	0f 1f 40 00          	nopl   0x0(%rax)
  40d440:	89 e8                	mov    %ebp,%eax
  40d442:	49 89 5d 00          	mov    %rbx,0x0(%r13)
  40d446:	83 c8 02             	or     $0x2,%eax
  40d449:	e9 b7 fe ff ff       	jmpq   40d305 <__sprintf_chk@plt+0xae05>
  40d44e:	31 d2                	xor    %edx,%edx
  40d450:	09 d5                	or     %edx,%ebp
  40d452:	48 63 c9             	movslq %ecx,%rcx
  40d455:	49 01 ce             	add    %rcx,%r14
  40d458:	89 e8                	mov    %ebp,%eax
  40d45a:	83 c8 02             	or     $0x2,%eax
  40d45d:	4d 89 37             	mov    %r14,(%r15)
  40d460:	41 80 3e 00          	cmpb   $0x0,(%r14)
  40d464:	0f 45 e8             	cmovne %eax,%ebp
  40d467:	e9 f6 fe ff ff       	jmpq   40d362 <__sprintf_chk@plt+0xae62>
  40d46c:	48 85 db             	test   %rbx,%rbx
  40d46f:	0f 88 26 02 00 00    	js     40d69b <__sprintf_chk@plt+0xb19b>
  40d475:	48 01 db             	add    %rbx,%rbx
  40d478:	31 d2                	xor    %edx,%edx
  40d47a:	eb d4                	jmp    40d450 <__sprintf_chk@plt+0xaf50>
  40d47c:	48 b8 ff ff ff ff ff 	movabs $0x7fffffffffffff,%rax
  40d483:	ff 7f 00 
  40d486:	48 39 c3             	cmp    %rax,%rbx
  40d489:	0f 87 0c 02 00 00    	ja     40d69b <__sprintf_chk@plt+0xb19b>
  40d48f:	48 c1 e3 09          	shl    $0x9,%rbx
  40d493:	31 d2                	xor    %edx,%edx
  40d495:	eb b9                	jmp    40d450 <__sprintf_chk@plt+0xaf50>
  40d497:	48 63 f8             	movslq %eax,%rdi
  40d49a:	31 d2                	xor    %edx,%edx
  40d49c:	48 c7 c0 ff ff ff ff 	mov    $0xffffffffffffffff,%rax
  40d4a3:	48 f7 f7             	div    %rdi
  40d4a6:	be 07 00 00 00       	mov    $0x7,%esi
  40d4ab:	31 d2                	xor    %edx,%edx
  40d4ad:	eb 0f                	jmp    40d4be <__sprintf_chk@plt+0xafbe>
  40d4af:	48 0f af df          	imul   %rdi,%rbx
  40d4b3:	45 31 c0             	xor    %r8d,%r8d
  40d4b6:	44 09 c2             	or     %r8d,%edx
  40d4b9:	83 ee 01             	sub    $0x1,%esi
  40d4bc:	74 92                	je     40d450 <__sprintf_chk@plt+0xaf50>
  40d4be:	48 39 d8             	cmp    %rbx,%rax
  40d4c1:	73 ec                	jae    40d4af <__sprintf_chk@plt+0xafaf>
  40d4c3:	48 c7 c3 ff ff ff ff 	mov    $0xffffffffffffffff,%rbx
  40d4ca:	41 b8 01 00 00 00    	mov    $0x1,%r8d
  40d4d0:	eb e4                	jmp    40d4b6 <__sprintf_chk@plt+0xafb6>
  40d4d2:	48 63 f8             	movslq %eax,%rdi
  40d4d5:	31 d2                	xor    %edx,%edx
  40d4d7:	48 c7 c0 ff ff ff ff 	mov    $0xffffffffffffffff,%rax
  40d4de:	48 f7 f7             	div    %rdi
  40d4e1:	be 08 00 00 00       	mov    $0x8,%esi
  40d4e6:	31 d2                	xor    %edx,%edx
  40d4e8:	eb 13                	jmp    40d4fd <__sprintf_chk@plt+0xaffd>
  40d4ea:	48 0f af df          	imul   %rdi,%rbx
  40d4ee:	45 31 c0             	xor    %r8d,%r8d
  40d4f1:	44 09 c2             	or     %r8d,%edx
  40d4f4:	83 ee 01             	sub    $0x1,%esi
  40d4f7:	0f 84 53 ff ff ff    	je     40d450 <__sprintf_chk@plt+0xaf50>
  40d4fd:	48 39 d8             	cmp    %rbx,%rax
  40d500:	73 e8                	jae    40d4ea <__sprintf_chk@plt+0xafea>
  40d502:	48 c7 c3 ff ff ff ff 	mov    $0xffffffffffffffff,%rbx
  40d509:	41 b8 01 00 00 00    	mov    $0x1,%r8d
  40d50f:	eb e0                	jmp    40d4f1 <__sprintf_chk@plt+0xaff1>
  40d511:	48 63 f0             	movslq %eax,%rsi
  40d514:	31 d2                	xor    %edx,%edx
  40d516:	48 c7 c0 ff ff ff ff 	mov    $0xffffffffffffffff,%rax
  40d51d:	48 f7 f6             	div    %rsi
  40d520:	bf 04 00 00 00       	mov    $0x4,%edi
  40d525:	31 d2                	xor    %edx,%edx
  40d527:	48 39 d8             	cmp    %rbx,%rax
  40d52a:	0f 82 59 01 00 00    	jb     40d689 <__sprintf_chk@plt+0xb189>
  40d530:	45 31 c0             	xor    %r8d,%r8d
  40d533:	48 0f af de          	imul   %rsi,%rbx
  40d537:	44 09 c2             	or     %r8d,%edx
  40d53a:	83 ef 01             	sub    $0x1,%edi
  40d53d:	75 e8                	jne    40d527 <__sprintf_chk@plt+0xb027>
  40d53f:	e9 0c ff ff ff       	jmpq   40d450 <__sprintf_chk@plt+0xaf50>
  40d544:	48 63 f0             	movslq %eax,%rsi
  40d547:	31 d2                	xor    %edx,%edx
  40d549:	48 c7 c0 ff ff ff ff 	mov    $0xffffffffffffffff,%rax
  40d550:	48 f7 f6             	div    %rsi
  40d553:	bf 05 00 00 00       	mov    $0x5,%edi
  40d558:	31 d2                	xor    %edx,%edx
  40d55a:	eb 13                	jmp    40d56f <__sprintf_chk@plt+0xb06f>
  40d55c:	48 0f af de          	imul   %rsi,%rbx
  40d560:	45 31 c0             	xor    %r8d,%r8d
  40d563:	44 09 c2             	or     %r8d,%edx
  40d566:	83 ef 01             	sub    $0x1,%edi
  40d569:	0f 84 e1 fe ff ff    	je     40d450 <__sprintf_chk@plt+0xaf50>
  40d56f:	48 39 d8             	cmp    %rbx,%rax
  40d572:	73 e8                	jae    40d55c <__sprintf_chk@plt+0xb05c>
  40d574:	48 c7 c3 ff ff ff ff 	mov    $0xffffffffffffffff,%rbx
  40d57b:	41 b8 01 00 00 00    	mov    $0x1,%r8d
  40d581:	eb e0                	jmp    40d563 <__sprintf_chk@plt+0xb063>
  40d583:	48 c7 c6 ff ff ff ff 	mov    $0xffffffffffffffff,%rsi
  40d58a:	48 63 f8             	movslq %eax,%rdi
  40d58d:	31 d2                	xor    %edx,%edx
  40d58f:	48 89 f0             	mov    %rsi,%rax
  40d592:	48 f7 f7             	div    %rdi
  40d595:	48 39 c3             	cmp    %rax,%rbx
  40d598:	0f 87 1d 01 00 00    	ja     40d6bb <__sprintf_chk@plt+0xb1bb>
  40d59e:	48 0f af df          	imul   %rdi,%rbx
  40d5a2:	48 39 d8             	cmp    %rbx,%rax
  40d5a5:	0f 82 10 01 00 00    	jb     40d6bb <__sprintf_chk@plt+0xb1bb>
  40d5ab:	48 0f af df          	imul   %rdi,%rbx
  40d5af:	31 d2                	xor    %edx,%edx
  40d5b1:	e9 9a fe ff ff       	jmpq   40d450 <__sprintf_chk@plt+0xaf50>
  40d5b6:	48 c7 c6 ff ff ff ff 	mov    $0xffffffffffffffff,%rsi
  40d5bd:	48 63 f8             	movslq %eax,%rdi
  40d5c0:	31 d2                	xor    %edx,%edx
  40d5c2:	48 89 f0             	mov    %rsi,%rax
  40d5c5:	48 f7 f7             	div    %rdi
  40d5c8:	48 39 c3             	cmp    %rax,%rbx
  40d5cb:	76 de                	jbe    40d5ab <__sprintf_chk@plt+0xb0ab>
  40d5cd:	48 89 f3             	mov    %rsi,%rbx
  40d5d0:	ba 01 00 00 00       	mov    $0x1,%edx
  40d5d5:	e9 76 fe ff ff       	jmpq   40d450 <__sprintf_chk@plt+0xaf50>
  40d5da:	48 63 f8             	movslq %eax,%rdi
  40d5dd:	31 d2                	xor    %edx,%edx
  40d5df:	48 c7 c0 ff ff ff ff 	mov    $0xffffffffffffffff,%rax
  40d5e6:	48 f7 f7             	div    %rdi
  40d5e9:	be 06 00 00 00       	mov    $0x6,%esi
  40d5ee:	31 d2                	xor    %edx,%edx
  40d5f0:	eb 13                	jmp    40d605 <__sprintf_chk@plt+0xb105>
  40d5f2:	48 0f af df          	imul   %rdi,%rbx
  40d5f6:	45 31 c0             	xor    %r8d,%r8d
  40d5f9:	44 09 c2             	or     %r8d,%edx
  40d5fc:	83 ee 01             	sub    $0x1,%esi
  40d5ff:	0f 84 4b fe ff ff    	je     40d450 <__sprintf_chk@plt+0xaf50>
  40d605:	48 39 d8             	cmp    %rbx,%rax
  40d608:	73 e8                	jae    40d5f2 <__sprintf_chk@plt+0xb0f2>
  40d60a:	48 c7 c3 ff ff ff ff 	mov    $0xffffffffffffffff,%rbx
  40d611:	41 b8 01 00 00 00    	mov    $0x1,%r8d
  40d617:	eb e0                	jmp    40d5f9 <__sprintf_chk@plt+0xb0f9>
  40d619:	48 b8 ff ff ff ff ff 	movabs $0x3fffffffffffff,%rax
  40d620:	ff 3f 00 
  40d623:	48 39 c3             	cmp    %rax,%rbx
  40d626:	77 73                	ja     40d69b <__sprintf_chk@plt+0xb19b>
  40d628:	48 c1 e3 0a          	shl    $0xa,%rbx
  40d62c:	31 d2                	xor    %edx,%edx
  40d62e:	e9 1d fe ff ff       	jmpq   40d450 <__sprintf_chk@plt+0xaf50>
  40d633:	48 63 f0             	movslq %eax,%rsi
  40d636:	31 d2                	xor    %edx,%edx
  40d638:	48 c7 c0 ff ff ff ff 	mov    $0xffffffffffffffff,%rax
  40d63f:	48 f7 f6             	div    %rsi
  40d642:	bf 03 00 00 00       	mov    $0x3,%edi
  40d647:	31 d2                	xor    %edx,%edx
  40d649:	48 39 d8             	cmp    %rbx,%rax
  40d64c:	72 5e                	jb     40d6ac <__sprintf_chk@plt+0xb1ac>
  40d64e:	45 31 c0             	xor    %r8d,%r8d
  40d651:	48 0f af de          	imul   %rsi,%rbx
  40d655:	44 09 c2             	or     %r8d,%edx
  40d658:	83 ef 01             	sub    $0x1,%edi
  40d65b:	75 ec                	jne    40d649 <__sprintf_chk@plt+0xb149>
  40d65d:	e9 ee fd ff ff       	jmpq   40d450 <__sprintf_chk@plt+0xaf50>
  40d662:	31 c9                	xor    %ecx,%ecx
  40d664:	41 80 7e 02 42       	cmpb   $0x42,0x2(%r14)
  40d669:	b8 00 04 00 00       	mov    $0x400,%eax
  40d66e:	0f 94 c1             	sete   %cl
  40d671:	8d 4c 09 01          	lea    0x1(%rcx,%rcx,1),%ecx
  40d675:	e9 73 fd ff ff       	jmpq   40d3ed <__sprintf_chk@plt+0xaeed>
  40d67a:	b9 02 00 00 00       	mov    $0x2,%ecx
  40d67f:	b8 e8 03 00 00       	mov    $0x3e8,%eax
  40d684:	e9 64 fd ff ff       	jmpq   40d3ed <__sprintf_chk@plt+0xaeed>
  40d689:	48 c7 c3 ff ff ff ff 	mov    $0xffffffffffffffff,%rbx
  40d690:	41 b8 01 00 00 00    	mov    $0x1,%r8d
  40d696:	e9 9c fe ff ff       	jmpq   40d537 <__sprintf_chk@plt+0xb037>
  40d69b:	48 c7 c3 ff ff ff ff 	mov    $0xffffffffffffffff,%rbx
  40d6a2:	ba 01 00 00 00       	mov    $0x1,%edx
  40d6a7:	e9 a4 fd ff ff       	jmpq   40d450 <__sprintf_chk@plt+0xaf50>
  40d6ac:	48 c7 c3 ff ff ff ff 	mov    $0xffffffffffffffff,%rbx
  40d6b3:	41 b8 01 00 00 00    	mov    $0x1,%r8d
  40d6b9:	eb 9a                	jmp    40d655 <__sprintf_chk@plt+0xb155>
  40d6bb:	ba 01 00 00 00       	mov    $0x1,%edx
  40d6c0:	48 89 f3             	mov    %rsi,%rbx
  40d6c3:	e9 88 fd ff ff       	jmpq   40d450 <__sprintf_chk@plt+0xaf50>
  40d6c8:	b9 78 66 41 00       	mov    $0x416678,%ecx
  40d6cd:	ba 60 00 00 00       	mov    $0x60,%edx
  40d6d2:	be b2 60 41 00       	mov    $0x4160b2,%esi
  40d6d7:	bf c0 60 41 00       	mov    $0x4160c0,%edi
  40d6dc:	e8 ef 49 ff ff       	callq  4020d0 <__assert_fail@plt>
  40d6e1:	66 2e 0f 1f 84 00 00 	nopw   %cs:0x0(%rax,%rax,1)
  40d6e8:	00 00 00 
  40d6eb:	0f 1f 44 00 00       	nopl   0x0(%rax,%rax,1)
  40d6f0:	41 54                	push   %r12
  40d6f2:	55                   	push   %rbp
  40d6f3:	53                   	push   %rbx
  40d6f4:	48 89 fb             	mov    %rdi,%rbx
  40d6f7:	e8 44 4b ff ff       	callq  402240 <fileno@plt>
  40d6fc:	85 c0                	test   %eax,%eax
  40d6fe:	48 89 df             	mov    %rbx,%rdi
  40d701:	78 5c                	js     40d75f <__sprintf_chk@plt+0xb25f>
  40d703:	e8 18 4c ff ff       	callq  402320 <__freading@plt>
  40d708:	85 c0                	test   %eax,%eax
  40d70a:	75 34                	jne    40d740 <__sprintf_chk@plt+0xb240>
  40d70c:	48 89 df             	mov    %rbx,%rdi
  40d70f:	e8 5c 00 00 00       	callq  40d770 <__sprintf_chk@plt+0xb270>
  40d714:	85 c0                	test   %eax,%eax
  40d716:	74 44                	je     40d75c <__sprintf_chk@plt+0xb25c>
  40d718:	e8 f3 47 ff ff       	callq  401f10 <__errno_location@plt>
  40d71d:	44 8b 20             	mov    (%rax),%r12d
  40d720:	48 89 df             	mov    %rbx,%rdi
  40d723:	48 89 c5             	mov    %rax,%rbp
  40d726:	e8 a5 48 ff ff       	callq  401fd0 <fclose@plt>
  40d72b:	45 85 e4             	test   %r12d,%r12d
  40d72e:	74 09                	je     40d739 <__sprintf_chk@plt+0xb239>
  40d730:	44 89 65 00          	mov    %r12d,0x0(%rbp)
  40d734:	b8 ff ff ff ff       	mov    $0xffffffff,%eax
  40d739:	5b                   	pop    %rbx
  40d73a:	5d                   	pop    %rbp
  40d73b:	41 5c                	pop    %r12
  40d73d:	c3                   	retq   
  40d73e:	66 90                	xchg   %ax,%ax
  40d740:	48 89 df             	mov    %rbx,%rdi
  40d743:	e8 f8 4a ff ff       	callq  402240 <fileno@plt>
  40d748:	31 f6                	xor    %esi,%esi
  40d74a:	ba 01 00 00 00       	mov    $0x1,%edx
  40d74f:	89 c7                	mov    %eax,%edi
  40d751:	e8 6a 49 ff ff       	callq  4020c0 <lseek@plt>
  40d756:	48 83 f8 ff          	cmp    $0xffffffffffffffff,%rax
  40d75a:	75 b0                	jne    40d70c <__sprintf_chk@plt+0xb20c>
  40d75c:	48 89 df             	mov    %rbx,%rdi
  40d75f:	5b                   	pop    %rbx
  40d760:	5d                   	pop    %rbp
  40d761:	41 5c                	pop    %r12
  40d763:	e9 68 48 ff ff       	jmpq   401fd0 <fclose@plt>
  40d768:	0f 1f 84 00 00 00 00 	nopl   0x0(%rax,%rax,1)
  40d76f:	00 
  40d770:	48 85 ff             	test   %rdi,%rdi
  40d773:	53                   	push   %rbx
  40d774:	48 89 fb             	mov    %rdi,%rbx
  40d777:	74 09                	je     40d782 <__sprintf_chk@plt+0xb282>
  40d779:	e8 a2 4b ff ff       	callq  402320 <__freading@plt>
  40d77e:	85 c0                	test   %eax,%eax
  40d780:	75 0e                	jne    40d790 <__sprintf_chk@plt+0xb290>
  40d782:	48 89 df             	mov    %rbx,%rdi
  40d785:	5b                   	pop    %rbx
  40d786:	e9 15 4b ff ff       	jmpq   4022a0 <fflush@plt>
  40d78b:	0f 1f 44 00 00       	nopl   0x0(%rax,%rax,1)
  40d790:	f7 03 00 01 00 00    	testl  $0x100,(%rbx)
  40d796:	74 ea                	je     40d782 <__sprintf_chk@plt+0xb282>
  40d798:	48 89 df             	mov    %rbx,%rdi
  40d79b:	ba 01 00 00 00       	mov    $0x1,%edx
  40d7a0:	31 f6                	xor    %esi,%esi
  40d7a2:	e8 09 00 00 00       	callq  40d7b0 <__sprintf_chk@plt+0xb2b0>
  40d7a7:	48 89 df             	mov    %rbx,%rdi
  40d7aa:	5b                   	pop    %rbx
  40d7ab:	e9 f0 4a ff ff       	jmpq   4022a0 <fflush@plt>
  40d7b0:	53                   	push   %rbx
  40d7b1:	48 89 fb             	mov    %rdi,%rbx
  40d7b4:	48 83 ec 10          	sub    $0x10,%rsp
  40d7b8:	48 8b 47 08          	mov    0x8(%rdi),%rax
  40d7bc:	48 39 47 10          	cmp    %rax,0x10(%rdi)
  40d7c0:	74 0e                	je     40d7d0 <__sprintf_chk@plt+0xb2d0>
  40d7c2:	48 83 c4 10          	add    $0x10,%rsp
  40d7c6:	48 89 df             	mov    %rbx,%rdi
  40d7c9:	5b                   	pop    %rbx
  40d7ca:	e9 11 4c ff ff       	jmpq   4023e0 <fseeko@plt>
  40d7cf:	90                   	nop
  40d7d0:	48 8b 47 20          	mov    0x20(%rdi),%rax
  40d7d4:	48 39 47 28          	cmp    %rax,0x28(%rdi)
  40d7d8:	75 e8                	jne    40d7c2 <__sprintf_chk@plt+0xb2c2>
  40d7da:	48 83 7f 48 00       	cmpq   $0x0,0x48(%rdi)
  40d7df:	75 e1                	jne    40d7c2 <__sprintf_chk@plt+0xb2c2>
  40d7e1:	89 54 24 0c          	mov    %edx,0xc(%rsp)
  40d7e5:	48 89 34 24          	mov    %rsi,(%rsp)
  40d7e9:	e8 52 4a ff ff       	callq  402240 <fileno@plt>
  40d7ee:	8b 54 24 0c          	mov    0xc(%rsp),%edx
  40d7f2:	48 8b 34 24          	mov    (%rsp),%rsi
  40d7f6:	89 c7                	mov    %eax,%edi
  40d7f8:	e8 c3 48 ff ff       	callq  4020c0 <lseek@plt>
  40d7fd:	48 83 f8 ff          	cmp    $0xffffffffffffffff,%rax
  40d801:	74 0c                	je     40d80f <__sprintf_chk@plt+0xb30f>
  40d803:	83 23 ef             	andl   $0xffffffef,(%rbx)
  40d806:	48 89 83 90 00 00 00 	mov    %rax,0x90(%rbx)
  40d80d:	31 c0                	xor    %eax,%eax
  40d80f:	48 83 c4 10          	add    $0x10,%rsp
  40d813:	5b                   	pop    %rbx
  40d814:	c3                   	retq   
  40d815:	66 2e 0f 1f 84 00 00 	nopw   %cs:0x0(%rax,%rax,1)
  40d81c:	00 00 00 
  40d81f:	90                   	nop
  40d820:	31 c0                	xor    %eax,%eax
  40d822:	48 8b 56 08          	mov    0x8(%rsi),%rdx
  40d826:	48 39 57 08          	cmp    %rdx,0x8(%rdi)
  40d82a:	74 04                	je     40d830 <__sprintf_chk@plt+0xb330>
  40d82c:	f3 c3                	repz retq 
  40d82e:	66 90                	xchg   %ax,%ax
  40d830:	48 8b 06             	mov    (%rsi),%rax
  40d833:	48 39 07             	cmp    %rax,(%rdi)
  40d836:	0f 94 c0             	sete   %al
  40d839:	c3                   	retq   
  40d83a:	66 0f 1f 44 00 00    	nopw   0x0(%rax,%rax,1)
  40d840:	48 8b 47 08          	mov    0x8(%rdi),%rax
  40d844:	31 d2                	xor    %edx,%edx
  40d846:	48 f7 f6             	div    %rsi
  40d849:	48 89 d0             	mov    %rdx,%rax
  40d84c:	c3                   	retq   
  40d84d:	0f 1f 00             	nopl   (%rax)
  40d850:	48 8b 07             	mov    (%rdi),%rax
  40d853:	31 d2                	xor    %edx,%edx
  40d855:	48 f7 f6             	div    %rsi
  40d858:	48 89 d0             	mov    %rdx,%rax
  40d85b:	c3                   	retq   
  40d85c:	0f 1f 40 00          	nopl   0x0(%rax)
  40d860:	48 8b 06             	mov    (%rsi),%rax
  40d863:	48 39 07             	cmp    %rax,(%rdi)
  40d866:	0f 94 c0             	sete   %al
  40d869:	c3                   	retq   
  40d86a:	66 0f 1f 44 00 00    	nopw   0x0(%rax,%rax,1)
  40d870:	48 8b 16             	mov    (%rsi),%rdx
  40d873:	48 8b 0f             	mov    (%rdi),%rcx
  40d876:	31 f6                	xor    %esi,%esi
  40d878:	48 8b 82 80 00 00 00 	mov    0x80(%rdx),%rax
  40d87f:	48 39 81 80 00 00 00 	cmp    %rax,0x80(%rcx)
  40d886:	b8 ff ff ff ff       	mov    $0xffffffff,%eax
  40d88b:	40 0f 97 c6          	seta   %sil
  40d88f:	0f 43 c6             	cmovae %esi,%eax
  40d892:	c3                   	retq   
  40d893:	66 66 66 66 2e 0f 1f 	data32 data32 data32 nopw %cs:0x0(%rax,%rax,1)
  40d89a:	84 00 00 00 00 00 
  40d8a0:	41 55                	push   %r13
  40d8a2:	41 54                	push   %r12
  40d8a4:	49 89 d4             	mov    %rdx,%r12
  40d8a7:	55                   	push   %rbp
  40d8a8:	48 89 fd             	mov    %rdi,%rbp
  40d8ab:	53                   	push   %rbx
  40d8ac:	48 89 f3             	mov    %rsi,%rbx
  40d8af:	48 83 ec 08          	sub    $0x8,%rsp
  40d8b3:	48 39 57 38          	cmp    %rdx,0x38(%rdi)
  40d8b7:	4c 8b 6f 40          	mov    0x40(%rdi),%r13
  40d8bb:	0f 82 87 00 00 00    	jb     40d948 <__sprintf_chk@plt+0xb448>
  40d8c1:	48 8b 47 10          	mov    0x10(%rdi),%rax
  40d8c5:	48 85 db             	test   %rbx,%rbx
  40d8c8:	0f 84 de 00 00 00    	je     40d9ac <__sprintf_chk@plt+0xb4ac>
  40d8ce:	66 90                	xchg   %ax,%ax
  40d8d0:	48 83 c0 08          	add    $0x8,%rax
  40d8d4:	48 89 58 f8          	mov    %rbx,-0x8(%rax)
  40d8d8:	48 8b 5b 10          	mov    0x10(%rbx),%rbx
  40d8dc:	48 85 db             	test   %rbx,%rbx
  40d8df:	75 ef                	jne    40d8d0 <__sprintf_chk@plt+0xb3d0>
  40d8e1:	48 8b 7d 10          	mov    0x10(%rbp),%rdi
  40d8e5:	ba 08 00 00 00       	mov    $0x8,%edx
  40d8ea:	4c 89 e9             	mov    %r13,%rcx
  40d8ed:	4c 89 e6             	mov    %r12,%rsi
  40d8f0:	e8 7b 46 ff ff       	callq  401f70 <qsort@plt>
  40d8f5:	48 8b 55 10          	mov    0x10(%rbp),%rdx
  40d8f9:	4c 89 e7             	mov    %r12,%rdi
  40d8fc:	48 83 ef 01          	sub    $0x1,%rdi
  40d900:	48 8b 02             	mov    (%rdx),%rax
  40d903:	0f 84 9e 00 00 00    	je     40d9a7 <__sprintf_chk@plt+0xb4a7>
  40d909:	49 89 c1             	mov    %rax,%r9
  40d90c:	48 89 d1             	mov    %rdx,%rcx
  40d90f:	eb 0a                	jmp    40d91b <__sprintf_chk@plt+0xb41b>
  40d911:	0f 1f 80 00 00 00 00 	nopl   0x0(%rax)
  40d918:	4c 8b 09             	mov    (%rcx),%r9
  40d91b:	4c 8b 41 08          	mov    0x8(%rcx),%r8
  40d91f:	48 83 c1 08          	add    $0x8,%rcx
  40d923:	48 83 ef 01          	sub    $0x1,%rdi
  40d927:	4d 89 41 10          	mov    %r8,0x10(%r9)
  40d92b:	75 eb                	jne    40d918 <__sprintf_chk@plt+0xb418>
  40d92d:	4a 8b 54 e2 f8       	mov    -0x8(%rdx,%r12,8),%rdx
  40d932:	48 c7 42 10 00 00 00 	movq   $0x0,0x10(%rdx)
  40d939:	00 
  40d93a:	48 83 c4 08          	add    $0x8,%rsp
  40d93e:	5b                   	pop    %rbx
  40d93f:	5d                   	pop    %rbp
  40d940:	41 5c                	pop    %r12
  40d942:	41 5d                	pop    %r13
  40d944:	c3                   	retq   
  40d945:	0f 1f 00             	nopl   (%rax)
  40d948:	48 8d 72 28          	lea    0x28(%rdx),%rsi
  40d94c:	48 b8 ff ff ff ff ff 	movabs $0x1fffffffffffffff,%rax
  40d953:	ff ff 1f 
  40d956:	48 39 c6             	cmp    %rax,%rsi
  40d959:	48 89 77 38          	mov    %rsi,0x38(%rdi)
  40d95d:	77 21                	ja     40d980 <__sprintf_chk@plt+0xb480>
  40d95f:	48 8b 7f 10          	mov    0x10(%rdi),%rdi
  40d963:	48 c1 e6 03          	shl    $0x3,%rsi
  40d967:	e8 d4 49 ff ff       	callq  402340 <realloc@plt>
  40d96c:	48 85 c0             	test   %rax,%rax
  40d96f:	74 0f                	je     40d980 <__sprintf_chk@plt+0xb480>
  40d971:	48 89 45 10          	mov    %rax,0x10(%rbp)
  40d975:	e9 4b ff ff ff       	jmpq   40d8c5 <__sprintf_chk@plt+0xb3c5>
  40d97a:	66 0f 1f 44 00 00    	nopw   0x0(%rax,%rax,1)
  40d980:	48 8b 7d 10          	mov    0x10(%rbp),%rdi
  40d984:	e8 47 45 ff ff       	callq  401ed0 <free@plt>
  40d989:	48 c7 45 10 00 00 00 	movq   $0x0,0x10(%rbp)
  40d990:	00 
  40d991:	48 c7 45 38 00 00 00 	movq   $0x0,0x38(%rbp)
  40d998:	00 
  40d999:	48 83 c4 08          	add    $0x8,%rsp
  40d99d:	48 89 d8             	mov    %rbx,%rax
  40d9a0:	5b                   	pop    %rbx
  40d9a1:	5d                   	pop    %rbp
  40d9a2:	41 5c                	pop    %r12
  40d9a4:	41 5d                	pop    %r13
  40d9a6:	c3                   	retq   
  40d9a7:	48 89 c2             	mov    %rax,%rdx
  40d9aa:	eb 86                	jmp    40d932 <__sprintf_chk@plt+0xb432>
  40d9ac:	48 89 c7             	mov    %rax,%rdi
  40d9af:	e9 31 ff ff ff       	jmpq   40d8e5 <__sprintf_chk@plt+0xb3e5>
  40d9b4:	66 66 66 2e 0f 1f 84 	data32 data32 nopw %cs:0x0(%rax,%rax,1)
  40d9bb:	00 00 00 00 00 
  40d9c0:	41 55                	push   %r13
  40d9c2:	49 89 f5             	mov    %rsi,%r13
  40d9c5:	41 54                	push   %r12
  40d9c7:	49 89 fc             	mov    %rdi,%r12
  40d9ca:	48 8d ba 10 01 00 00 	lea    0x110(%rdx),%rdi
  40d9d1:	55                   	push   %rbp
  40d9d2:	48 89 d5             	mov    %rdx,%rbp
  40d9d5:	53                   	push   %rbx
  40d9d6:	48 83 ec 08          	sub    $0x8,%rsp
  40d9da:	e8 b1 48 ff ff       	callq  402290 <malloc@plt>
  40d9df:	48 85 c0             	test   %rax,%rax
  40d9e2:	48 89 c3             	mov    %rax,%rbx
  40d9e5:	74 59                	je     40da40 <__sprintf_chk@plt+0xb540>
  40d9e7:	48 8d b8 08 01 00 00 	lea    0x108(%rax),%rdi
  40d9ee:	48 89 ea             	mov    %rbp,%rdx
  40d9f1:	4c 89 ee             	mov    %r13,%rsi
  40d9f4:	e8 37 48 ff ff       	callq  402230 <memcpy@plt>
  40d9f9:	c6 84 2b 08 01 00 00 	movb   $0x0,0x108(%rbx,%rbp,1)
  40da00:	00 
  40da01:	49 8b 44 24 20       	mov    0x20(%r12),%rax
  40da06:	ba 03 00 00 00       	mov    $0x3,%edx
  40da0b:	48 89 6b 60          	mov    %rbp,0x60(%rbx)
  40da0f:	4c 89 63 50          	mov    %r12,0x50(%rbx)
  40da13:	c7 43 40 00 00 00 00 	movl   $0x0,0x40(%rbx)
  40da1a:	48 c7 43 18 00 00 00 	movq   $0x0,0x18(%rbx)
  40da21:	00 
  40da22:	48 89 43 38          	mov    %rax,0x38(%rbx)
  40da26:	31 c0                	xor    %eax,%eax
  40da28:	66 89 53 74          	mov    %dx,0x74(%rbx)
  40da2c:	66 89 43 72          	mov    %ax,0x72(%rbx)
  40da30:	48 c7 43 20 00 00 00 	movq   $0x0,0x20(%rbx)
  40da37:	00 
  40da38:	48 c7 43 28 00 00 00 	movq   $0x0,0x28(%rbx)
  40da3f:	00 
  40da40:	48 83 c4 08          	add    $0x8,%rsp
  40da44:	48 89 d8             	mov    %rbx,%rax
  40da47:	5b                   	pop    %rbx
  40da48:	5d                   	pop    %rbp
  40da49:	41 5c                	pop    %r12
  40da4b:	41 5d                	pop    %r13
  40da4d:	c3                   	retq   
  40da4e:	66 90                	xchg   %ax,%ax
  40da50:	55                   	push   %rbp
  40da51:	53                   	push   %rbx
  40da52:	48 89 fb             	mov    %rdi,%rbx
  40da55:	48 83 ec 08          	sub    $0x8,%rsp
  40da59:	48 85 ff             	test   %rdi,%rdi
  40da5c:	75 05                	jne    40da63 <__sprintf_chk@plt+0xb563>
  40da5e:	eb 22                	jmp    40da82 <__sprintf_chk@plt+0xb582>
  40da60:	48 89 eb             	mov    %rbp,%rbx
  40da63:	48 8b 7b 18          	mov    0x18(%rbx),%rdi
  40da67:	48 8b 6b 10          	mov    0x10(%rbx),%rbp
  40da6b:	48 85 ff             	test   %rdi,%rdi
  40da6e:	74 05                	je     40da75 <__sprintf_chk@plt+0xb575>
  40da70:	e8 db 46 ff ff       	callq  402150 <closedir@plt>
  40da75:	48 89 df             	mov    %rbx,%rdi
  40da78:	e8 53 44 ff ff       	callq  401ed0 <free@plt>
  40da7d:	48 85 ed             	test   %rbp,%rbp
  40da80:	75 de                	jne    40da60 <__sprintf_chk@plt+0xb560>
  40da82:	48 83 c4 08          	add    $0x8,%rsp
  40da86:	5b                   	pop    %rbx
  40da87:	5d                   	pop    %rbp
  40da88:	c3                   	retq   
  40da89:	0f 1f 80 00 00 00 00 	nopl   0x0(%rax)
  40da90:	53                   	push   %rbx
  40da91:	48 89 fb             	mov    %rdi,%rbx
  40da94:	eb 16                	jmp    40daac <__sprintf_chk@plt+0xb5ac>
  40da96:	66 2e 0f 1f 84 00 00 	nopw   %cs:0x0(%rax,%rax,1)
  40da9d:	00 00 00 
  40daa0:	48 89 df             	mov    %rbx,%rdi
  40daa3:	e8 a8 2a 00 00       	callq  410550 <fts_children+0xb90>
  40daa8:	85 c0                	test   %eax,%eax
  40daaa:	79 14                	jns    40dac0 <__sprintf_chk@plt+0xb5c0>
  40daac:	48 89 df             	mov    %rbx,%rdi
  40daaf:	e8 4c 2a 00 00       	callq  410500 <fts_children+0xb40>
  40dab4:	84 c0                	test   %al,%al
  40dab6:	74 e8                	je     40daa0 <__sprintf_chk@plt+0xb5a0>
  40dab8:	5b                   	pop    %rbx
  40dab9:	c3                   	retq   
  40daba:	66 0f 1f 44 00 00    	nopw   0x0(%rax,%rax,1)
  40dac0:	89 c7                	mov    %eax,%edi
  40dac2:	e8 79 46 ff ff       	callq  402140 <close@plt>
  40dac7:	eb e3                	jmp    40daac <__sprintf_chk@plt+0xb5ac>
  40dac9:	0f 1f 80 00 00 00 00 	nopl   0x0(%rax)
  40dad0:	55                   	push   %rbp
  40dad1:	89 f5                	mov    %esi,%ebp
  40dad3:	53                   	push   %rbx
  40dad4:	48 89 fb             	mov    %rdi,%rbx
  40dad7:	48 83 ec 08          	sub    $0x8,%rsp
  40dadb:	8b 77 2c             	mov    0x2c(%rdi),%esi
  40dade:	39 ee                	cmp    %ebp,%esi
  40dae0:	74 44                	je     40db26 <__sprintf_chk@plt+0xb626>
  40dae2:	84 d2                	test   %dl,%dl
  40dae4:	75 22                	jne    40db08 <__sprintf_chk@plt+0xb608>
  40dae6:	f6 43 48 04          	testb  $0x4,0x48(%rbx)
  40daea:	75 0d                	jne    40daf9 <__sprintf_chk@plt+0xb5f9>
  40daec:	85 f6                	test   %esi,%esi
  40daee:	66 90                	xchg   %ax,%ax
  40daf0:	78 07                	js     40daf9 <__sprintf_chk@plt+0xb5f9>
  40daf2:	89 f7                	mov    %esi,%edi
  40daf4:	e8 47 46 ff ff       	callq  402140 <close@plt>
  40daf9:	89 6b 2c             	mov    %ebp,0x2c(%rbx)
  40dafc:	48 83 c4 08          	add    $0x8,%rsp
  40db00:	5b                   	pop    %rbx
  40db01:	5d                   	pop    %rbp
  40db02:	c3                   	retq   
  40db03:	0f 1f 44 00 00       	nopl   0x0(%rax,%rax,1)
  40db08:	48 8d 7b 60          	lea    0x60(%rbx),%rdi
  40db0c:	e8 ff 29 00 00       	callq  410510 <fts_children+0xb50>
  40db11:	85 c0                	test   %eax,%eax
  40db13:	78 e4                	js     40daf9 <__sprintf_chk@plt+0xb5f9>
  40db15:	89 c7                	mov    %eax,%edi
  40db17:	e8 24 46 ff ff       	callq  402140 <close@plt>
  40db1c:	89 6b 2c             	mov    %ebp,0x2c(%rbx)
  40db1f:	48 83 c4 08          	add    $0x8,%rsp
  40db23:	5b                   	pop    %rbx
  40db24:	5d                   	pop    %rbp
  40db25:	c3                   	retq   
  40db26:	83 fe 9c             	cmp    $0xffffff9c,%esi
  40db29:	74 b7                	je     40dae2 <__sprintf_chk@plt+0xb5e2>
  40db2b:	e8 d0 43 ff ff       	callq  401f00 <abort@plt>
  40db30:	55                   	push   %rbp
  40db31:	31 ed                	xor    %ebp,%ebp
  40db33:	53                   	push   %rbx
  40db34:	48 89 fb             	mov    %rdi,%rbx
  40db37:	48 83 ec 08          	sub    $0x8,%rsp
  40db3b:	8b 57 48             	mov    0x48(%rdi),%edx
  40db3e:	f6 c2 04             	test   $0x4,%dl
  40db41:	75 14                	jne    40db57 <__sprintf_chk@plt+0xb657>
  40db43:	80 e6 02             	and    $0x2,%dh
  40db46:	74 28                	je     40db70 <__sprintf_chk@plt+0xb670>
  40db48:	ba 01 00 00 00       	mov    $0x1,%edx
  40db4d:	be 9c ff ff ff       	mov    $0xffffff9c,%esi
  40db52:	e8 79 ff ff ff       	callq  40dad0 <__sprintf_chk@plt+0xb5d0>
  40db57:	48 8d 7b 60          	lea    0x60(%rbx),%rdi
  40db5b:	e8 30 ff ff ff       	callq  40da90 <__sprintf_chk@plt+0xb590>
  40db60:	48 83 c4 08          	add    $0x8,%rsp
  40db64:	89 e8                	mov    %ebp,%eax
  40db66:	5b                   	pop    %rbx
  40db67:	5d                   	pop    %rbp
  40db68:	c3                   	retq   
  40db69:	0f 1f 80 00 00 00 00 	nopl   0x0(%rax)
  40db70:	8b 7f 28             	mov    0x28(%rdi),%edi
  40db73:	31 ed                	xor    %ebp,%ebp
  40db75:	e8 b6 47 ff ff       	callq  402330 <fchdir@plt>
  40db7a:	85 c0                	test   %eax,%eax
  40db7c:	40 0f 95 c5          	setne  %bpl
  40db80:	eb d5                	jmp    40db57 <__sprintf_chk@plt+0xb657>
  40db82:	66 66 66 66 66 2e 0f 	data32 data32 data32 data32 nopw %cs:0x0(%rax,%rax,1)
  40db89:	1f 84 00 00 00 00 00 
  40db90:	41 55                	push   %r13
  40db92:	41 54                	push   %r12
  40db94:	49 89 f4             	mov    %rsi,%r12
  40db97:	55                   	push   %rbp
  40db98:	48 8d 6a 78          	lea    0x78(%rdx),%rbp
  40db9c:	53                   	push   %rbx
  40db9d:	48 89 d3             	mov    %rdx,%rbx
  40dba0:	48 83 ec 08          	sub    $0x8,%rsp
  40dba4:	48 83 7a 58 00       	cmpq   $0x0,0x58(%rdx)
  40dba9:	8b 06                	mov    (%rsi),%eax
  40dbab:	75 04                	jne    40dbb1 <__sprintf_chk@plt+0xb6b1>
  40dbad:	a8 01                	test   $0x1,%al
  40dbaf:	75 0c                	jne    40dbbd <__sprintf_chk@plt+0xb6bd>
  40dbb1:	a8 02                	test   $0x2,%al
  40dbb3:	75 08                	jne    40dbbd <__sprintf_chk@plt+0xb6bd>
  40dbb5:	84 c9                	test   %cl,%cl
  40dbb7:	0f 84 9b 00 00 00    	je     40dc58 <__sprintf_chk@plt+0xb758>
  40dbbd:	48 8b 73 30          	mov    0x30(%rbx),%rsi
  40dbc1:	48 89 ea             	mov    %rbp,%rdx
  40dbc4:	bf 01 00 00 00       	mov    $0x1,%edi
  40dbc9:	e8 82 46 ff ff       	callq  402250 <__xstat@plt>
  40dbce:	85 c0                	test   %eax,%eax
  40dbd0:	0f 84 a2 00 00 00    	je     40dc78 <__sprintf_chk@plt+0xb778>
  40dbd6:	e8 35 43 ff ff       	callq  401f10 <__errno_location@plt>
  40dbdb:	44 8b 20             	mov    (%rax),%r12d
  40dbde:	49 89 c5             	mov    %rax,%r13
  40dbe1:	41 83 fc 02          	cmp    $0x2,%r12d
  40dbe5:	0f 84 95 01 00 00    	je     40dd80 <__sprintf_chk@plt+0xb880>
  40dbeb:	44 89 63 40          	mov    %r12d,0x40(%rbx)
  40dbef:	40 f6 c5 01          	test   $0x1,%bpl
  40dbf3:	48 89 ef             	mov    %rbp,%rdi
  40dbf6:	ba 90 00 00 00       	mov    $0x90,%edx
  40dbfb:	0f 85 67 01 00 00    	jne    40dd68 <__sprintf_chk@plt+0xb868>
  40dc01:	40 f6 c7 02          	test   $0x2,%dil
  40dc05:	0f 85 45 01 00 00    	jne    40dd50 <__sprintf_chk@plt+0xb850>
  40dc0b:	40 f6 c7 04          	test   $0x4,%dil
  40dc0f:	0f 85 23 01 00 00    	jne    40dd38 <__sprintf_chk@plt+0xb838>
  40dc15:	89 d1                	mov    %edx,%ecx
  40dc17:	31 c0                	xor    %eax,%eax
  40dc19:	c1 e9 03             	shr    $0x3,%ecx
  40dc1c:	f6 c2 04             	test   $0x4,%dl
  40dc1f:	f3 48 ab             	rep stos %rax,%es:(%rdi)
  40dc22:	74 0a                	je     40dc2e <__sprintf_chk@plt+0xb72e>
  40dc24:	c7 07 00 00 00 00    	movl   $0x0,(%rdi)
  40dc2a:	48 83 c7 04          	add    $0x4,%rdi
  40dc2e:	f6 c2 02             	test   $0x2,%dl
  40dc31:	74 0a                	je     40dc3d <__sprintf_chk@plt+0xb73d>
  40dc33:	31 c0                	xor    %eax,%eax
  40dc35:	48 83 c7 02          	add    $0x2,%rdi
  40dc39:	66 89 47 fe          	mov    %ax,-0x2(%rdi)
  40dc3d:	83 e2 01             	and    $0x1,%edx
  40dc40:	74 03                	je     40dc45 <__sprintf_chk@plt+0xb745>
  40dc42:	c6 07 00             	movb   $0x0,(%rdi)
  40dc45:	b8 0a 00 00 00       	mov    $0xa,%eax
  40dc4a:	48 83 c4 08          	add    $0x8,%rsp
  40dc4e:	5b                   	pop    %rbx
  40dc4f:	5d                   	pop    %rbp
  40dc50:	41 5c                	pop    %r12
  40dc52:	41 5d                	pop    %r13
  40dc54:	c3                   	retq   
  40dc55:	0f 1f 00             	nopl   (%rax)
  40dc58:	48 8b 53 30          	mov    0x30(%rbx),%rdx
  40dc5c:	89 fe                	mov    %edi,%esi
  40dc5e:	41 b8 00 01 00 00    	mov    $0x100,%r8d
  40dc64:	48 89 e9             	mov    %rbp,%rcx
  40dc67:	bf 01 00 00 00       	mov    $0x1,%edi
  40dc6c:	e8 1f 44 ff ff       	callq  402090 <__fxstatat@plt>
  40dc71:	85 c0                	test   %eax,%eax
  40dc73:	75 43                	jne    40dcb8 <__sprintf_chk@plt+0xb7b8>
  40dc75:	0f 1f 00             	nopl   (%rax)
  40dc78:	8b 93 90 00 00 00    	mov    0x90(%rbx),%edx
  40dc7e:	81 e2 00 f0 00 00    	and    $0xf000,%edx
  40dc84:	81 fa 00 40 00 00    	cmp    $0x4000,%edx
  40dc8a:	74 44                	je     40dcd0 <__sprintf_chk@plt+0xb7d0>
  40dc8c:	81 fa 00 a0 00 00    	cmp    $0xa000,%edx
  40dc92:	b8 0c 00 00 00       	mov    $0xc,%eax
  40dc97:	74 b1                	je     40dc4a <__sprintf_chk@plt+0xb74a>
  40dc99:	31 c0                	xor    %eax,%eax
  40dc9b:	81 fa 00 80 00 00    	cmp    $0x8000,%edx
  40dca1:	0f 94 c0             	sete   %al
  40dca4:	48 83 c4 08          	add    $0x8,%rsp
  40dca8:	5b                   	pop    %rbx
  40dca9:	5d                   	pop    %rbp
  40dcaa:	41 5c                	pop    %r12
  40dcac:	8d 44 80 03          	lea    0x3(%rax,%rax,4),%eax
  40dcb0:	41 5d                	pop    %r13
  40dcb2:	c3                   	retq   
  40dcb3:	0f 1f 44 00 00       	nopl   0x0(%rax,%rax,1)
  40dcb8:	e8 53 42 ff ff       	callq  401f10 <__errno_location@plt>
  40dcbd:	8b 00                	mov    (%rax),%eax
  40dcbf:	89 43 40             	mov    %eax,0x40(%rbx)
  40dcc2:	e9 28 ff ff ff       	jmpq   40dbef <__sprintf_chk@plt+0xb6ef>
  40dcc7:	66 0f 1f 84 00 00 00 	nopw   0x0(%rax,%rax,1)
  40dcce:	00 00 
  40dcd0:	41 8b 14 24          	mov    (%r12),%edx
  40dcd4:	48 8b 83 88 00 00 00 	mov    0x88(%rbx),%rax
  40dcdb:	83 e2 20             	and    $0x20,%edx
  40dcde:	83 fa 01             	cmp    $0x1,%edx
  40dce1:	48 19 d2             	sbb    %rdx,%rdx
  40dce4:	83 e2 02             	and    $0x2,%edx
  40dce7:	48 29 d0             	sub    %rdx,%rax
  40dcea:	80 bb 08 01 00 00 2e 	cmpb   $0x2e,0x108(%rbx)
  40dcf1:	48 89 43 68          	mov    %rax,0x68(%rbx)
  40dcf5:	b8 01 00 00 00       	mov    $0x1,%eax
  40dcfa:	0f 85 4a ff ff ff    	jne    40dc4a <__sprintf_chk@plt+0xb74a>
  40dd00:	80 bb 09 01 00 00 00 	cmpb   $0x0,0x109(%rbx)
  40dd07:	74 18                	je     40dd21 <__sprintf_chk@plt+0xb821>
  40dd09:	8b 93 08 01 00 00    	mov    0x108(%rbx),%edx
  40dd0f:	81 e2 00 ff ff 00    	and    $0xffff00,%edx
  40dd15:	81 fa 00 2e 00 00    	cmp    $0x2e00,%edx
  40dd1b:	0f 85 29 ff ff ff    	jne    40dc4a <__sprintf_chk@plt+0xb74a>
  40dd21:	48 83 7b 58 01       	cmpq   $0x1,0x58(%rbx)
  40dd26:	19 c0                	sbb    %eax,%eax
  40dd28:	83 e0 fc             	and    $0xfffffffc,%eax
  40dd2b:	83 c0 05             	add    $0x5,%eax
  40dd2e:	e9 17 ff ff ff       	jmpq   40dc4a <__sprintf_chk@plt+0xb74a>
  40dd33:	0f 1f 44 00 00       	nopl   0x0(%rax,%rax,1)
  40dd38:	c7 07 00 00 00 00    	movl   $0x0,(%rdi)
  40dd3e:	83 ea 04             	sub    $0x4,%edx
  40dd41:	48 83 c7 04          	add    $0x4,%rdi
  40dd45:	e9 cb fe ff ff       	jmpq   40dc15 <__sprintf_chk@plt+0xb715>
  40dd4a:	66 0f 1f 44 00 00    	nopw   0x0(%rax,%rax,1)
  40dd50:	31 c9                	xor    %ecx,%ecx
  40dd52:	48 83 c7 02          	add    $0x2,%rdi
  40dd56:	83 ea 02             	sub    $0x2,%edx
  40dd59:	66 89 4f fe          	mov    %cx,-0x2(%rdi)
  40dd5d:	e9 a9 fe ff ff       	jmpq   40dc0b <__sprintf_chk@plt+0xb70b>
  40dd62:	66 0f 1f 44 00 00    	nopw   0x0(%rax,%rax,1)
  40dd68:	c6 43 78 00          	movb   $0x0,0x78(%rbx)
  40dd6c:	48 83 c7 01          	add    $0x1,%rdi
  40dd70:	b2 8f                	mov    $0x8f,%dl
  40dd72:	e9 8a fe ff ff       	jmpq   40dc01 <__sprintf_chk@plt+0xb701>
  40dd77:	66 0f 1f 84 00 00 00 	nopw   0x0(%rax,%rax,1)
  40dd7e:	00 00 
  40dd80:	48 8b 73 30          	mov    0x30(%rbx),%rsi
  40dd84:	48 89 ea             	mov    %rbp,%rdx
  40dd87:	bf 01 00 00 00       	mov    $0x1,%edi
  40dd8c:	e8 8f 42 ff ff       	callq  402020 <__lxstat@plt>
  40dd91:	85 c0                	test   %eax,%eax
  40dd93:	0f 85 52 fe ff ff    	jne    40dbeb <__sprintf_chk@plt+0xb6eb>
  40dd99:	41 c7 45 00 00 00 00 	movl   $0x0,0x0(%r13)
  40dda0:	00 
  40dda1:	b0 0d                	mov    $0xd,%al
  40dda3:	e9 a2 fe ff ff       	jmpq   40dc4a <__sprintf_chk@plt+0xb74a>
  40dda8:	0f 1f 84 00 00 00 00 	nopl   0x0(%rax,%rax,1)
  40ddaf:	00 
  40ddb0:	53                   	push   %rbx
  40ddb1:	48 8b 0e             	mov    (%rsi),%rcx
  40ddb4:	48 89 fb             	mov    %rdi,%rbx
  40ddb7:	48 8d 84 11 00 01 00 	lea    0x100(%rcx,%rdx,1),%rax
  40ddbe:	00 
  40ddbf:	48 39 c1             	cmp    %rax,%rcx
  40ddc2:	77 24                	ja     40dde8 <__sprintf_chk@plt+0xb8e8>
  40ddc4:	48 8b 3f             	mov    (%rdi),%rdi
  40ddc7:	48 89 06             	mov    %rax,(%rsi)
  40ddca:	48 89 c6             	mov    %rax,%rsi
  40ddcd:	e8 6e 45 ff ff       	callq  402340 <realloc@plt>
  40ddd2:	48 85 c0             	test   %rax,%rax
  40ddd5:	74 39                	je     40de10 <__sprintf_chk@plt+0xb910>
  40ddd7:	48 89 03             	mov    %rax,(%rbx)
  40ddda:	b8 01 00 00 00       	mov    $0x1,%eax
  40dddf:	5b                   	pop    %rbx
  40dde0:	c3                   	retq   
  40dde1:	0f 1f 80 00 00 00 00 	nopl   0x0(%rax)
  40dde8:	48 8b 3f             	mov    (%rdi),%rdi
  40ddeb:	e8 e0 40 ff ff       	callq  401ed0 <free@plt>
  40ddf0:	48 c7 03 00 00 00 00 	movq   $0x0,(%rbx)
  40ddf7:	e8 14 41 ff ff       	callq  401f10 <__errno_location@plt>
  40ddfc:	c7 00 24 00 00 00    	movl   $0x24,(%rax)
  40de02:	31 c0                	xor    %eax,%eax
  40de04:	5b                   	pop    %rbx
  40de05:	c3                   	retq   
  40de06:	66 2e 0f 1f 84 00 00 	nopw   %cs:0x0(%rax,%rax,1)
  40de0d:	00 00 00 
  40de10:	48 8b 3b             	mov    (%rbx),%rdi
  40de13:	e8 b8 40 ff ff       	callq  401ed0 <free@plt>
  40de18:	48 c7 03 00 00 00 00 	movq   $0x0,(%rbx)
  40de1f:	31 c0                	xor    %eax,%eax
  40de21:	5b                   	pop    %rbx
  40de22:	c3                   	retq   
  40de23:	66 66 66 66 2e 0f 1f 	data32 data32 data32 nopw %cs:0x0(%rax,%rax,1)
  40de2a:	84 00 00 00 00 00 
  40de30:	81 e7 02 01 00 00    	and    $0x102,%edi
  40de36:	53                   	push   %rbx
  40de37:	48 89 f3             	mov    %rsi,%rbx
  40de3a:	74 2c                	je     40de68 <__sprintf_chk@plt+0xb968>
  40de3c:	31 f6                	xor    %esi,%esi
  40de3e:	41 b8 d0 1e 40 00    	mov    $0x401ed0,%r8d
  40de44:	b9 20 d8 40 00       	mov    $0x40d820,%ecx
  40de49:	ba 40 d8 40 00       	mov    $0x40d840,%edx
  40de4e:	bf 1f 00 00 00       	mov    $0x1f,%edi
  40de53:	e8 98 97 ff ff       	callq  4075f0 <__sprintf_chk@plt+0x50f0>
  40de58:	48 85 c0             	test   %rax,%rax
  40de5b:	48 89 03             	mov    %rax,(%rbx)
  40de5e:	0f 95 c0             	setne  %al
  40de61:	5b                   	pop    %rbx
  40de62:	c3                   	retq   
  40de63:	0f 1f 44 00 00       	nopl   0x0(%rax,%rax,1)
  40de68:	bf 20 00 00 00       	mov    $0x20,%edi
  40de6d:	e8 1e 44 ff ff       	callq  402290 <malloc@plt>
  40de72:	48 89 c7             	mov    %rax,%rdi
  40de75:	48 89 03             	mov    %rax,(%rbx)
  40de78:	31 c0                	xor    %eax,%eax
  40de7a:	48 85 ff             	test   %rdi,%rdi
  40de7d:	74 e2                	je     40de61 <__sprintf_chk@plt+0xb961>
  40de7f:	e8 5c 25 00 00       	callq  4103e0 <fts_children+0xa20>
  40de84:	b8 01 00 00 00       	mov    $0x1,%eax
  40de89:	5b                   	pop    %rbx
  40de8a:	c3                   	retq   
  40de8b:	0f 1f 44 00 00       	nopl   0x0(%rax,%rax,1)
  40de90:	89 f0                	mov    %esi,%eax
  40de92:	49 89 d0             	mov    %rdx,%r8
  40de95:	89 f2                	mov    %esi,%edx
  40de97:	83 e0 10             	and    $0x10,%eax
  40de9a:	53                   	push   %rbx
  40de9b:	83 f8 01             	cmp    $0x1,%eax
  40de9e:	19 c9                	sbb    %ecx,%ecx
  40dea0:	c1 e2 07             	shl    $0x7,%edx
  40dea3:	81 e1 00 00 fe ff    	and    $0xfffe0000,%ecx
  40dea9:	81 e2 00 00 04 00    	and    $0x40000,%edx
  40deaf:	81 c1 00 09 03 00    	add    $0x30900,%ecx
  40deb5:	09 ca                	or     %ecx,%edx
  40deb7:	81 e6 00 02 00 00    	and    $0x200,%esi
  40debd:	74 21                	je     40dee0 <__sprintf_chk@plt+0xb9e0>
  40debf:	4c 89 c6             	mov    %r8,%rsi
  40dec2:	31 c0                	xor    %eax,%eax
  40dec4:	e8 17 47 00 00       	callq  4125e0 <fts_children+0x2c20>
  40dec9:	89 c3                	mov    %eax,%ebx
  40decb:	85 db                	test   %ebx,%ebx
  40decd:	78 0c                	js     40dedb <__sprintf_chk@plt+0xb9db>
  40decf:	be 01 00 00 00       	mov    $0x1,%esi
  40ded4:	89 df                	mov    %ebx,%edi
  40ded6:	e8 15 24 00 00       	callq  4102f0 <fts_children+0x930>
  40dedb:	89 d8                	mov    %ebx,%eax
  40dedd:	5b                   	pop    %rbx
  40dede:	c3                   	retq   
  40dedf:	90                   	nop
  40dee0:	89 d6                	mov    %edx,%esi
  40dee2:	4c 89 c7             	mov    %r8,%rdi
  40dee5:	31 c0                	xor    %eax,%eax
  40dee7:	e8 94 25 00 00       	callq  410480 <fts_children+0xac0>
  40deec:	89 c3                	mov    %eax,%ebx
  40deee:	eb db                	jmp    40decb <__sprintf_chk@plt+0xb9cb>
  40def0:	41 55                	push   %r13
  40def2:	41 54                	push   %r12
  40def4:	49 89 f4             	mov    %rsi,%r12
  40def7:	55                   	push   %rbp
  40def8:	53                   	push   %rbx
  40def9:	48 89 d3             	mov    %rdx,%rbx
  40defc:	48 83 ec 18          	sub    $0x18,%rsp
  40df00:	81 e7 02 01 00 00    	and    $0x102,%edi
  40df06:	74 78                	je     40df80 <__sprintf_chk@plt+0xba80>
  40df08:	bf 18 00 00 00       	mov    $0x18,%edi
  40df0d:	e8 7e 43 ff ff       	callq  402290 <malloc@plt>
  40df12:	48 85 c0             	test   %rax,%rax
  40df15:	48 89 c5             	mov    %rax,%rbp
  40df18:	0f 84 a2 00 00 00    	je     40dfc0 <__sprintf_chk@plt+0xbac0>
  40df1e:	48 8b 43 78          	mov    0x78(%rbx),%rax
  40df22:	48 89 ee             	mov    %rbp,%rsi
  40df25:	48 89 45 00          	mov    %rax,0x0(%rbp)
  40df29:	48 8b 83 80 00 00 00 	mov    0x80(%rbx),%rax
  40df30:	48 89 5d 10          	mov    %rbx,0x10(%rbp)
  40df34:	49 8b 3c 24          	mov    (%r12),%rdi
  40df38:	48 89 45 08          	mov    %rax,0x8(%rbp)
  40df3c:	e8 ff 9d ff ff       	callq  407d40 <__sprintf_chk@plt+0x5840>
  40df41:	49 89 c5             	mov    %rax,%r13
  40df44:	b8 01 00 00 00       	mov    $0x1,%eax
  40df49:	4c 39 ed             	cmp    %r13,%rbp
  40df4c:	74 25                	je     40df73 <__sprintf_chk@plt+0xba73>
  40df4e:	48 89 ef             	mov    %rbp,%rdi
  40df51:	89 44 24 0c          	mov    %eax,0xc(%rsp)
  40df55:	e8 76 3f ff ff       	callq  401ed0 <free@plt>
  40df5a:	4d 85 ed             	test   %r13,%r13
  40df5d:	74 61                	je     40dfc0 <__sprintf_chk@plt+0xbac0>
  40df5f:	49 8b 55 10          	mov    0x10(%r13),%rdx
  40df63:	8b 44 24 0c          	mov    0xc(%rsp),%eax
  40df67:	b9 02 00 00 00       	mov    $0x2,%ecx
  40df6c:	66 89 4b 70          	mov    %cx,0x70(%rbx)
  40df70:	48 89 13             	mov    %rdx,(%rbx)
  40df73:	48 83 c4 18          	add    $0x18,%rsp
  40df77:	5b                   	pop    %rbx
  40df78:	5d                   	pop    %rbp
  40df79:	41 5c                	pop    %r12
  40df7b:	41 5d                	pop    %r13
  40df7d:	c3                   	retq   
  40df7e:	66 90                	xchg   %ax,%ax
  40df80:	49 8b 3c 24          	mov    (%r12),%rdi
  40df84:	48 8d 72 78          	lea    0x78(%rdx),%rsi
  40df88:	e8 63 24 00 00       	callq  4103f0 <fts_children+0xa30>
  40df8d:	84 c0                	test   %al,%al
  40df8f:	74 1f                	je     40dfb0 <__sprintf_chk@plt+0xbab0>
  40df91:	ba 02 00 00 00       	mov    $0x2,%edx
  40df96:	48 89 1b             	mov    %rbx,(%rbx)
  40df99:	66 89 53 70          	mov    %dx,0x70(%rbx)
  40df9d:	48 83 c4 18          	add    $0x18,%rsp
  40dfa1:	5b                   	pop    %rbx
  40dfa2:	5d                   	pop    %rbp
  40dfa3:	41 5c                	pop    %r12
  40dfa5:	41 5d                	pop    %r13
  40dfa7:	c3                   	retq   
  40dfa8:	0f 1f 84 00 00 00 00 	nopl   0x0(%rax,%rax,1)
  40dfaf:	00 
  40dfb0:	48 83 c4 18          	add    $0x18,%rsp
  40dfb4:	b8 01 00 00 00       	mov    $0x1,%eax
  40dfb9:	5b                   	pop    %rbx
  40dfba:	5d                   	pop    %rbp
  40dfbb:	41 5c                	pop    %r12
  40dfbd:	41 5d                	pop    %r13
  40dfbf:	c3                   	retq   
  40dfc0:	48 83 c4 18          	add    $0x18,%rsp
  40dfc4:	31 c0                	xor    %eax,%eax
  40dfc6:	5b                   	pop    %rbx
  40dfc7:	5d                   	pop    %rbp
  40dfc8:	41 5c                	pop    %r12
  40dfca:	41 5d                	pop    %r13
  40dfcc:	c3                   	retq   
  40dfcd:	0f 1f 00             	nopl   (%rax)
  40dfd0:	41 57                	push   %r15
  40dfd2:	49 89 ff             	mov    %rdi,%r15
  40dfd5:	41 56                	push   %r14
  40dfd7:	41 55                	push   %r13
  40dfd9:	49 89 f5             	mov    %rsi,%r13
  40dfdc:	41 54                	push   %r12
  40dfde:	41 89 cc             	mov    %ecx,%r12d
  40dfe1:	31 c9                	xor    %ecx,%ecx
  40dfe3:	55                   	push   %rbp
  40dfe4:	53                   	push   %rbx
  40dfe5:	48 81 ec b8 00 00 00 	sub    $0xb8,%rsp
  40dfec:	4d 85 c0             	test   %r8,%r8
  40dfef:	48 89 54 24 08       	mov    %rdx,0x8(%rsp)
  40dff4:	74 15                	je     40e00b <__sprintf_chk@plt+0xbb0b>
  40dff6:	41 80 38 2e          	cmpb   $0x2e,(%r8)
  40dffa:	75 0f                	jne    40e00b <__sprintf_chk@plt+0xbb0b>
  40dffc:	41 80 78 01 2e       	cmpb   $0x2e,0x1(%r8)
  40e001:	75 08                	jne    40e00b <__sprintf_chk@plt+0xbb0b>
  40e003:	41 80 78 02 00       	cmpb   $0x0,0x2(%r8)
  40e008:	0f 94 c1             	sete   %cl
  40e00b:	41 8b 5f 48          	mov    0x48(%r15),%ebx
  40e00f:	89 dd                	mov    %ebx,%ebp
  40e011:	83 e5 04             	and    $0x4,%ebp
  40e014:	74 32                	je     40e048 <__sprintf_chk@plt+0xbb48>
  40e016:	81 e3 00 02 00 00    	and    $0x200,%ebx
  40e01c:	89 dd                	mov    %ebx,%ebp
  40e01e:	74 10                	je     40e030 <__sprintf_chk@plt+0xbb30>
  40e020:	31 ed                	xor    %ebp,%ebp
  40e022:	45 85 e4             	test   %r12d,%r12d
  40e025:	78 09                	js     40e030 <__sprintf_chk@plt+0xbb30>
  40e027:	44 89 e7             	mov    %r12d,%edi
  40e02a:	e8 11 41 ff ff       	callq  402140 <close@plt>
  40e02f:	90                   	nop
  40e030:	48 81 c4 b8 00 00 00 	add    $0xb8,%rsp
  40e037:	89 e8                	mov    %ebp,%eax
  40e039:	5b                   	pop    %rbx
  40e03a:	5d                   	pop    %rbp
  40e03b:	41 5c                	pop    %r12
  40e03d:	41 5d                	pop    %r13
  40e03f:	41 5e                	pop    %r14
  40e041:	41 5f                	pop    %r15
  40e043:	c3                   	retq   
  40e044:	0f 1f 40 00          	nopl   0x0(%rax)
  40e048:	44 89 e0             	mov    %r12d,%eax
  40e04b:	c1 e8 1f             	shr    $0x1f,%eax
  40e04e:	84 c9                	test   %cl,%cl
  40e050:	0f 85 8a 00 00 00    	jne    40e0e0 <__sprintf_chk@plt+0xbbe0>
  40e056:	84 c0                	test   %al,%al
  40e058:	0f 85 9b 01 00 00    	jne    40e1f9 <__sprintf_chk@plt+0xbcf9>
  40e05e:	45 89 e6             	mov    %r12d,%r14d
  40e061:	f6 c3 02             	test   $0x2,%bl
  40e064:	75 29                	jne    40e08f <__sprintf_chk@plt+0xbb8f>
  40e066:	4d 85 c0             	test   %r8,%r8
  40e069:	0f 84 d9 00 00 00    	je     40e148 <__sprintf_chk@plt+0xbc48>
  40e06f:	41 80 38 2e          	cmpb   $0x2e,(%r8)
  40e073:	0f 85 cf 00 00 00    	jne    40e148 <__sprintf_chk@plt+0xbc48>
  40e079:	41 80 78 01 2e       	cmpb   $0x2e,0x1(%r8)
  40e07e:	0f 85 c4 00 00 00    	jne    40e148 <__sprintf_chk@plt+0xbc48>
  40e084:	41 80 78 02 00       	cmpb   $0x0,0x2(%r8)
  40e089:	0f 85 b9 00 00 00    	jne    40e148 <__sprintf_chk@plt+0xbc48>
  40e08f:	48 8d 54 24 20       	lea    0x20(%rsp),%rdx
  40e094:	44 89 f6             	mov    %r14d,%esi
  40e097:	bf 01 00 00 00       	mov    $0x1,%edi
  40e09c:	89 4c 24 10          	mov    %ecx,0x10(%rsp)
  40e0a0:	e8 4b 42 ff ff       	callq  4022f0 <__fxstat@plt>
  40e0a5:	85 c0                	test   %eax,%eax
  40e0a7:	8b 4c 24 10          	mov    0x10(%rsp),%ecx
  40e0ab:	0f 84 af 00 00 00    	je     40e160 <__sprintf_chk@plt+0xbc60>
  40e0b1:	b8 ff ff ff ff       	mov    $0xffffffff,%eax
  40e0b6:	45 85 e4             	test   %r12d,%r12d
  40e0b9:	89 c5                	mov    %eax,%ebp
  40e0bb:	0f 89 6f ff ff ff    	jns    40e030 <__sprintf_chk@plt+0xbb30>
  40e0c1:	e8 4a 3e ff ff       	callq  401f10 <__errno_location@plt>
  40e0c6:	44 8b 20             	mov    (%rax),%r12d
  40e0c9:	48 89 c3             	mov    %rax,%rbx
  40e0cc:	44 89 f7             	mov    %r14d,%edi
  40e0cf:	e8 6c 40 ff ff       	callq  402140 <close@plt>
  40e0d4:	44 89 23             	mov    %r12d,(%rbx)
  40e0d7:	e9 54 ff ff ff       	jmpq   40e030 <__sprintf_chk@plt+0xbb30>
  40e0dc:	0f 1f 40 00          	nopl   0x0(%rax)
  40e0e0:	84 c0                	test   %al,%al
  40e0e2:	0f 84 76 ff ff ff    	je     40e05e <__sprintf_chk@plt+0xbb5e>
  40e0e8:	f6 c7 02             	test   $0x2,%bh
  40e0eb:	0f 85 8f 00 00 00    	jne    40e180 <__sprintf_chk@plt+0xbc80>
  40e0f1:	89 de                	mov    %ebx,%esi
  40e0f3:	b9 01 00 00 00       	mov    $0x1,%ecx
  40e0f8:	41 8b 7f 2c          	mov    0x2c(%r15),%edi
  40e0fc:	4c 89 c2             	mov    %r8,%rdx
  40e0ff:	89 4c 24 1c          	mov    %ecx,0x1c(%rsp)
  40e103:	4c 89 44 24 10       	mov    %r8,0x10(%rsp)
  40e108:	e8 83 fd ff ff       	callq  40de90 <__sprintf_chk@plt+0xb990>
  40e10d:	85 c0                	test   %eax,%eax
  40e10f:	41 89 c6             	mov    %eax,%r14d
  40e112:	0f 88 d7 00 00 00    	js     40e1ef <__sprintf_chk@plt+0xbcef>
  40e118:	41 8b 5f 48          	mov    0x48(%r15),%ebx
  40e11c:	4c 8b 44 24 10       	mov    0x10(%rsp),%r8
  40e121:	8b 4c 24 1c          	mov    0x1c(%rsp),%ecx
  40e125:	e9 37 ff ff ff       	jmpq   40e061 <__sprintf_chk@plt+0xbb61>
  40e12a:	66 0f 1f 44 00 00    	nopw   0x0(%rax,%rax,1)
  40e130:	48 8b 44 24 08       	mov    0x8(%rsp),%rax
  40e135:	48 8b 54 24 28       	mov    0x28(%rsp),%rdx
  40e13a:	48 39 10             	cmp    %rdx,(%rax)
  40e13d:	75 2c                	jne    40e16b <__sprintf_chk@plt+0xbc6b>
  40e13f:	41 8b 5f 48          	mov    0x48(%r15),%ebx
  40e143:	0f 1f 44 00 00       	nopl   0x0(%rax,%rax,1)
  40e148:	80 e7 02             	and    $0x2,%bh
  40e14b:	0f 85 7f 00 00 00    	jne    40e1d0 <__sprintf_chk@plt+0xbcd0>
  40e151:	44 89 f7             	mov    %r14d,%edi
  40e154:	e8 d7 41 ff ff       	callq  402330 <fchdir@plt>
  40e159:	e9 58 ff ff ff       	jmpq   40e0b6 <__sprintf_chk@plt+0xbbb6>
  40e15e:	66 90                	xchg   %ax,%ax
  40e160:	48 8b 44 24 20       	mov    0x20(%rsp),%rax
  40e165:	49 39 45 00          	cmp    %rax,0x0(%r13)
  40e169:	74 c5                	je     40e130 <__sprintf_chk@plt+0xbc30>
  40e16b:	e8 a0 3d ff ff       	callq  401f10 <__errno_location@plt>
  40e170:	c7 00 02 00 00 00    	movl   $0x2,(%rax)
  40e176:	e9 36 ff ff ff       	jmpq   40e0b1 <__sprintf_chk@plt+0xbbb1>
  40e17b:	0f 1f 44 00 00       	nopl   0x0(%rax,%rax,1)
  40e180:	4d 8d 77 60          	lea    0x60(%r15),%r14
  40e184:	4c 89 44 24 10       	mov    %r8,0x10(%rsp)
  40e189:	4c 89 f7             	mov    %r14,%rdi
  40e18c:	e8 6f 23 00 00       	callq  410500 <fts_children+0xb40>
  40e191:	84 c0                	test   %al,%al
  40e193:	89 de                	mov    %ebx,%esi
  40e195:	4c 8b 44 24 10       	mov    0x10(%rsp),%r8
  40e19a:	0f 85 53 ff ff ff    	jne    40e0f3 <__sprintf_chk@plt+0xbbf3>
  40e1a0:	4c 89 f7             	mov    %r14,%rdi
  40e1a3:	e8 a8 23 00 00       	callq  410550 <fts_children+0xb90>
  40e1a8:	85 c0                	test   %eax,%eax
  40e1aa:	41 89 c6             	mov    %eax,%r14d
  40e1ad:	4c 8b 44 24 10       	mov    0x10(%rsp),%r8
  40e1b2:	78 32                	js     40e1e6 <__sprintf_chk@plt+0xbce6>
  40e1b4:	41 8b 5f 48          	mov    0x48(%r15),%ebx
  40e1b8:	41 89 c4             	mov    %eax,%r12d
  40e1bb:	b9 01 00 00 00       	mov    $0x1,%ecx
  40e1c0:	f6 c3 02             	test   $0x2,%bl
  40e1c3:	74 83                	je     40e148 <__sprintf_chk@plt+0xbc48>
  40e1c5:	e9 c5 fe ff ff       	jmpq   40e08f <__sprintf_chk@plt+0xbb8f>
  40e1ca:	66 0f 1f 44 00 00    	nopw   0x0(%rax,%rax,1)
  40e1d0:	83 f1 01             	xor    $0x1,%ecx
  40e1d3:	44 89 f6             	mov    %r14d,%esi
  40e1d6:	4c 89 ff             	mov    %r15,%rdi
  40e1d9:	0f b6 d1             	movzbl %cl,%edx
  40e1dc:	e8 ef f8 ff ff       	callq  40dad0 <__sprintf_chk@plt+0xb5d0>
  40e1e1:	e9 4a fe ff ff       	jmpq   40e030 <__sprintf_chk@plt+0xbb30>
  40e1e6:	41 8b 77 48          	mov    0x48(%r15),%esi
  40e1ea:	e9 04 ff ff ff       	jmpq   40e0f3 <__sprintf_chk@plt+0xbbf3>
  40e1ef:	bd ff ff ff ff       	mov    $0xffffffff,%ebp
  40e1f4:	e9 37 fe ff ff       	jmpq   40e030 <__sprintf_chk@plt+0xbb30>
  40e1f9:	89 de                	mov    %ebx,%esi
  40e1fb:	e9 f8 fe ff ff       	jmpq   40e0f8 <__sprintf_chk@plt+0xbbf8>
  40e200:	48 83 ec 28          	sub    $0x28,%rsp
  40e204:	81 e7 02 01 00 00    	and    $0x102,%edi
  40e20a:	48 89 f1             	mov    %rsi,%rcx
  40e20d:	75 31                	jne    40e240 <__sprintf_chk@plt+0xbd40>
  40e20f:	48 8b 42 08          	mov    0x8(%rdx),%rax
  40e213:	48 85 c0             	test   %rax,%rax
  40e216:	74 1d                	je     40e235 <__sprintf_chk@plt+0xbd35>
  40e218:	48 83 78 58 00       	cmpq   $0x0,0x58(%rax)
  40e21d:	78 16                	js     40e235 <__sprintf_chk@plt+0xbd35>
  40e21f:	48 8b 0e             	mov    (%rsi),%rcx
  40e222:	48 83 79 10 00       	cmpq   $0x0,0x10(%rcx)
  40e227:	74 6d                	je     40e296 <__sprintf_chk@plt+0xbd96>
  40e229:	48 8b b2 80 00 00 00 	mov    0x80(%rdx),%rsi
  40e230:	48 39 31             	cmp    %rsi,(%rcx)
  40e233:	74 43                	je     40e278 <__sprintf_chk@plt+0xbd78>
  40e235:	48 83 c4 28          	add    $0x28,%rsp
  40e239:	c3                   	retq   
  40e23a:	66 0f 1f 44 00 00    	nopw   0x0(%rax,%rax,1)
  40e240:	48 8b 42 78          	mov    0x78(%rdx),%rax
  40e244:	48 8b 39             	mov    (%rcx),%rdi
  40e247:	48 89 e6             	mov    %rsp,%rsi
  40e24a:	48 89 04 24          	mov    %rax,(%rsp)
  40e24e:	48 8b 82 80 00 00 00 	mov    0x80(%rdx),%rax
  40e255:	48 89 44 24 08       	mov    %rax,0x8(%rsp)
  40e25a:	e8 21 9b ff ff       	callq  407d80 <__sprintf_chk@plt+0x5880>
  40e25f:	48 85 c0             	test   %rax,%rax
  40e262:	74 32                	je     40e296 <__sprintf_chk@plt+0xbd96>
  40e264:	48 89 c7             	mov    %rax,%rdi
  40e267:	e8 64 3c ff ff       	callq  401ed0 <free@plt>
  40e26c:	48 83 c4 28          	add    $0x28,%rsp
  40e270:	c3                   	retq   
  40e271:	0f 1f 80 00 00 00 00 	nopl   0x0(%rax)
  40e278:	48 8b 72 78          	mov    0x78(%rdx),%rsi
  40e27c:	48 39 71 08          	cmp    %rsi,0x8(%rcx)
  40e280:	75 b3                	jne    40e235 <__sprintf_chk@plt+0xbd35>
  40e282:	48 8b 50 78          	mov    0x78(%rax),%rdx
  40e286:	48 8b 80 80 00 00 00 	mov    0x80(%rax),%rax
  40e28d:	48 89 51 08          	mov    %rdx,0x8(%rcx)
  40e291:	48 89 01             	mov    %rax,(%rcx)
  40e294:	eb 9f                	jmp    40e235 <__sprintf_chk@plt+0xbd35>
  40e296:	e8 65 3c ff ff       	callq  401f00 <abort@plt>
  40e29b:	0f 1f 44 00 00       	nopl   0x0(%rax,%rax,1)
  40e2a0:	41 57                	push   %r15
  40e2a2:	41 56                	push   %r14
  40e2a4:	41 55                	push   %r13
  40e2a6:	41 54                	push   %r12
  40e2a8:	55                   	push   %rbp
  40e2a9:	53                   	push   %rbx
  40e2aa:	48 89 fb             	mov    %rdi,%rbx
  40e2ad:	48 81 ec e8 00 00 00 	sub    $0xe8,%rsp
  40e2b4:	4c 8b 2f             	mov    (%rdi),%r13
  40e2b7:	89 74 24 58          	mov    %esi,0x58(%rsp)
  40e2bb:	49 8b 7d 18          	mov    0x18(%r13),%rdi
  40e2bf:	48 85 ff             	test   %rdi,%rdi
  40e2c2:	0f 95 44 24 5e       	setne  0x5e(%rsp)
  40e2c7:	0f 85 2b 05 00 00    	jne    40e7f8 <__sprintf_chk@plt+0xc2f8>
  40e2cd:	8b 43 48             	mov    0x48(%rbx),%eax
  40e2d0:	ba 00 09 01 00       	mov    $0x10900,%edx
  40e2d5:	a8 10                	test   $0x10,%al
  40e2d7:	0f 85 b3 04 00 00    	jne    40e790 <__sprintf_chk@plt+0xc290>
  40e2dd:	8b 4b 48             	mov    0x48(%rbx),%ecx
  40e2e0:	c1 e0 07             	shl    $0x7,%eax
  40e2e3:	49 8b 75 30          	mov    0x30(%r13),%rsi
  40e2e7:	25 00 00 04 00       	and    $0x40000,%eax
  40e2ec:	bf 9c ff ff ff       	mov    $0xffffff9c,%edi
  40e2f1:	81 e1 04 02 00 00    	and    $0x204,%ecx
  40e2f7:	81 f9 00 02 00 00    	cmp    $0x200,%ecx
  40e2fd:	0f 84 05 06 00 00    	je     40e908 <__sprintf_chk@plt+0xc408>
  40e303:	09 c2                	or     %eax,%edx
  40e305:	31 c0                	xor    %eax,%eax
  40e307:	e8 d4 42 00 00       	callq  4125e0 <fts_children+0x2c20>
  40e30c:	85 c0                	test   %eax,%eax
  40e30e:	89 c5                	mov    %eax,%ebp
  40e310:	0f 88 63 07 00 00    	js     40ea79 <__sprintf_chk@plt+0xc579>
  40e316:	be 01 00 00 00       	mov    $0x1,%esi
  40e31b:	89 c7                	mov    %eax,%edi
  40e31d:	e8 ce 1f 00 00       	callq  4102f0 <fts_children+0x930>
  40e322:	89 ef                	mov    %ebp,%edi
  40e324:	e8 e7 40 ff ff       	callq  402410 <fdopendir@plt>
  40e329:	48 85 c0             	test   %rax,%rax
  40e32c:	0f 84 32 07 00 00    	je     40ea64 <__sprintf_chk@plt+0xc564>
  40e332:	66 41 83 7d 70 0b    	cmpw   $0xb,0x70(%r13)
  40e338:	49 89 45 18          	mov    %rax,0x18(%r13)
  40e33c:	0f 84 51 07 00 00    	je     40ea93 <__sprintf_chk@plt+0xc593>
  40e342:	8b 7b 48             	mov    0x48(%rbx),%edi
  40e345:	f7 c7 00 01 00 00    	test   $0x100,%edi
  40e34b:	0f 85 ef 04 00 00    	jne    40e840 <__sprintf_chk@plt+0xc340>
  40e351:	48 83 7b 40 01       	cmpq   $0x1,0x40(%rbx)
  40e356:	48 19 c0             	sbb    %rax,%rax
  40e359:	31 d2                	xor    %edx,%edx
  40e35b:	48 89 44 24 20       	mov    %rax,0x20(%rsp)
  40e360:	48 81 64 24 20 a1 86 	andq   $0x186a1,0x20(%rsp)
  40e367:	01 00 
  40e369:	48 83 6c 24 20 01    	subq   $0x1,0x20(%rsp)
  40e36f:	83 7c 24 58 02       	cmpl   $0x2,0x58(%rsp)
  40e374:	74 16                	je     40e38c <__sprintf_chk@plt+0xbe8c>
  40e376:	8b 43 48             	mov    0x48(%rbx),%eax
  40e379:	48 c7 c2 ff ff ff ff 	mov    $0xffffffffffffffff,%rdx
  40e380:	83 e0 18             	and    $0x18,%eax
  40e383:	83 f8 18             	cmp    $0x18,%eax
  40e386:	0f 84 84 04 00 00    	je     40e810 <__sprintf_chk@plt+0xc310>
  40e38c:	80 7c 24 5e 00       	cmpb   $0x0,0x5e(%rsp)
  40e391:	c6 44 24 5f 01       	movb   $0x1,0x5f(%rsp)
  40e396:	75 28                	jne    40e3c0 <__sprintf_chk@plt+0xbec0>
  40e398:	48 85 d2             	test   %rdx,%rdx
  40e39b:	41 0f 95 c4          	setne  %r12b
  40e39f:	83 7c 24 58 03       	cmpl   $0x3,0x58(%rsp)
  40e3a4:	41 0f 94 c6          	sete   %r14b
  40e3a8:	45 84 e4             	test   %r12b,%r12b
  40e3ab:	0f 85 07 04 00 00    	jne    40e7b8 <__sprintf_chk@plt+0xc2b8>
  40e3b1:	45 84 f6             	test   %r14b,%r14b
  40e3b4:	c6 44 24 5f 00       	movb   $0x0,0x5f(%rsp)
  40e3b9:	0f 85 f9 03 00 00    	jne    40e7b8 <__sprintf_chk@plt+0xc2b8>
  40e3bf:	90                   	nop
  40e3c0:	49 8b 45 48          	mov    0x48(%r13),%rax
  40e3c4:	49 8b 4d 38          	mov    0x38(%r13),%rcx
  40e3c8:	48 c7 44 24 30 00 00 	movq   $0x0,0x30(%rsp)
  40e3cf:	00 00 
  40e3d1:	80 7c 01 ff 2f       	cmpb   $0x2f,-0x1(%rcx,%rax,1)
  40e3d6:	48 8d 50 ff          	lea    -0x1(%rax),%rdx
  40e3da:	48 0f 44 c2          	cmove  %rdx,%rax
  40e3de:	83 e7 04             	and    $0x4,%edi
  40e3e1:	0f 85 89 03 00 00    	jne    40e770 <__sprintf_chk@plt+0xc270>
  40e3e7:	48 8b 73 30          	mov    0x30(%rbx),%rsi
  40e3eb:	48 8d 48 01          	lea    0x1(%rax),%rcx
  40e3ef:	48 83 c0 02          	add    $0x2,%rax
  40e3f3:	48 89 44 24 38       	mov    %rax,0x38(%rsp)
  40e3f8:	48 8d 43 30          	lea    0x30(%rbx),%rax
  40e3fc:	c6 44 24 5d 00       	movb   $0x0,0x5d(%rsp)
  40e401:	48 89 4c 24 08       	mov    %rcx,0x8(%rsp)
  40e406:	45 31 ff             	xor    %r15d,%r15d
  40e409:	45 31 e4             	xor    %r12d,%r12d
  40e40c:	48 89 34 24          	mov    %rsi,(%rsp)
  40e410:	49 8b 75 58          	mov    0x58(%r13),%rsi
  40e414:	48 29 0c 24          	sub    %rcx,(%rsp)
  40e418:	48 89 44 24 40       	mov    %rax,0x40(%rsp)
  40e41d:	48 8d 4b 48          	lea    0x48(%rbx),%rcx
  40e421:	48 8d 43 20          	lea    0x20(%rbx),%rax
  40e425:	48 c7 44 24 18 00 00 	movq   $0x0,0x18(%rsp)
  40e42c:	00 00 
  40e42e:	4c 89 6c 24 10       	mov    %r13,0x10(%rsp)
  40e433:	48 83 c6 01          	add    $0x1,%rsi
  40e437:	48 89 4c 24 50       	mov    %rcx,0x50(%rsp)
  40e43c:	48 89 74 24 28       	mov    %rsi,0x28(%rsp)
  40e441:	48 89 44 24 48       	mov    %rax,0x48(%rsp)
  40e446:	e9 c9 00 00 00       	jmpq   40e514 <__sprintf_chk@plt+0xc014>
  40e44b:	0f 1f 44 00 00       	nopl   0x0(%rax,%rax,1)
  40e450:	48 03 74 24 08       	add    0x8(%rsp),%rsi
  40e455:	0f 82 95 01 00 00    	jb     40e5f0 <__sprintf_chk@plt+0xc0f0>
  40e45b:	48 8b 44 24 28       	mov    0x28(%rsp),%rax
  40e460:	f6 43 48 04          	testb  $0x4,0x48(%rbx)
  40e464:	49 89 45 58          	mov    %rax,0x58(%r13)
  40e468:	48 8b 03             	mov    (%rbx),%rax
  40e46b:	49 89 75 48          	mov    %rsi,0x48(%r13)
  40e46f:	49 89 45 08          	mov    %rax,0x8(%r13)
  40e473:	49 8b 06             	mov    (%r14),%rax
  40e476:	49 89 85 80 00 00 00 	mov    %rax,0x80(%r13)
  40e47d:	0f 85 bd 01 00 00    	jne    40e640 <__sprintf_chk@plt+0xc140>
  40e483:	49 8d 85 08 01 00 00 	lea    0x108(%r13),%rax
  40e48a:	49 89 45 30          	mov    %rax,0x30(%r13)
  40e48e:	48 83 7b 40 00       	cmpq   $0x0,0x40(%rbx)
  40e493:	74 0a                	je     40e49f <__sprintf_chk@plt+0xbf9f>
  40e495:	f6 43 49 04          	testb  $0x4,0x49(%rbx)
  40e499:	0f 84 d1 01 00 00    	je     40e670 <__sprintf_chk@plt+0xc170>
  40e49f:	8b 53 48             	mov    0x48(%rbx),%edx
  40e4a2:	31 c0                	xor    %eax,%eax
  40e4a4:	83 e2 18             	and    $0x18,%edx
  40e4a7:	83 fa 18             	cmp    $0x18,%edx
  40e4aa:	0f 84 b0 02 00 00    	je     40e760 <__sprintf_chk@plt+0xc260>
  40e4b0:	b9 0b 00 00 00       	mov    $0xb,%ecx
  40e4b5:	31 d2                	xor    %edx,%edx
  40e4b7:	66 41 89 4d 70       	mov    %cx,0x70(%r13)
  40e4bc:	41 0f b6 4e 12       	movzbl 0x12(%r14),%ecx
  40e4c1:	83 e9 01             	sub    $0x1,%ecx
  40e4c4:	83 f9 0b             	cmp    $0xb,%ecx
  40e4c7:	77 07                	ja     40e4d0 <__sprintf_chk@plt+0xbfd0>
  40e4c9:	8b 14 8d a0 66 41 00 	mov    0x4166a0(,%rcx,4),%edx
  40e4d0:	48 c1 e0 3f          	shl    $0x3f,%rax
  40e4d4:	41 89 95 90 00 00 00 	mov    %edx,0x90(%r13)
  40e4db:	49 c7 45 10 00 00 00 	movq   $0x0,0x10(%r13)
  40e4e2:	00 
  40e4e3:	48 c1 f8 3f          	sar    $0x3f,%rax
  40e4e7:	48 83 c0 02          	add    $0x2,%rax
  40e4eb:	48 83 7c 24 18 00    	cmpq   $0x0,0x18(%rsp)
  40e4f1:	49 89 85 a8 00 00 00 	mov    %rax,0xa8(%r13)
  40e4f8:	0f 84 9d 01 00 00    	je     40e69b <__sprintf_chk@plt+0xc19b>
  40e4fe:	49 83 c4 01          	add    $0x1,%r12
  40e502:	4c 39 64 24 20       	cmp    %r12,0x20(%rsp)
  40e507:	4d 89 6f 10          	mov    %r13,0x10(%r15)
  40e50b:	0f 86 9f 01 00 00    	jbe    40e6b0 <__sprintf_chk@plt+0xc1b0>
  40e511:	4d 89 ef             	mov    %r13,%r15
  40e514:	48 8b 44 24 10       	mov    0x10(%rsp),%rax
  40e519:	48 8b 78 18          	mov    0x18(%rax),%rdi
  40e51d:	48 85 ff             	test   %rdi,%rdi
  40e520:	0f 84 52 04 00 00    	je     40e978 <__sprintf_chk@plt+0xc478>
  40e526:	e8 35 3d ff ff       	callq  402260 <readdir@plt>
  40e52b:	48 85 c0             	test   %rax,%rax
  40e52e:	49 89 c6             	mov    %rax,%r14
  40e531:	0f 84 09 05 00 00    	je     40ea40 <__sprintf_chk@plt+0xc540>
  40e537:	f6 43 48 20          	testb  $0x20,0x48(%rbx)
  40e53b:	75 0a                	jne    40e547 <__sprintf_chk@plt+0xc047>
  40e53d:	80 78 13 2e          	cmpb   $0x2e,0x13(%rax)
  40e541:	0f 84 f9 01 00 00    	je     40e740 <__sprintf_chk@plt+0xc240>
  40e547:	49 8d 6e 13          	lea    0x13(%r14),%rbp
  40e54b:	48 89 ef             	mov    %rbp,%rdi
  40e54e:	e8 bd 3a ff ff       	callq  402010 <strlen@plt>
  40e553:	48 89 ee             	mov    %rbp,%rsi
  40e556:	48 89 c2             	mov    %rax,%rdx
  40e559:	48 89 df             	mov    %rbx,%rdi
  40e55c:	e8 5f f4 ff ff       	callq  40d9c0 <__sprintf_chk@plt+0xb4c0>
  40e561:	48 85 c0             	test   %rax,%rax
  40e564:	49 89 c5             	mov    %rax,%r13
  40e567:	0f 84 a3 03 00 00    	je     40e910 <__sprintf_chk@plt+0xc410>
  40e56d:	48 89 ef             	mov    %rbp,%rdi
  40e570:	e8 9b 3a ff ff       	callq  402010 <strlen@plt>
  40e575:	48 39 04 24          	cmp    %rax,(%rsp)
  40e579:	48 89 c6             	mov    %rax,%rsi
  40e57c:	0f 87 ce fe ff ff    	ja     40e450 <__sprintf_chk@plt+0xbf50>
  40e582:	48 8b 74 24 38       	mov    0x38(%rsp),%rsi
  40e587:	48 8b 4b 20          	mov    0x20(%rbx),%rcx
  40e58b:	48 8b 7c 24 48       	mov    0x48(%rsp),%rdi
  40e590:	48 8d 14 06          	lea    (%rsi,%rax,1),%rdx
  40e594:	48 8b 74 24 40       	mov    0x40(%rsp),%rsi
  40e599:	48 89 0c 24          	mov    %rcx,(%rsp)
  40e59d:	e8 0e f8 ff ff       	callq  40ddb0 <__sprintf_chk@plt+0xb8b0>
  40e5a2:	84 c0                	test   %al,%al
  40e5a4:	0f 84 66 03 00 00    	je     40e910 <__sprintf_chk@plt+0xc410>
  40e5aa:	48 8b 43 20          	mov    0x20(%rbx),%rax
  40e5ae:	48 3b 04 24          	cmp    (%rsp),%rax
  40e5b2:	74 15                	je     40e5c9 <__sprintf_chk@plt+0xc0c9>
  40e5b4:	f6 43 48 04          	testb  $0x4,0x48(%rbx)
  40e5b8:	c6 44 24 5d 01       	movb   $0x1,0x5d(%rsp)
  40e5bd:	74 0a                	je     40e5c9 <__sprintf_chk@plt+0xc0c9>
  40e5bf:	48 03 44 24 08       	add    0x8(%rsp),%rax
  40e5c4:	48 89 44 24 30       	mov    %rax,0x30(%rsp)
  40e5c9:	48 8b 43 30          	mov    0x30(%rbx),%rax
  40e5cd:	48 89 ef             	mov    %rbp,%rdi
  40e5d0:	48 89 04 24          	mov    %rax,(%rsp)
  40e5d4:	48 8b 44 24 08       	mov    0x8(%rsp),%rax
  40e5d9:	48 29 04 24          	sub    %rax,(%rsp)
  40e5dd:	e8 2e 3a ff ff       	callq  402010 <strlen@plt>
  40e5e2:	48 89 c6             	mov    %rax,%rsi
  40e5e5:	48 03 74 24 08       	add    0x8(%rsp),%rsi
  40e5ea:	0f 83 6b fe ff ff    	jae    40e45b <__sprintf_chk@plt+0xbf5b>
  40e5f0:	4d 89 ee             	mov    %r13,%r14
  40e5f3:	4c 8b 6c 24 10       	mov    0x10(%rsp),%r13
  40e5f8:	4c 89 f7             	mov    %r14,%rdi
  40e5fb:	e8 d0 38 ff ff       	callq  401ed0 <free@plt>
  40e600:	48 8b 7c 24 18       	mov    0x18(%rsp),%rdi
  40e605:	e8 46 f4 ff ff       	callq  40da50 <__sprintf_chk@plt+0xb550>
  40e60a:	49 8b 7d 18          	mov    0x18(%r13),%rdi
  40e60e:	e8 3d 3b ff ff       	callq  402150 <closedir@plt>
  40e613:	be 07 00 00 00       	mov    $0x7,%esi
  40e618:	49 c7 45 18 00 00 00 	movq   $0x0,0x18(%r13)
  40e61f:	00 
  40e620:	66 41 89 75 70       	mov    %si,0x70(%r13)
  40e625:	81 4b 48 00 40 00 00 	orl    $0x4000,0x48(%rbx)
  40e62c:	e8 df 38 ff ff       	callq  401f10 <__errno_location@plt>
  40e631:	c7 00 24 00 00 00    	movl   $0x24,(%rax)
  40e637:	31 c0                	xor    %eax,%eax
  40e639:	e9 22 03 00 00       	jmpq   40e960 <__sprintf_chk@plt+0xc460>
  40e63e:	66 90                	xchg   %ax,%ax
  40e640:	49 8b 45 38          	mov    0x38(%r13),%rax
  40e644:	48 8b 7c 24 30       	mov    0x30(%rsp),%rdi
  40e649:	49 8d b5 08 01 00 00 	lea    0x108(%r13),%rsi
  40e650:	49 89 45 30          	mov    %rax,0x30(%r13)
  40e654:	49 8b 45 60          	mov    0x60(%r13),%rax
  40e658:	48 8d 50 01          	lea    0x1(%rax),%rdx
  40e65c:	e8 4f 3d ff ff       	callq  4023b0 <memmove@plt>
  40e661:	e9 28 fe ff ff       	jmpq   40e48e <__sprintf_chk@plt+0xbf8e>
  40e666:	66 2e 0f 1f 84 00 00 	nopw   %cs:0x0(%rax,%rax,1)
  40e66d:	00 00 00 
  40e670:	8b 7b 2c             	mov    0x2c(%rbx),%edi
  40e673:	48 8b 74 24 50       	mov    0x50(%rsp),%rsi
  40e678:	31 c9                	xor    %ecx,%ecx
  40e67a:	4c 89 ea             	mov    %r13,%rdx
  40e67d:	e8 0e f5 ff ff       	callq  40db90 <__sprintf_chk@plt+0xb690>
  40e682:	48 83 7c 24 18 00    	cmpq   $0x0,0x18(%rsp)
  40e688:	66 41 89 45 70       	mov    %ax,0x70(%r13)
  40e68d:	49 c7 45 10 00 00 00 	movq   $0x0,0x10(%r13)
  40e694:	00 
  40e695:	0f 85 63 fe ff ff    	jne    40e4fe <__sprintf_chk@plt+0xbffe>
  40e69b:	49 83 c4 01          	add    $0x1,%r12
  40e69f:	4c 39 64 24 20       	cmp    %r12,0x20(%rsp)
  40e6a4:	4c 89 6c 24 18       	mov    %r13,0x18(%rsp)
  40e6a9:	0f 87 62 fe ff ff    	ja     40e511 <__sprintf_chk@plt+0xc011>
  40e6af:	90                   	nop
  40e6b0:	80 7c 24 5d 00       	cmpb   $0x0,0x5d(%rsp)
  40e6b5:	4c 8b 6c 24 10       	mov    0x10(%rsp),%r13
  40e6ba:	0f 84 c6 02 00 00    	je     40e986 <__sprintf_chk@plt+0xc486>
  40e6c0:	48 8b 43 08          	mov    0x8(%rbx),%rax
  40e6c4:	48 8b 53 20          	mov    0x20(%rbx),%rdx
  40e6c8:	48 85 c0             	test   %rax,%rax
  40e6cb:	74 2b                	je     40e6f8 <__sprintf_chk@plt+0xc1f8>
  40e6cd:	0f 1f 00             	nopl   (%rax)
  40e6d0:	48 8b 48 30          	mov    0x30(%rax),%rcx
  40e6d4:	48 8d b0 08 01 00 00 	lea    0x108(%rax),%rsi
  40e6db:	48 39 f1             	cmp    %rsi,%rcx
  40e6de:	74 0b                	je     40e6eb <__sprintf_chk@plt+0xc1eb>
  40e6e0:	48 2b 48 38          	sub    0x38(%rax),%rcx
  40e6e4:	48 01 d1             	add    %rdx,%rcx
  40e6e7:	48 89 48 30          	mov    %rcx,0x30(%rax)
  40e6eb:	48 89 50 38          	mov    %rdx,0x38(%rax)
  40e6ef:	48 8b 40 10          	mov    0x10(%rax),%rax
  40e6f3:	48 85 c0             	test   %rax,%rax
  40e6f6:	75 d8                	jne    40e6d0 <__sprintf_chk@plt+0xc1d0>
  40e6f8:	48 8b 44 24 18       	mov    0x18(%rsp),%rax
  40e6fd:	eb 04                	jmp    40e703 <__sprintf_chk@plt+0xc203>
  40e6ff:	90                   	nop
  40e700:	48 89 c8             	mov    %rcx,%rax
  40e703:	48 83 78 58 00       	cmpq   $0x0,0x58(%rax)
  40e708:	0f 88 78 02 00 00    	js     40e986 <__sprintf_chk@plt+0xc486>
  40e70e:	48 8b 48 30          	mov    0x30(%rax),%rcx
  40e712:	48 8d b0 08 01 00 00 	lea    0x108(%rax),%rsi
  40e719:	48 39 f1             	cmp    %rsi,%rcx
  40e71c:	74 0b                	je     40e729 <__sprintf_chk@plt+0xc229>
  40e71e:	48 2b 48 38          	sub    0x38(%rax),%rcx
  40e722:	48 01 d1             	add    %rdx,%rcx
  40e725:	48 89 48 30          	mov    %rcx,0x30(%rax)
  40e729:	48 8b 48 10          	mov    0x10(%rax),%rcx
  40e72d:	48 89 50 38          	mov    %rdx,0x38(%rax)
  40e731:	48 85 c9             	test   %rcx,%rcx
  40e734:	75 ca                	jne    40e700 <__sprintf_chk@plt+0xc200>
  40e736:	48 8b 48 08          	mov    0x8(%rax),%rcx
  40e73a:	eb c4                	jmp    40e700 <__sprintf_chk@plt+0xc200>
  40e73c:	0f 1f 40 00          	nopl   0x0(%rax)
  40e740:	80 78 14 00          	cmpb   $0x0,0x14(%rax)
  40e744:	74 0b                	je     40e751 <__sprintf_chk@plt+0xc251>
  40e746:	66 83 78 14 2e       	cmpw   $0x2e,0x14(%rax)
  40e74b:	0f 85 f6 fd ff ff    	jne    40e547 <__sprintf_chk@plt+0xc047>
  40e751:	4d 89 fd             	mov    %r15,%r13
  40e754:	e9 b8 fd ff ff       	jmpq   40e511 <__sprintf_chk@plt+0xc011>
  40e759:	0f 1f 80 00 00 00 00 	nopl   0x0(%rax)
  40e760:	31 c0                	xor    %eax,%eax
  40e762:	41 f6 46 12 fb       	testb  $0xfb,0x12(%r14)
  40e767:	0f 95 c0             	setne  %al
  40e76a:	e9 41 fd ff ff       	jmpq   40e4b0 <__sprintf_chk@plt+0xbfb0>
  40e76f:	90                   	nop
  40e770:	48 89 c2             	mov    %rax,%rdx
  40e773:	48 03 53 20          	add    0x20(%rbx),%rdx
  40e777:	48 8d 72 01          	lea    0x1(%rdx),%rsi
  40e77b:	c6 02 2f             	movb   $0x2f,(%rdx)
  40e77e:	48 89 74 24 30       	mov    %rsi,0x30(%rsp)
  40e783:	e9 5f fc ff ff       	jmpq   40e3e7 <__sprintf_chk@plt+0xbee7>
  40e788:	0f 1f 84 00 00 00 00 	nopl   0x0(%rax,%rax,1)
  40e78f:	00 
  40e790:	a8 01                	test   $0x1,%al
  40e792:	ba 00 09 03 00       	mov    $0x30900,%edx
  40e797:	0f 84 40 fb ff ff    	je     40e2dd <__sprintf_chk@plt+0xbddd>
  40e79d:	49 83 7d 58 01       	cmpq   $0x1,0x58(%r13)
  40e7a2:	19 d2                	sbb    %edx,%edx
  40e7a4:	81 e2 00 00 fe ff    	and    $0xfffe0000,%edx
  40e7aa:	81 c2 00 09 03 00    	add    $0x30900,%edx
  40e7b0:	e9 28 fb ff ff       	jmpq   40e2dd <__sprintf_chk@plt+0xbddd>
  40e7b5:	0f 1f 00             	nopl   (%rax)
  40e7b8:	81 e7 00 02 00 00    	and    $0x200,%edi
  40e7be:	0f 85 c0 00 00 00    	jne    40e884 <__sprintf_chk@plt+0xc384>
  40e7c4:	49 8d 95 80 00 00 00 	lea    0x80(%r13),%rdx
  40e7cb:	49 8d 75 78          	lea    0x78(%r13),%rsi
  40e7cf:	45 31 c0             	xor    %r8d,%r8d
  40e7d2:	89 e9                	mov    %ebp,%ecx
  40e7d4:	48 89 df             	mov    %rbx,%rdi
  40e7d7:	e8 f4 f7 ff ff       	callq  40dfd0 <__sprintf_chk@plt+0xbad0>
  40e7dc:	85 c0                	test   %eax,%eax
  40e7de:	0f 85 c4 00 00 00    	jne    40e8a8 <__sprintf_chk@plt+0xc3a8>
  40e7e4:	8b 7b 48             	mov    0x48(%rbx),%edi
  40e7e7:	c6 44 24 5f 01       	movb   $0x1,0x5f(%rsp)
  40e7ec:	e9 cf fb ff ff       	jmpq   40e3c0 <__sprintf_chk@plt+0xbec0>
  40e7f1:	0f 1f 80 00 00 00 00 	nopl   0x0(%rax)
  40e7f8:	e8 f3 39 ff ff       	callq  4021f0 <dirfd@plt>
  40e7fd:	85 c0                	test   %eax,%eax
  40e7ff:	89 c5                	mov    %eax,%ebp
  40e801:	0f 88 ee 02 00 00    	js     40eaf5 <__sprintf_chk@plt+0xc5f5>
  40e807:	8b 7b 48             	mov    0x48(%rbx),%edi
  40e80a:	e9 42 fb ff ff       	jmpq   40e351 <__sprintf_chk@plt+0xbe51>
  40e80f:	90                   	nop
  40e810:	89 f8                	mov    %edi,%eax
  40e812:	49 8b 95 88 00 00 00 	mov    0x88(%r13),%rdx
  40e819:	c6 44 24 5f 01       	movb   $0x1,0x5f(%rsp)
  40e81e:	83 e0 20             	and    $0x20,%eax
  40e821:	83 f8 01             	cmp    $0x1,%eax
  40e824:	48 19 c0             	sbb    %rax,%rax
  40e827:	83 e0 02             	and    $0x2,%eax
  40e82a:	48 29 c2             	sub    %rax,%rdx
  40e82d:	80 7c 24 5e 00       	cmpb   $0x0,0x5e(%rsp)
  40e832:	0f 85 88 fb ff ff    	jne    40e3c0 <__sprintf_chk@plt+0xbec0>
  40e838:	e9 5b fb ff ff       	jmpq   40e398 <__sprintf_chk@plt+0xbe98>
  40e83d:	0f 1f 00             	nopl   (%rax)
  40e840:	4c 8d 63 58          	lea    0x58(%rbx),%r12
  40e844:	4c 89 ea             	mov    %r13,%rdx
  40e847:	4c 89 e6             	mov    %r12,%rsi
  40e84a:	e8 b1 f9 ff ff       	callq  40e200 <__sprintf_chk@plt+0xbd00>
  40e84f:	8b 7b 2c             	mov    0x2c(%rbx),%edi
  40e852:	48 8d 73 48          	lea    0x48(%rbx),%rsi
  40e856:	31 c9                	xor    %ecx,%ecx
  40e858:	4c 89 ea             	mov    %r13,%rdx
  40e85b:	e8 30 f3 ff ff       	callq  40db90 <__sprintf_chk@plt+0xb690>
  40e860:	8b 7b 48             	mov    0x48(%rbx),%edi
  40e863:	4c 89 ea             	mov    %r13,%rdx
  40e866:	4c 89 e6             	mov    %r12,%rsi
  40e869:	e8 82 f6 ff ff       	callq  40def0 <__sprintf_chk@plt+0xb9f0>
  40e86e:	84 c0                	test   %al,%al
  40e870:	75 95                	jne    40e807 <__sprintf_chk@plt+0xc307>
  40e872:	e8 99 36 ff ff       	callq  401f10 <__errno_location@plt>
  40e877:	c7 00 0c 00 00 00    	movl   $0xc,(%rax)
  40e87d:	31 c0                	xor    %eax,%eax
  40e87f:	e9 dc 00 00 00       	jmpq   40e960 <__sprintf_chk@plt+0xc460>
  40e884:	89 ef                	mov    %ebp,%edi
  40e886:	e8 c5 42 00 00       	callq  412b50 <fts_children+0x3190>
  40e88b:	85 c0                	test   %eax,%eax
  40e88d:	89 c5                	mov    %eax,%ebp
  40e88f:	78 17                	js     40e8a8 <__sprintf_chk@plt+0xc3a8>
  40e891:	be 01 00 00 00       	mov    $0x1,%esi
  40e896:	89 c7                	mov    %eax,%edi
  40e898:	e8 53 1a 00 00       	callq  4102f0 <fts_children+0x930>
  40e89d:	e9 22 ff ff ff       	jmpq   40e7c4 <__sprintf_chk@plt+0xc2c4>
  40e8a2:	66 0f 1f 44 00 00    	nopw   0x0(%rax,%rax,1)
  40e8a8:	45 84 e4             	test   %r12b,%r12b
  40e8ab:	74 05                	je     40e8b2 <__sprintf_chk@plt+0xc3b2>
  40e8ad:	45 84 f6             	test   %r14b,%r14b
  40e8b0:	75 42                	jne    40e8f4 <__sprintf_chk@plt+0xc3f4>
  40e8b2:	66 41 83 4d 72 01    	orw    $0x1,0x72(%r13)
  40e8b8:	49 8b 7d 18          	mov    0x18(%r13),%rdi
  40e8bc:	e8 8f 38 ff ff       	callq  402150 <closedir@plt>
  40e8c1:	8b 7b 48             	mov    0x48(%rbx),%edi
  40e8c4:	49 c7 45 18 00 00 00 	movq   $0x0,0x18(%r13)
  40e8cb:	00 
  40e8cc:	f7 c7 00 02 00 00    	test   $0x200,%edi
  40e8d2:	74 0e                	je     40e8e2 <__sprintf_chk@plt+0xc3e2>
  40e8d4:	85 ed                	test   %ebp,%ebp
  40e8d6:	78 0a                	js     40e8e2 <__sprintf_chk@plt+0xc3e2>
  40e8d8:	89 ef                	mov    %ebp,%edi
  40e8da:	e8 61 38 ff ff       	callq  402140 <close@plt>
  40e8df:	8b 7b 48             	mov    0x48(%rbx),%edi
  40e8e2:	49 c7 45 18 00 00 00 	movq   $0x0,0x18(%r13)
  40e8e9:	00 
  40e8ea:	c6 44 24 5f 00       	movb   $0x0,0x5f(%rsp)
  40e8ef:	e9 cc fa ff ff       	jmpq   40e3c0 <__sprintf_chk@plt+0xbec0>
  40e8f4:	e8 17 36 ff ff       	callq  401f10 <__errno_location@plt>
  40e8f9:	8b 00                	mov    (%rax),%eax
  40e8fb:	41 89 45 40          	mov    %eax,0x40(%r13)
  40e8ff:	eb b1                	jmp    40e8b2 <__sprintf_chk@plt+0xc3b2>
  40e901:	0f 1f 80 00 00 00 00 	nopl   0x0(%rax)
  40e908:	8b 7b 2c             	mov    0x2c(%rbx),%edi
  40e90b:	e9 f3 f9 ff ff       	jmpq   40e303 <__sprintf_chk@plt+0xbe03>
  40e910:	4d 89 ee             	mov    %r13,%r14
  40e913:	4c 8b 6c 24 10       	mov    0x10(%rsp),%r13
  40e918:	e8 f3 35 ff ff       	callq  401f10 <__errno_location@plt>
  40e91d:	4c 89 f7             	mov    %r14,%rdi
  40e920:	48 89 c5             	mov    %rax,%rbp
  40e923:	44 8b 20             	mov    (%rax),%r12d
  40e926:	e8 a5 35 ff ff       	callq  401ed0 <free@plt>
  40e92b:	48 8b 7c 24 18       	mov    0x18(%rsp),%rdi
  40e930:	e8 1b f1 ff ff       	callq  40da50 <__sprintf_chk@plt+0xb550>
  40e935:	49 8b 7d 18          	mov    0x18(%r13),%rdi
  40e939:	e8 12 38 ff ff       	callq  402150 <closedir@plt>
  40e93e:	bf 07 00 00 00       	mov    $0x7,%edi
  40e943:	49 c7 45 18 00 00 00 	movq   $0x0,0x18(%r13)
  40e94a:	00 
  40e94b:	31 c0                	xor    %eax,%eax
  40e94d:	66 41 89 7d 70       	mov    %di,0x70(%r13)
  40e952:	81 4b 48 00 40 00 00 	orl    $0x4000,0x48(%rbx)
  40e959:	44 89 65 00          	mov    %r12d,0x0(%rbp)
  40e95d:	0f 1f 00             	nopl   (%rax)
  40e960:	48 81 c4 e8 00 00 00 	add    $0xe8,%rsp
  40e967:	5b                   	pop    %rbx
  40e968:	5d                   	pop    %rbp
  40e969:	41 5c                	pop    %r12
  40e96b:	41 5d                	pop    %r13
  40e96d:	41 5e                	pop    %r14
  40e96f:	41 5f                	pop    %r15
  40e971:	c3                   	retq   
  40e972:	66 0f 1f 44 00 00    	nopw   0x0(%rax,%rax,1)
  40e978:	49 89 c5             	mov    %rax,%r13
  40e97b:	80 7c 24 5d 00       	cmpb   $0x0,0x5d(%rsp)
  40e980:	0f 85 3a fd ff ff    	jne    40e6c0 <__sprintf_chk@plt+0xc1c0>
  40e986:	f6 43 48 04          	testb  $0x4,0x48(%rbx)
  40e98a:	74 1e                	je     40e9aa <__sprintf_chk@plt+0xc4aa>
  40e98c:	48 8b 44 24 08       	mov    0x8(%rsp),%rax
  40e991:	48 39 43 30          	cmp    %rax,0x30(%rbx)
  40e995:	74 05                	je     40e99c <__sprintf_chk@plt+0xc49c>
  40e997:	4d 85 e4             	test   %r12,%r12
  40e99a:	75 06                	jne    40e9a2 <__sprintf_chk@plt+0xc4a2>
  40e99c:	48 83 6c 24 30 01    	subq   $0x1,0x30(%rsp)
  40e9a2:	48 8b 44 24 30       	mov    0x30(%rsp),%rax
  40e9a7:	c6 00 00             	movb   $0x0,(%rax)
  40e9aa:	80 7c 24 5f 00       	cmpb   $0x0,0x5f(%rsp)
  40e9af:	74 33                	je     40e9e4 <__sprintf_chk@plt+0xc4e4>
  40e9b1:	80 7c 24 5e 00       	cmpb   $0x0,0x5e(%rsp)
  40e9b6:	75 2c                	jne    40e9e4 <__sprintf_chk@plt+0xc4e4>
  40e9b8:	4d 85 e4             	test   %r12,%r12
  40e9bb:	74 07                	je     40e9c4 <__sprintf_chk@plt+0xc4c4>
  40e9bd:	83 7c 24 58 01       	cmpl   $0x1,0x58(%rsp)
  40e9c2:	75 29                	jne    40e9ed <__sprintf_chk@plt+0xc4ed>
  40e9c4:	49 83 7d 58 00       	cmpq   $0x0,0x58(%r13)
  40e9c9:	0f 85 e2 00 00 00    	jne    40eab1 <__sprintf_chk@plt+0xc5b1>
  40e9cf:	48 89 df             	mov    %rbx,%rdi
  40e9d2:	e8 59 f1 ff ff       	callq  40db30 <__sprintf_chk@plt+0xb630>
  40e9d7:	85 c0                	test   %eax,%eax
  40e9d9:	0f 95 c0             	setne  %al
  40e9dc:	84 c0                	test   %al,%al
  40e9de:	0f 85 b8 01 00 00    	jne    40eb9c <__sprintf_chk@plt+0xc69c>
  40e9e4:	4d 85 e4             	test   %r12,%r12
  40e9e7:	0f 84 f0 00 00 00    	je     40eadd <__sprintf_chk@plt+0xc5dd>
  40e9ed:	49 81 fc 10 27 00 00 	cmp    $0x2710,%r12
  40e9f4:	76 2a                	jbe    40ea20 <__sprintf_chk@plt+0xc520>
  40e9f6:	48 83 7b 40 00       	cmpq   $0x0,0x40(%rbx)
  40e9fb:	0f 84 39 01 00 00    	je     40eb3a <__sprintf_chk@plt+0xc63a>
  40ea01:	48 8b 74 24 18       	mov    0x18(%rsp),%rsi
  40ea06:	4c 89 e2             	mov    %r12,%rdx
  40ea09:	48 89 df             	mov    %rbx,%rdi
  40ea0c:	e8 8f ee ff ff       	callq  40d8a0 <__sprintf_chk@plt+0xb3a0>
  40ea11:	e9 4a ff ff ff       	jmpq   40e960 <__sprintf_chk@plt+0xc460>
  40ea16:	66 2e 0f 1f 84 00 00 	nopw   %cs:0x0(%rax,%rax,1)
  40ea1d:	00 00 00 
  40ea20:	48 83 7b 40 00       	cmpq   $0x0,0x40(%rbx)
  40ea25:	74 06                	je     40ea2d <__sprintf_chk@plt+0xc52d>
  40ea27:	49 83 fc 01          	cmp    $0x1,%r12
  40ea2b:	77 d4                	ja     40ea01 <__sprintf_chk@plt+0xc501>
  40ea2d:	48 8b 44 24 18       	mov    0x18(%rsp),%rax
  40ea32:	e9 29 ff ff ff       	jmpq   40e960 <__sprintf_chk@plt+0xc460>
  40ea37:	66 0f 1f 84 00 00 00 	nopw   0x0(%rax,%rax,1)
  40ea3e:	00 00 
  40ea40:	4c 8b 6c 24 10       	mov    0x10(%rsp),%r13
  40ea45:	49 8b 7d 18          	mov    0x18(%r13),%rdi
  40ea49:	48 85 ff             	test   %rdi,%rdi
  40ea4c:	0f 84 29 ff ff ff    	je     40e97b <__sprintf_chk@plt+0xc47b>
  40ea52:	e8 f9 36 ff ff       	callq  402150 <closedir@plt>
  40ea57:	49 c7 45 18 00 00 00 	movq   $0x0,0x18(%r13)
  40ea5e:	00 
  40ea5f:	e9 17 ff ff ff       	jmpq   40e97b <__sprintf_chk@plt+0xc47b>
  40ea64:	e8 a7 34 ff ff       	callq  401f10 <__errno_location@plt>
  40ea69:	44 8b 20             	mov    (%rax),%r12d
  40ea6c:	48 89 c3             	mov    %rax,%rbx
  40ea6f:	89 ef                	mov    %ebp,%edi
  40ea71:	e8 ca 36 ff ff       	callq  402140 <close@plt>
  40ea76:	44 89 23             	mov    %r12d,(%rbx)
  40ea79:	83 7c 24 58 03       	cmpl   $0x3,0x58(%rsp)
  40ea7e:	49 c7 45 18 00 00 00 	movq   $0x0,0x18(%r13)
  40ea85:	00 
  40ea86:	0f 84 85 00 00 00    	je     40eb11 <__sprintf_chk@plt+0xc611>
  40ea8c:	31 c0                	xor    %eax,%eax
  40ea8e:	e9 cd fe ff ff       	jmpq   40e960 <__sprintf_chk@plt+0xc460>
  40ea93:	8b 7b 2c             	mov    0x2c(%rbx),%edi
  40ea96:	48 8d 73 48          	lea    0x48(%rbx),%rsi
  40ea9a:	31 c9                	xor    %ecx,%ecx
  40ea9c:	4c 89 ea             	mov    %r13,%rdx
  40ea9f:	e8 ec f0 ff ff       	callq  40db90 <__sprintf_chk@plt+0xb690>
  40eaa4:	8b 7b 48             	mov    0x48(%rbx),%edi
  40eaa7:	66 41 89 45 70       	mov    %ax,0x70(%r13)
  40eaac:	e9 a0 f8 ff ff       	jmpq   40e351 <__sprintf_chk@plt+0xbe51>
  40eab1:	49 8b 45 08          	mov    0x8(%r13),%rax
  40eab5:	41 b8 83 66 41 00    	mov    $0x416683,%r8d
  40eabb:	b9 ff ff ff ff       	mov    $0xffffffff,%ecx
  40eac0:	48 89 df             	mov    %rbx,%rdi
  40eac3:	48 8d 90 80 00 00 00 	lea    0x80(%rax),%rdx
  40eaca:	48 8d 70 78          	lea    0x78(%rax),%rsi
  40eace:	e8 fd f4 ff ff       	callq  40dfd0 <__sprintf_chk@plt+0xbad0>
  40ead3:	85 c0                	test   %eax,%eax
  40ead5:	0f 95 c0             	setne  %al
  40ead8:	e9 ff fe ff ff       	jmpq   40e9dc <__sprintf_chk@plt+0xc4dc>
  40eadd:	83 7c 24 58 03       	cmpl   $0x3,0x58(%rsp)
  40eae2:	74 4a                	je     40eb2e <__sprintf_chk@plt+0xc62e>
  40eae4:	48 8b 7c 24 18       	mov    0x18(%rsp),%rdi
  40eae9:	e8 62 ef ff ff       	callq  40da50 <__sprintf_chk@plt+0xb550>
  40eaee:	31 c0                	xor    %eax,%eax
  40eaf0:	e9 6b fe ff ff       	jmpq   40e960 <__sprintf_chk@plt+0xc460>
  40eaf5:	49 8b 7d 18          	mov    0x18(%r13),%rdi
  40eaf9:	e8 52 36 ff ff       	callq  402150 <closedir@plt>
  40eafe:	83 7c 24 58 03       	cmpl   $0x3,0x58(%rsp)
  40eb03:	49 c7 45 18 00 00 00 	movq   $0x0,0x18(%r13)
  40eb0a:	00 
  40eb0b:	0f 85 7b ff ff ff    	jne    40ea8c <__sprintf_chk@plt+0xc58c>
  40eb11:	41 b8 04 00 00 00    	mov    $0x4,%r8d
  40eb17:	66 45 89 45 70       	mov    %r8w,0x70(%r13)
  40eb1c:	e8 ef 33 ff ff       	callq  401f10 <__errno_location@plt>
  40eb21:	8b 00                	mov    (%rax),%eax
  40eb23:	41 89 45 40          	mov    %eax,0x40(%r13)
  40eb27:	31 c0                	xor    %eax,%eax
  40eb29:	e9 32 fe ff ff       	jmpq   40e960 <__sprintf_chk@plt+0xc460>
  40eb2e:	b8 06 00 00 00       	mov    $0x6,%eax
  40eb33:	66 41 89 45 70       	mov    %ax,0x70(%r13)
  40eb38:	eb aa                	jmp    40eae4 <__sprintf_chk@plt+0xc5e4>
  40eb3a:	f6 43 49 02          	testb  $0x2,0x49(%rbx)
  40eb3e:	0f 84 e9 fe ff ff    	je     40ea2d <__sprintf_chk@plt+0xc52d>
  40eb44:	8b 7b 2c             	mov    0x2c(%rbx),%edi
  40eb47:	48 8d 74 24 60       	lea    0x60(%rsp),%rsi
  40eb4c:	e8 df 38 ff ff       	callq  402430 <fstatfs@plt>
  40eb51:	85 c0                	test   %eax,%eax
  40eb53:	75 1d                	jne    40eb72 <__sprintf_chk@plt+0xc672>
  40eb55:	48 8b 44 24 60       	mov    0x60(%rsp),%rax
  40eb5a:	48 3d 69 69 00 00    	cmp    $0x6969,%rax
  40eb60:	0f 84 ba fe ff ff    	je     40ea20 <__sprintf_chk@plt+0xc520>
  40eb66:	48 3d 94 19 02 01    	cmp    $0x1021994,%rax
  40eb6c:	0f 84 ae fe ff ff    	je     40ea20 <__sprintf_chk@plt+0xc520>
  40eb72:	48 8b 74 24 18       	mov    0x18(%rsp),%rsi
  40eb77:	48 c7 43 40 70 d8 40 	movq   $0x40d870,0x40(%rbx)
  40eb7e:	00 
  40eb7f:	4c 89 e2             	mov    %r12,%rdx
  40eb82:	48 89 df             	mov    %rbx,%rdi
  40eb85:	e8 16 ed ff ff       	callq  40d8a0 <__sprintf_chk@plt+0xb3a0>
  40eb8a:	48 c7 43 40 00 00 00 	movq   $0x0,0x40(%rbx)
  40eb91:	00 
  40eb92:	48 89 44 24 18       	mov    %rax,0x18(%rsp)
  40eb97:	e9 91 fe ff ff       	jmpq   40ea2d <__sprintf_chk@plt+0xc52d>
  40eb9c:	ba 07 00 00 00       	mov    $0x7,%edx
  40eba1:	48 8b 7c 24 18       	mov    0x18(%rsp),%rdi
  40eba6:	66 41 89 55 70       	mov    %dx,0x70(%r13)
  40ebab:	81 4b 48 00 40 00 00 	orl    $0x4000,0x48(%rbx)
  40ebb2:	e8 99 ee ff ff       	callq  40da50 <__sprintf_chk@plt+0xb550>
  40ebb7:	31 c0                	xor    %eax,%eax
  40ebb9:	e9 a2 fd ff ff       	jmpq   40e960 <__sprintf_chk@plt+0xc460>
  40ebbe:	66 90                	xchg   %ax,%ax

000000000040ebc0 <fts_open>:
  40ebc0:	41 57                	push   %r15
  40ebc2:	41 56                	push   %r14
  40ebc4:	41 55                	push   %r13
  40ebc6:	41 54                	push   %r12
  40ebc8:	55                   	push   %rbp
  40ebc9:	53                   	push   %rbx
  40ebca:	89 f3                	mov    %esi,%ebx
  40ebcc:	48 83 ec 28          	sub    $0x28,%rsp
  40ebd0:	f7 c6 00 e0 ff ff    	test   $0xffffe000,%esi
  40ebd6:	0f 85 24 03 00 00    	jne    40ef00 <fts_open+0x340>
  40ebdc:	89 f0                	mov    %esi,%eax
  40ebde:	25 04 02 00 00       	and    $0x204,%eax
  40ebe3:	3d 04 02 00 00       	cmp    $0x204,%eax
  40ebe8:	0f 84 12 03 00 00    	je     40ef00 <fts_open+0x340>
  40ebee:	40 f6 c6 12          	test   $0x12,%sil
  40ebf2:	0f 84 08 03 00 00    	je     40ef00 <fts_open+0x340>
  40ebf8:	49 89 fd             	mov    %rdi,%r13
  40ebfb:	bf 80 00 00 00       	mov    $0x80,%edi
  40ec00:	49 89 d6             	mov    %rdx,%r14
  40ec03:	e8 88 36 ff ff       	callq  402290 <malloc@plt>
  40ec08:	48 85 c0             	test   %rax,%rax
  40ec0b:	49 89 c4             	mov    %rax,%r12
  40ec0e:	0f 84 83 03 00 00    	je     40ef97 <fts_open+0x3d7>
  40ec14:	31 c0                	xor    %eax,%eax
  40ec16:	b9 10 00 00 00       	mov    $0x10,%ecx
  40ec1b:	4c 89 e7             	mov    %r12,%rdi
  40ec1e:	f6 c3 02             	test   $0x2,%bl
  40ec21:	f3 48 ab             	rep stos %rax,%es:(%rdi)
  40ec24:	4d 89 74 24 40       	mov    %r14,0x40(%r12)
  40ec29:	0f 85 81 02 00 00    	jne    40eeb0 <fts_open+0x2f0>
  40ec2f:	41 89 5c 24 48       	mov    %ebx,0x48(%r12)
  40ec34:	49 8b 7d 00          	mov    0x0(%r13),%rdi
  40ec38:	41 c7 44 24 2c 9c ff 	movl   $0xffffff9c,0x2c(%r12)
  40ec3f:	ff ff 
  40ec41:	48 85 ff             	test   %rdi,%rdi
  40ec44:	0f 84 43 03 00 00    	je     40ef8d <fts_open+0x3cd>
  40ec4a:	4d 89 ef             	mov    %r13,%r15
  40ec4d:	31 ed                	xor    %ebp,%ebp
  40ec4f:	90                   	nop
  40ec50:	e8 bb 33 ff ff       	callq  402010 <strlen@plt>
  40ec55:	48 39 c5             	cmp    %rax,%rbp
  40ec58:	48 0f 42 e8          	cmovb  %rax,%rbp
  40ec5c:	49 83 c7 08          	add    $0x8,%r15
  40ec60:	49 8b 3f             	mov    (%r15),%rdi
  40ec63:	48 85 ff             	test   %rdi,%rdi
  40ec66:	75 e8                	jne    40ec50 <fts_open+0x90>
  40ec68:	48 8d 55 01          	lea    0x1(%rbp),%rdx
  40ec6c:	b8 00 10 00 00       	mov    $0x1000,%eax
  40ec71:	48 81 fa 00 10 00 00 	cmp    $0x1000,%rdx
  40ec78:	48 0f 42 d0          	cmovb  %rax,%rdx
  40ec7c:	49 8d 74 24 30       	lea    0x30(%r12),%rsi
  40ec81:	49 8d 7c 24 20       	lea    0x20(%r12),%rdi
  40ec86:	e8 25 f1 ff ff       	callq  40ddb0 <__sprintf_chk@plt+0xb8b0>
  40ec8b:	84 c0                	test   %al,%al
  40ec8d:	88 44 24 0f          	mov    %al,0xf(%rsp)
  40ec91:	0f 84 4c 02 00 00    	je     40eee3 <fts_open+0x323>
  40ec97:	49 83 7d 00 00       	cmpq   $0x0,0x0(%r13)
  40ec9c:	0f 84 ce 02 00 00    	je     40ef70 <fts_open+0x3b0>
  40eca2:	31 d2                	xor    %edx,%edx
  40eca4:	be ab 5d 41 00       	mov    $0x415dab,%esi
  40eca9:	4c 89 e7             	mov    %r12,%rdi
  40ecac:	e8 0f ed ff ff       	callq  40d9c0 <__sprintf_chk@plt+0xb4c0>
  40ecb1:	48 85 c0             	test   %rax,%rax
  40ecb4:	48 89 04 24          	mov    %rax,(%rsp)
  40ecb8:	0f 84 1b 02 00 00    	je     40eed9 <fts_open+0x319>
  40ecbe:	49 8b 75 00          	mov    0x0(%r13),%rsi
  40ecc2:	48 c7 40 58 ff ff ff 	movq   $0xffffffffffffffff,0x58(%rax)
  40ecc9:	ff 
  40ecca:	4d 85 f6             	test   %r14,%r14
  40eccd:	74 0f                	je     40ecde <fts_open+0x11e>
  40eccf:	41 8b 44 24 48       	mov    0x48(%r12),%eax
  40ecd4:	c1 e8 0a             	shr    $0xa,%eax
  40ecd7:	83 e0 01             	and    $0x1,%eax
  40ecda:	88 44 24 0f          	mov    %al,0xf(%rsp)
  40ecde:	48 85 f6             	test   %rsi,%rsi
  40ece1:	0f 84 b7 02 00 00    	je     40ef9e <fts_open+0x3de>
  40ece7:	49 8d 44 24 48       	lea    0x48(%r12),%rax
  40ecec:	81 e3 00 10 00 00    	and    $0x1000,%ebx
  40ecf2:	49 89 f7             	mov    %rsi,%r15
  40ecf5:	89 5c 24 08          	mov    %ebx,0x8(%rsp)
  40ecf9:	48 c7 44 24 18 00 00 	movq   $0x0,0x18(%rsp)
  40ed00:	00 00 
  40ed02:	31 db                	xor    %ebx,%ebx
  40ed04:	31 ed                	xor    %ebp,%ebp
  40ed06:	48 89 44 24 10       	mov    %rax,0x10(%rsp)
  40ed0b:	eb 45                	jmp    40ed52 <fts_open+0x192>
  40ed0d:	0f 1f 00             	nopl   (%rax)
  40ed10:	80 7c 24 0f 00       	cmpb   $0x0,0xf(%rsp)
  40ed15:	0f 84 9b 00 00 00    	je     40edb6 <fts_open+0x1f6>
  40ed1b:	b9 0b 00 00 00       	mov    $0xb,%ecx
  40ed20:	4d 85 f6             	test   %r14,%r14
  40ed23:	49 c7 87 a8 00 00 00 	movq   $0x2,0xa8(%r15)
  40ed2a:	02 00 00 00 
  40ed2e:	66 41 89 4f 70       	mov    %cx,0x70(%r15)
  40ed33:	0f 84 9f 00 00 00    	je     40edd8 <fts_open+0x218>
  40ed39:	49 89 6f 10          	mov    %rbp,0x10(%r15)
  40ed3d:	4c 89 fd             	mov    %r15,%rbp
  40ed40:	48 83 c3 01          	add    $0x1,%rbx
  40ed44:	4d 8b 7c dd 00       	mov    0x0(%r13,%rbx,8),%r15
  40ed49:	4d 85 ff             	test   %r15,%r15
  40ed4c:	0f 84 be 00 00 00    	je     40ee10 <fts_open+0x250>
  40ed52:	4c 89 ff             	mov    %r15,%rdi
  40ed55:	e8 b6 32 ff ff       	callq  402010 <strlen@plt>
  40ed5a:	8b 74 24 08          	mov    0x8(%rsp),%esi
  40ed5e:	85 f6                	test   %esi,%esi
  40ed60:	75 16                	jne    40ed78 <fts_open+0x1b8>
  40ed62:	48 83 f8 02          	cmp    $0x2,%rax
  40ed66:	76 10                	jbe    40ed78 <fts_open+0x1b8>
  40ed68:	41 80 7c 07 ff 2f    	cmpb   $0x2f,-0x1(%r15,%rax,1)
  40ed6e:	0f 84 1c 01 00 00    	je     40ee90 <fts_open+0x2d0>
  40ed74:	0f 1f 40 00          	nopl   0x0(%rax)
  40ed78:	4c 89 fe             	mov    %r15,%rsi
  40ed7b:	48 89 c2             	mov    %rax,%rdx
  40ed7e:	4c 89 e7             	mov    %r12,%rdi
  40ed81:	e8 3a ec ff ff       	callq  40d9c0 <__sprintf_chk@plt+0xb4c0>
  40ed86:	48 85 c0             	test   %rax,%rax
  40ed89:	49 89 c7             	mov    %rax,%r15
  40ed8c:	0f 84 36 01 00 00    	je     40eec8 <fts_open+0x308>
  40ed92:	48 c7 40 58 00 00 00 	movq   $0x0,0x58(%rax)
  40ed99:	00 
  40ed9a:	48 8b 04 24          	mov    (%rsp),%rax
  40ed9e:	48 85 ed             	test   %rbp,%rbp
  40eda1:	49 89 47 08          	mov    %rax,0x8(%r15)
  40eda5:	49 8d 87 08 01 00 00 	lea    0x108(%r15),%rax
  40edac:	49 89 47 30          	mov    %rax,0x30(%r15)
  40edb0:	0f 85 5a ff ff ff    	jne    40ed10 <fts_open+0x150>
  40edb6:	41 8b 7c 24 2c       	mov    0x2c(%r12),%edi
  40edbb:	48 8b 74 24 10       	mov    0x10(%rsp),%rsi
  40edc0:	31 c9                	xor    %ecx,%ecx
  40edc2:	4c 89 fa             	mov    %r15,%rdx
  40edc5:	e8 c6 ed ff ff       	callq  40db90 <__sprintf_chk@plt+0xb690>
  40edca:	4d 85 f6             	test   %r14,%r14
  40edcd:	66 41 89 47 70       	mov    %ax,0x70(%r15)
  40edd2:	0f 85 61 ff ff ff    	jne    40ed39 <fts_open+0x179>
  40edd8:	48 85 ed             	test   %rbp,%rbp
  40eddb:	49 c7 47 10 00 00 00 	movq   $0x0,0x10(%r15)
  40ede2:	00 
  40ede3:	0f 84 97 01 00 00    	je     40ef80 <fts_open+0x3c0>
  40ede9:	48 8b 44 24 18       	mov    0x18(%rsp),%rax
  40edee:	48 83 c3 01          	add    $0x1,%rbx
  40edf2:	4c 89 7c 24 18       	mov    %r15,0x18(%rsp)
  40edf7:	4c 89 78 10          	mov    %r15,0x10(%rax)
  40edfb:	4d 8b 7c dd 00       	mov    0x0(%r13,%rbx,8),%r15
  40ee00:	4d 85 ff             	test   %r15,%r15
  40ee03:	0f 85 49 ff ff ff    	jne    40ed52 <fts_open+0x192>
  40ee09:	0f 1f 80 00 00 00 00 	nopl   0x0(%rax)
  40ee10:	48 83 fb 01          	cmp    $0x1,%rbx
  40ee14:	0f 87 36 01 00 00    	ja     40ef50 <fts_open+0x390>
  40ee1a:	31 d2                	xor    %edx,%edx
  40ee1c:	be ab 5d 41 00       	mov    $0x415dab,%esi
  40ee21:	4c 89 e7             	mov    %r12,%rdi
  40ee24:	e8 97 eb ff ff       	callq  40d9c0 <__sprintf_chk@plt+0xb4c0>
  40ee29:	48 85 c0             	test   %rax,%rax
  40ee2c:	49 89 04 24          	mov    %rax,(%r12)
  40ee30:	0f 84 92 00 00 00    	je     40eec8 <fts_open+0x308>
  40ee36:	48 89 68 10          	mov    %rbp,0x10(%rax)
  40ee3a:	41 8b 7c 24 48       	mov    0x48(%r12),%edi
  40ee3f:	ba 09 00 00 00       	mov    $0x9,%edx
  40ee44:	49 8d 74 24 58       	lea    0x58(%r12),%rsi
  40ee49:	66 89 50 70          	mov    %dx,0x70(%rax)
  40ee4d:	e8 de ef ff ff       	callq  40de30 <__sprintf_chk@plt+0xb930>
  40ee52:	84 c0                	test   %al,%al
  40ee54:	74 72                	je     40eec8 <fts_open+0x308>
  40ee56:	41 8b 74 24 48       	mov    0x48(%r12),%esi
  40ee5b:	f7 c6 04 02 00 00    	test   $0x204,%esi
  40ee61:	0f 84 b9 00 00 00    	je     40ef20 <fts_open+0x360>
  40ee67:	49 8d 7c 24 60       	lea    0x60(%r12),%rdi
  40ee6c:	be ff ff ff ff       	mov    $0xffffffff,%esi
  40ee71:	e8 5a 16 00 00       	callq  4104d0 <fts_children+0xb10>
  40ee76:	48 83 c4 28          	add    $0x28,%rsp
  40ee7a:	4c 89 e0             	mov    %r12,%rax
  40ee7d:	5b                   	pop    %rbx
  40ee7e:	5d                   	pop    %rbp
  40ee7f:	41 5c                	pop    %r12
  40ee81:	41 5d                	pop    %r13
  40ee83:	41 5e                	pop    %r14
  40ee85:	41 5f                	pop    %r15
  40ee87:	c3                   	retq   
  40ee88:	0f 1f 84 00 00 00 00 	nopl   0x0(%rax,%rax,1)
  40ee8f:	00 
  40ee90:	41 80 7c 07 fe 2f    	cmpb   $0x2f,-0x2(%r15,%rax,1)
  40ee96:	0f 85 dc fe ff ff    	jne    40ed78 <fts_open+0x1b8>
  40ee9c:	48 83 e8 01          	sub    $0x1,%rax
  40eea0:	48 83 f8 01          	cmp    $0x1,%rax
  40eea4:	75 ea                	jne    40ee90 <fts_open+0x2d0>
  40eea6:	e9 cd fe ff ff       	jmpq   40ed78 <fts_open+0x1b8>
  40eeab:	0f 1f 44 00 00       	nopl   0x0(%rax,%rax,1)
  40eeb0:	89 d8                	mov    %ebx,%eax
  40eeb2:	80 e4 fd             	and    $0xfd,%ah
  40eeb5:	83 c8 04             	or     $0x4,%eax
  40eeb8:	41 89 44 24 48       	mov    %eax,0x48(%r12)
  40eebd:	e9 72 fd ff ff       	jmpq   40ec34 <fts_open+0x74>
  40eec2:	66 0f 1f 44 00 00    	nopw   0x0(%rax,%rax,1)
  40eec8:	48 89 ef             	mov    %rbp,%rdi
  40eecb:	e8 80 eb ff ff       	callq  40da50 <__sprintf_chk@plt+0xb550>
  40eed0:	48 8b 3c 24          	mov    (%rsp),%rdi
  40eed4:	e8 f7 2f ff ff       	callq  401ed0 <free@plt>
  40eed9:	49 8b 7c 24 20       	mov    0x20(%r12),%rdi
  40eede:	e8 ed 2f ff ff       	callq  401ed0 <free@plt>
  40eee3:	4c 89 e7             	mov    %r12,%rdi
  40eee6:	e8 e5 2f ff ff       	callq  401ed0 <free@plt>
  40eeeb:	31 c0                	xor    %eax,%eax
  40eeed:	48 83 c4 28          	add    $0x28,%rsp
  40eef1:	5b                   	pop    %rbx
  40eef2:	5d                   	pop    %rbp
  40eef3:	41 5c                	pop    %r12
  40eef5:	41 5d                	pop    %r13
  40eef7:	41 5e                	pop    %r14
  40eef9:	41 5f                	pop    %r15
  40eefb:	c3                   	retq   
  40eefc:	0f 1f 40 00          	nopl   0x0(%rax)
  40ef00:	e8 0b 30 ff ff       	callq  401f10 <__errno_location@plt>
  40ef05:	c7 00 16 00 00 00    	movl   $0x16,(%rax)
  40ef0b:	48 83 c4 28          	add    $0x28,%rsp
  40ef0f:	31 c0                	xor    %eax,%eax
  40ef11:	5b                   	pop    %rbx
  40ef12:	5d                   	pop    %rbp
  40ef13:	41 5c                	pop    %r12
  40ef15:	41 5d                	pop    %r13
  40ef17:	41 5e                	pop    %r14
  40ef19:	41 5f                	pop    %r15
  40ef1b:	c3                   	retq   
  40ef1c:	0f 1f 40 00          	nopl   0x0(%rax)
  40ef20:	41 8b 7c 24 2c       	mov    0x2c(%r12),%edi
  40ef25:	ba 84 66 41 00       	mov    $0x416684,%edx
  40ef2a:	e8 61 ef ff ff       	callq  40de90 <__sprintf_chk@plt+0xb990>
  40ef2f:	85 c0                	test   %eax,%eax
  40ef31:	41 89 44 24 28       	mov    %eax,0x28(%r12)
  40ef36:	0f 89 2b ff ff ff    	jns    40ee67 <fts_open+0x2a7>
  40ef3c:	41 83 4c 24 48 04    	orl    $0x4,0x48(%r12)
  40ef42:	e9 20 ff ff ff       	jmpq   40ee67 <fts_open+0x2a7>
  40ef47:	66 0f 1f 84 00 00 00 	nopw   0x0(%rax,%rax,1)
  40ef4e:	00 00 
  40ef50:	4d 85 f6             	test   %r14,%r14
  40ef53:	0f 84 c1 fe ff ff    	je     40ee1a <fts_open+0x25a>
  40ef59:	48 89 ee             	mov    %rbp,%rsi
  40ef5c:	48 89 da             	mov    %rbx,%rdx
  40ef5f:	4c 89 e7             	mov    %r12,%rdi
  40ef62:	e8 39 e9 ff ff       	callq  40d8a0 <__sprintf_chk@plt+0xb3a0>
  40ef67:	48 89 c5             	mov    %rax,%rbp
  40ef6a:	e9 ab fe ff ff       	jmpq   40ee1a <fts_open+0x25a>
  40ef6f:	90                   	nop
  40ef70:	31 f6                	xor    %esi,%esi
  40ef72:	48 c7 04 24 00 00 00 	movq   $0x0,(%rsp)
  40ef79:	00 
  40ef7a:	e9 4b fd ff ff       	jmpq   40ecca <fts_open+0x10a>
  40ef7f:	90                   	nop
  40ef80:	4c 89 7c 24 18       	mov    %r15,0x18(%rsp)
  40ef85:	4c 89 fd             	mov    %r15,%rbp
  40ef88:	e9 b3 fd ff ff       	jmpq   40ed40 <fts_open+0x180>
  40ef8d:	ba 00 10 00 00       	mov    $0x1000,%edx
  40ef92:	e9 e5 fc ff ff       	jmpq   40ec7c <fts_open+0xbc>
  40ef97:	31 c0                	xor    %eax,%eax
  40ef99:	e9 4f ff ff ff       	jmpq   40eeed <fts_open+0x32d>
  40ef9e:	31 ed                	xor    %ebp,%ebp
  40efa0:	e9 75 fe ff ff       	jmpq   40ee1a <fts_open+0x25a>
  40efa5:	66 66 2e 0f 1f 84 00 	data32 nopw %cs:0x0(%rax,%rax,1)
  40efac:	00 00 00 00 

000000000040efb0 <fts_close>:
  40efb0:	41 54                	push   %r12
  40efb2:	55                   	push   %rbp
  40efb3:	48 89 fd             	mov    %rdi,%rbp
  40efb6:	53                   	push   %rbx
  40efb7:	48 8b 3f             	mov    (%rdi),%rdi
  40efba:	48 85 ff             	test   %rdi,%rdi
  40efbd:	74 49                	je     40f008 <fts_close+0x58>
  40efbf:	48 83 7f 58 00       	cmpq   $0x0,0x58(%rdi)
  40efc4:	79 19                	jns    40efdf <fts_close+0x2f>
  40efc6:	e9 11 01 00 00       	jmpq   40f0dc <fts_close+0x12c>
  40efcb:	0f 1f 44 00 00       	nopl   0x0(%rax,%rax,1)
  40efd0:	e8 fb 2e ff ff       	callq  401ed0 <free@plt>
  40efd5:	48 83 7b 58 00       	cmpq   $0x0,0x58(%rbx)
  40efda:	78 24                	js     40f000 <fts_close+0x50>
  40efdc:	48 89 df             	mov    %rbx,%rdi
  40efdf:	48 8b 5f 10          	mov    0x10(%rdi),%rbx
  40efe3:	48 85 db             	test   %rbx,%rbx
  40efe6:	75 e8                	jne    40efd0 <fts_close+0x20>
  40efe8:	48 8b 5f 08          	mov    0x8(%rdi),%rbx
  40efec:	e8 df 2e ff ff       	callq  401ed0 <free@plt>
  40eff1:	48 83 7b 58 00       	cmpq   $0x0,0x58(%rbx)
  40eff6:	79 e4                	jns    40efdc <fts_close+0x2c>
  40eff8:	0f 1f 84 00 00 00 00 	nopl   0x0(%rax,%rax,1)
  40efff:	00 
  40f000:	48 89 df             	mov    %rbx,%rdi
  40f003:	e8 c8 2e ff ff       	callq  401ed0 <free@plt>
  40f008:	48 8b 7d 08          	mov    0x8(%rbp),%rdi
  40f00c:	48 85 ff             	test   %rdi,%rdi
  40f00f:	74 05                	je     40f016 <fts_close+0x66>
  40f011:	e8 3a ea ff ff       	callq  40da50 <__sprintf_chk@plt+0xb550>
  40f016:	48 8b 7d 10          	mov    0x10(%rbp),%rdi
  40f01a:	e8 b1 2e ff ff       	callq  401ed0 <free@plt>
  40f01f:	48 8b 7d 20          	mov    0x20(%rbp),%rdi
  40f023:	e8 a8 2e ff ff       	callq  401ed0 <free@plt>
  40f028:	8b 45 48             	mov    0x48(%rbp),%eax
  40f02b:	f6 c4 02             	test   $0x2,%ah
  40f02e:	74 60                	je     40f090 <fts_close+0xe0>
  40f030:	8b 7d 2c             	mov    0x2c(%rbp),%edi
  40f033:	85 ff                	test   %edi,%edi
  40f035:	78 11                	js     40f048 <fts_close+0x98>
  40f037:	e8 04 31 ff ff       	callq  402140 <close@plt>
  40f03c:	85 c0                	test   %eax,%eax
  40f03e:	0f 85 8c 00 00 00    	jne    40f0d0 <fts_close+0x120>
  40f044:	0f 1f 40 00          	nopl   0x0(%rax)
  40f048:	31 db                	xor    %ebx,%ebx
  40f04a:	48 8d 7d 60          	lea    0x60(%rbp),%rdi
  40f04e:	e8 3d ea ff ff       	callq  40da90 <__sprintf_chk@plt+0xb590>
  40f053:	48 8b 7d 50          	mov    0x50(%rbp),%rdi
  40f057:	48 85 ff             	test   %rdi,%rdi
  40f05a:	74 05                	je     40f061 <fts_close+0xb1>
  40f05c:	e8 cf 87 ff ff       	callq  407830 <__sprintf_chk@plt+0x5330>
  40f061:	f7 45 48 02 01 00 00 	testl  $0x102,0x48(%rbp)
  40f068:	48 8b 7d 58          	mov    0x58(%rbp),%rdi
  40f06c:	74 52                	je     40f0c0 <fts_close+0x110>
  40f06e:	48 85 ff             	test   %rdi,%rdi
  40f071:	74 05                	je     40f078 <fts_close+0xc8>
  40f073:	e8 b8 87 ff ff       	callq  407830 <__sprintf_chk@plt+0x5330>
  40f078:	48 89 ef             	mov    %rbp,%rdi
  40f07b:	e8 50 2e ff ff       	callq  401ed0 <free@plt>
  40f080:	31 c0                	xor    %eax,%eax
  40f082:	85 db                	test   %ebx,%ebx
  40f084:	0f 85 7f 00 00 00    	jne    40f109 <fts_close+0x159>
  40f08a:	5b                   	pop    %rbx
  40f08b:	5d                   	pop    %rbp
  40f08c:	41 5c                	pop    %r12
  40f08e:	c3                   	retq   
  40f08f:	90                   	nop
  40f090:	a8 04                	test   $0x4,%al
  40f092:	75 b4                	jne    40f048 <fts_close+0x98>
  40f094:	8b 7d 28             	mov    0x28(%rbp),%edi
  40f097:	e8 94 32 ff ff       	callq  402330 <fchdir@plt>
  40f09c:	85 c0                	test   %eax,%eax
  40f09e:	75 45                	jne    40f0e5 <fts_close+0x135>
  40f0a0:	8b 7d 28             	mov    0x28(%rbp),%edi
  40f0a3:	e8 98 30 ff ff       	callq  402140 <close@plt>
  40f0a8:	85 c0                	test   %eax,%eax
  40f0aa:	74 9c                	je     40f048 <fts_close+0x98>
  40f0ac:	e8 5f 2e ff ff       	callq  401f10 <__errno_location@plt>
  40f0b1:	49 89 c4             	mov    %rax,%r12
  40f0b4:	41 8b 1c 24          	mov    (%r12),%ebx
  40f0b8:	eb 90                	jmp    40f04a <fts_close+0x9a>
  40f0ba:	66 0f 1f 44 00 00    	nopw   0x0(%rax,%rax,1)
  40f0c0:	e8 0b 2e ff ff       	callq  401ed0 <free@plt>
  40f0c5:	eb b1                	jmp    40f078 <fts_close+0xc8>
  40f0c7:	66 0f 1f 84 00 00 00 	nopw   0x0(%rax,%rax,1)
  40f0ce:	00 00 
  40f0d0:	e8 3b 2e ff ff       	callq  401f10 <__errno_location@plt>
  40f0d5:	8b 18                	mov    (%rax),%ebx
  40f0d7:	e9 6e ff ff ff       	jmpq   40f04a <fts_close+0x9a>
  40f0dc:	48 89 fb             	mov    %rdi,%rbx
  40f0df:	90                   	nop
  40f0e0:	e9 1b ff ff ff       	jmpq   40f000 <fts_close+0x50>
  40f0e5:	e8 26 2e ff ff       	callq  401f10 <__errno_location@plt>
  40f0ea:	8b 7d 28             	mov    0x28(%rbp),%edi
  40f0ed:	49 89 c4             	mov    %rax,%r12
  40f0f0:	8b 18                	mov    (%rax),%ebx
  40f0f2:	e8 49 30 ff ff       	callq  402140 <close@plt>
  40f0f7:	85 c0                	test   %eax,%eax
  40f0f9:	0f 84 4b ff ff ff    	je     40f04a <fts_close+0x9a>
  40f0ff:	85 db                	test   %ebx,%ebx
  40f101:	0f 85 43 ff ff ff    	jne    40f04a <fts_close+0x9a>
  40f107:	eb ab                	jmp    40f0b4 <fts_close+0x104>
  40f109:	0f 1f 80 00 00 00 00 	nopl   0x0(%rax)
  40f110:	e8 fb 2d ff ff       	callq  401f10 <__errno_location@plt>
  40f115:	89 18                	mov    %ebx,(%rax)
  40f117:	b8 ff ff ff ff       	mov    $0xffffffff,%eax
  40f11c:	e9 69 ff ff ff       	jmpq   40f08a <fts_close+0xda>
  40f121:	66 66 66 66 66 66 2e 	data32 data32 data32 data32 data32 nopw %cs:0x0(%rax,%rax,1)
  40f128:	0f 1f 84 00 00 00 00 
  40f12f:	00 

000000000040f130 <fts_read>:
  40f130:	41 57                	push   %r15
  40f132:	41 56                	push   %r14
  40f134:	41 55                	push   %r13
  40f136:	41 54                	push   %r12
  40f138:	49 89 fc             	mov    %rdi,%r12
  40f13b:	55                   	push   %rbp
  40f13c:	53                   	push   %rbx
  40f13d:	48 81 ec 98 00 00 00 	sub    $0x98,%rsp
  40f144:	48 8b 2f             	mov    (%rdi),%rbp
  40f147:	48 85 ed             	test   %rbp,%rbp
  40f14a:	0f 84 10 01 00 00    	je     40f260 <fts_read+0x130>
  40f150:	8b 57 48             	mov    0x48(%rdi),%edx
  40f153:	f6 c6 40             	test   $0x40,%dh
  40f156:	0f 85 04 01 00 00    	jne    40f260 <fts_read+0x130>
  40f15c:	0f b7 45 74          	movzwl 0x74(%rbp),%eax
  40f160:	bb 03 00 00 00       	mov    $0x3,%ebx
  40f165:	66 89 5d 74          	mov    %bx,0x74(%rbp)
  40f169:	66 83 f8 01          	cmp    $0x1,%ax
  40f16d:	0f 84 bd 03 00 00    	je     40f530 <fts_read+0x400>
  40f173:	66 83 f8 02          	cmp    $0x2,%ax
  40f177:	0f 84 fb 00 00 00    	je     40f278 <fts_read+0x148>
  40f17d:	66 83 7d 70 01       	cmpw   $0x1,0x70(%rbp)
  40f182:	75 34                	jne    40f1b8 <fts_read+0x88>
  40f184:	e9 6e 01 00 00       	jmpq   40f2f7 <fts_read+0x1c7>
  40f189:	0f 1f 80 00 00 00 00 	nopl   0x0(%rax)
  40f190:	49 89 1c 24          	mov    %rbx,(%r12)
  40f194:	48 89 ef             	mov    %rbp,%rdi
  40f197:	e8 34 2d ff ff       	callq  401ed0 <free@plt>
  40f19c:	48 83 7b 58 00       	cmpq   $0x0,0x58(%rbx)
  40f1a1:	0f 84 61 01 00 00    	je     40f308 <fts_read+0x1d8>
  40f1a7:	0f b7 43 74          	movzwl 0x74(%rbx),%eax
  40f1ab:	66 83 f8 04          	cmp    $0x4,%ax
  40f1af:	0f 85 5b 02 00 00    	jne    40f410 <fts_read+0x2e0>
  40f1b5:	48 89 dd             	mov    %rbx,%rbp
  40f1b8:	48 8b 5d 10          	mov    0x10(%rbp),%rbx
  40f1bc:	48 85 db             	test   %rbx,%rbx
  40f1bf:	75 cf                	jne    40f190 <fts_read+0x60>
  40f1c1:	48 8b 5d 08          	mov    0x8(%rbp),%rbx
  40f1c5:	48 83 7b 18 00       	cmpq   $0x0,0x18(%rbx)
  40f1ca:	0f 85 4d 05 00 00    	jne    40f71d <fts_read+0x5ed>
  40f1d0:	49 89 1c 24          	mov    %rbx,(%r12)
  40f1d4:	48 89 ef             	mov    %rbp,%rdi
  40f1d7:	e8 f4 2c ff ff       	callq  401ed0 <free@plt>
  40f1dc:	48 83 7b 58 ff       	cmpq   $0xffffffffffffffff,0x58(%rbx)
  40f1e1:	0f 84 32 04 00 00    	je     40f619 <fts_read+0x4e9>
  40f1e7:	66 83 7b 70 0b       	cmpw   $0xb,0x70(%rbx)
  40f1ec:	0f 84 8e 02 00 00    	je     40f480 <fts_read+0x350>
  40f1f2:	49 8b 54 24 20       	mov    0x20(%r12),%rdx
  40f1f7:	48 8b 43 48          	mov    0x48(%rbx),%rax
  40f1fb:	c6 04 02 00          	movb   $0x0,(%rdx,%rax,1)
  40f1ff:	48 83 7b 58 00       	cmpq   $0x0,0x58(%rbx)
  40f204:	0f 84 94 03 00 00    	je     40f59e <fts_read+0x46e>
  40f20a:	0f b7 43 72          	movzwl 0x72(%rbx),%eax
  40f20e:	a8 02                	test   $0x2,%al
  40f210:	0f 84 37 03 00 00    	je     40f54d <fts_read+0x41d>
  40f216:	41 8b 44 24 48       	mov    0x48(%r12),%eax
  40f21b:	a8 04                	test   $0x4,%al
  40f21d:	0f 84 8c 03 00 00    	je     40f5af <fts_read+0x47f>
  40f223:	8b 7b 44             	mov    0x44(%rbx),%edi
  40f226:	e8 15 2f ff ff       	callq  402140 <close@plt>
  40f22b:	41 8b 7c 24 48       	mov    0x48(%r12),%edi
  40f230:	8b 4b 40             	mov    0x40(%rbx),%ecx
  40f233:	85 c9                	test   %ecx,%ecx
  40f235:	0f 84 d5 02 00 00    	je     40f510 <fts_read+0x3e0>
  40f23b:	b8 07 00 00 00       	mov    $0x7,%eax
  40f240:	66 89 43 70          	mov    %ax,0x70(%rbx)
  40f244:	81 e7 00 40 00 00    	and    $0x4000,%edi
  40f24a:	75 14                	jne    40f260 <fts_read+0x130>
  40f24c:	48 89 d8             	mov    %rbx,%rax
  40f24f:	eb 11                	jmp    40f262 <fts_read+0x132>
  40f251:	41 81 4c 24 48 00 40 	orl    $0x4000,0x48(%r12)
  40f258:	00 00 
  40f25a:	66 0f 1f 44 00 00    	nopw   0x0(%rax,%rax,1)
  40f260:	31 c0                	xor    %eax,%eax
  40f262:	48 81 c4 98 00 00 00 	add    $0x98,%rsp
  40f269:	5b                   	pop    %rbx
  40f26a:	5d                   	pop    %rbp
  40f26b:	41 5c                	pop    %r12
  40f26d:	41 5d                	pop    %r13
  40f26f:	41 5e                	pop    %r14
  40f271:	41 5f                	pop    %r15
  40f273:	c3                   	retq   
  40f274:	0f 1f 40 00          	nopl   0x0(%rax)
  40f278:	0f b7 45 70          	movzwl 0x70(%rbp),%eax
  40f27c:	8d 48 f4             	lea    -0xc(%rax),%ecx
  40f27f:	66 83 f9 01          	cmp    $0x1,%cx
  40f283:	0f 86 4e 03 00 00    	jbe    40f5d7 <fts_read+0x4a7>
  40f289:	66 83 e8 01          	sub    $0x1,%ax
  40f28d:	0f 85 25 ff ff ff    	jne    40f1b8 <fts_read+0x88>
  40f293:	0f 1f 44 00 00       	nopl   0x0(%rax,%rax,1)
  40f298:	f6 c2 40             	test   $0x40,%dl
  40f29b:	0f 84 e7 01 00 00    	je     40f488 <fts_read+0x358>
  40f2a1:	49 8b 44 24 18       	mov    0x18(%r12),%rax
  40f2a6:	48 39 45 78          	cmp    %rax,0x78(%rbp)
  40f2aa:	0f 84 d8 01 00 00    	je     40f488 <fts_read+0x358>
  40f2b0:	f6 45 72 02          	testb  $0x2,0x72(%rbp)
  40f2b4:	0f 85 56 04 00 00    	jne    40f710 <fts_read+0x5e0>
  40f2ba:	49 8b 7c 24 08       	mov    0x8(%r12),%rdi
  40f2bf:	48 85 ff             	test   %rdi,%rdi
  40f2c2:	74 0e                	je     40f2d2 <fts_read+0x1a2>
  40f2c4:	e8 87 e7 ff ff       	callq  40da50 <__sprintf_chk@plt+0xb550>
  40f2c9:	49 c7 44 24 08 00 00 	movq   $0x0,0x8(%r12)
  40f2d0:	00 00 
  40f2d2:	41 8b 7c 24 48       	mov    0x48(%r12),%edi
  40f2d7:	41 ba 06 00 00 00    	mov    $0x6,%r10d
  40f2dd:	49 8d 74 24 58       	lea    0x58(%r12),%rsi
  40f2e2:	66 44 89 55 70       	mov    %r10w,0x70(%rbp)
  40f2e7:	48 89 ea             	mov    %rbp,%rdx
  40f2ea:	e8 11 ef ff ff       	callq  40e200 <__sprintf_chk@plt+0xbd00>
  40f2ef:	48 89 e8             	mov    %rbp,%rax
  40f2f2:	e9 6b ff ff ff       	jmpq   40f262 <fts_read+0x132>
  40f2f7:	66 83 f8 04          	cmp    $0x4,%ax
  40f2fb:	75 9b                	jne    40f298 <fts_read+0x168>
  40f2fd:	0f 1f 00             	nopl   (%rax)
  40f300:	eb ae                	jmp    40f2b0 <fts_read+0x180>
  40f302:	66 0f 1f 44 00 00    	nopw   0x0(%rax,%rax,1)
  40f308:	4c 89 e7             	mov    %r12,%rdi
  40f30b:	e8 20 e8 ff ff       	callq  40db30 <__sprintf_chk@plt+0xb630>
  40f310:	85 c0                	test   %eax,%eax
  40f312:	0f 85 39 ff ff ff    	jne    40f251 <fts_read+0x121>
  40f318:	41 f7 44 24 48 02 01 	testl  $0x102,0x48(%r12)
  40f31f:	00 00 
  40f321:	49 8b 7c 24 58       	mov    0x58(%r12),%rdi
  40f326:	0f 84 14 03 00 00    	je     40f640 <fts_read+0x510>
  40f32c:	48 85 ff             	test   %rdi,%rdi
  40f32f:	74 05                	je     40f336 <fts_read+0x206>
  40f331:	e8 fa 84 ff ff       	callq  407830 <__sprintf_chk@plt+0x5330>
  40f336:	48 8b 53 60          	mov    0x60(%rbx),%rdx
  40f33a:	48 8d ab 08 01 00 00 	lea    0x108(%rbx),%rbp
  40f341:	49 8b 7c 24 20       	mov    0x20(%r12),%rdi
  40f346:	48 89 ee             	mov    %rbp,%rsi
  40f349:	48 89 53 48          	mov    %rdx,0x48(%rbx)
  40f34d:	48 83 c2 01          	add    $0x1,%rdx
  40f351:	e8 5a 30 ff ff       	callq  4023b0 <memmove@plt>
  40f356:	be 2f 00 00 00       	mov    $0x2f,%esi
  40f35b:	48 89 ef             	mov    %rbp,%rdi
  40f35e:	e8 4d 2d ff ff       	callq  4020b0 <strrchr@plt>
  40f363:	48 85 c0             	test   %rax,%rax
  40f366:	74 2b                	je     40f393 <fts_read+0x263>
  40f368:	48 39 c5             	cmp    %rax,%rbp
  40f36b:	0f 84 12 03 00 00    	je     40f683 <fts_read+0x553>
  40f371:	4c 8d 70 01          	lea    0x1(%rax),%r14
  40f375:	4c 89 f7             	mov    %r14,%rdi
  40f378:	e8 93 2c ff ff       	callq  402010 <strlen@plt>
  40f37d:	48 8d 50 01          	lea    0x1(%rax),%rdx
  40f381:	49 89 c5             	mov    %rax,%r13
  40f384:	4c 89 f6             	mov    %r14,%rsi
  40f387:	48 89 ef             	mov    %rbp,%rdi
  40f38a:	e8 21 30 ff ff       	callq  4023b0 <memmove@plt>
  40f38f:	4c 89 6b 60          	mov    %r13,0x60(%rbx)
  40f393:	49 8b 44 24 20       	mov    0x20(%r12),%rax
  40f398:	49 8d 74 24 58       	lea    0x58(%r12),%rsi
  40f39d:	48 89 43 38          	mov    %rax,0x38(%rbx)
  40f3a1:	48 89 43 30          	mov    %rax,0x30(%rbx)
  40f3a5:	41 8b 7c 24 48       	mov    0x48(%r12),%edi
  40f3aa:	e8 81 ea ff ff       	callq  40de30 <__sprintf_chk@plt+0xb930>
  40f3af:	0f b7 53 70          	movzwl 0x70(%rbx),%edx
  40f3b3:	66 83 fa 0b          	cmp    $0xb,%dx
  40f3b7:	49 89 1c 24          	mov    %rbx,(%r12)
  40f3bb:	0f 84 a4 00 00 00    	je     40f465 <fts_read+0x335>
  40f3c1:	66 83 fa 01          	cmp    $0x1,%dx
  40f3c5:	48 89 d8             	mov    %rbx,%rax
  40f3c8:	0f 85 94 fe ff ff    	jne    40f262 <fts_read+0x132>
  40f3ce:	48 83 7b 58 00       	cmpq   $0x0,0x58(%rbx)
  40f3d3:	75 09                	jne    40f3de <fts_read+0x2ae>
  40f3d5:	48 8b 43 78          	mov    0x78(%rbx),%rax
  40f3d9:	49 89 44 24 18       	mov    %rax,0x18(%r12)
  40f3de:	41 8b 7c 24 48       	mov    0x48(%r12),%edi
  40f3e3:	49 8d 74 24 58       	lea    0x58(%r12),%rsi
  40f3e8:	48 89 da             	mov    %rbx,%rdx
  40f3eb:	e8 00 eb ff ff       	callq  40def0 <__sprintf_chk@plt+0xb9f0>
  40f3f0:	89 c2                	mov    %eax,%edx
  40f3f2:	48 89 d8             	mov    %rbx,%rax
  40f3f5:	84 d2                	test   %dl,%dl
  40f3f7:	0f 85 65 fe ff ff    	jne    40f262 <fts_read+0x132>
  40f3fd:	e8 0e 2b ff ff       	callq  401f10 <__errno_location@plt>
  40f402:	c7 00 0c 00 00 00    	movl   $0xc,(%rax)
  40f408:	31 c0                	xor    %eax,%eax
  40f40a:	e9 53 fe ff ff       	jmpq   40f262 <fts_read+0x132>
  40f40f:	90                   	nop
  40f410:	66 83 f8 02          	cmp    $0x2,%ax
  40f414:	0f 84 36 03 00 00    	je     40f750 <fts_read+0x620>
  40f41a:	48 8b 53 08          	mov    0x8(%rbx),%rdx
  40f41e:	48 8d b3 08 01 00 00 	lea    0x108(%rbx),%rsi
  40f425:	48 8b 42 48          	mov    0x48(%rdx),%rax
  40f429:	48 8b 52 38          	mov    0x38(%rdx),%rdx
  40f42d:	80 7c 02 ff 2f       	cmpb   $0x2f,-0x1(%rdx,%rax,1)
  40f432:	48 8d 78 ff          	lea    -0x1(%rax),%rdi
  40f436:	48 0f 45 f8          	cmovne %rax,%rdi
  40f43a:	49 03 7c 24 20       	add    0x20(%r12),%rdi
  40f43f:	c6 07 2f             	movb   $0x2f,(%rdi)
  40f442:	48 8b 43 60          	mov    0x60(%rbx),%rax
  40f446:	48 83 c7 01          	add    $0x1,%rdi
  40f44a:	48 8d 50 01          	lea    0x1(%rax),%rdx
  40f44e:	e8 5d 2f ff ff       	callq  4023b0 <memmove@plt>
  40f453:	0f b7 53 70          	movzwl 0x70(%rbx),%edx
  40f457:	49 89 1c 24          	mov    %rbx,(%r12)
  40f45b:	66 83 fa 0b          	cmp    $0xb,%dx
  40f45f:	0f 85 5c ff ff ff    	jne    40f3c1 <fts_read+0x291>
  40f465:	48 8b 83 a8 00 00 00 	mov    0xa8(%rbx),%rax
  40f46c:	48 83 f8 02          	cmp    $0x2,%rax
  40f470:	0f 84 1f 02 00 00    	je     40f695 <fts_read+0x565>
  40f476:	48 83 f8 01          	cmp    $0x1,%rax
  40f47a:	0f 84 cc fd ff ff    	je     40f24c <fts_read+0x11c>
  40f480:	e8 7b 2a ff ff       	callq  401f00 <abort@plt>
  40f485:	0f 1f 00             	nopl   (%rax)
  40f488:	49 8b 7c 24 08       	mov    0x8(%r12),%rdi
  40f48d:	48 85 ff             	test   %rdi,%rdi
  40f490:	0f 84 ca 01 00 00    	je     40f660 <fts_read+0x530>
  40f496:	f6 c6 20             	test   $0x20,%dh
  40f499:	0f 85 ab 01 00 00    	jne    40f64a <fts_read+0x51a>
  40f49f:	4c 8b 45 30          	mov    0x30(%rbp),%r8
  40f4a3:	48 8d 95 80 00 00 00 	lea    0x80(%rbp),%rdx
  40f4aa:	48 8d 75 78          	lea    0x78(%rbp),%rsi
  40f4ae:	b9 ff ff ff ff       	mov    $0xffffffff,%ecx
  40f4b3:	4c 89 e7             	mov    %r12,%rdi
  40f4b6:	e8 15 eb ff ff       	callq  40dfd0 <__sprintf_chk@plt+0xbad0>
  40f4bb:	85 c0                	test   %eax,%eax
  40f4bd:	0f 84 0a 01 00 00    	je     40f5cd <fts_read+0x49d>
  40f4c3:	e8 48 2a ff ff       	callq  401f10 <__errno_location@plt>
  40f4c8:	49 8b 54 24 08       	mov    0x8(%r12),%rdx
  40f4cd:	8b 00                	mov    (%rax),%eax
  40f4cf:	66 83 4d 72 01       	orw    $0x1,0x72(%rbp)
  40f4d4:	48 85 d2             	test   %rdx,%rdx
  40f4d7:	89 45 40             	mov    %eax,0x40(%rbp)
  40f4da:	48 89 d3             	mov    %rdx,%rbx
  40f4dd:	74 19                	je     40f4f8 <fts_read+0x3c8>
  40f4df:	90                   	nop
  40f4e0:	48 8b 43 08          	mov    0x8(%rbx),%rax
  40f4e4:	48 8b 40 30          	mov    0x30(%rax),%rax
  40f4e8:	48 89 43 30          	mov    %rax,0x30(%rbx)
  40f4ec:	48 8b 5b 10          	mov    0x10(%rbx),%rbx
  40f4f0:	48 85 db             	test   %rbx,%rbx
  40f4f3:	75 eb                	jne    40f4e0 <fts_read+0x3b0>
  40f4f5:	48 89 d3             	mov    %rdx,%rbx
  40f4f8:	49 c7 44 24 08 00 00 	movq   $0x0,0x8(%r12)
  40f4ff:	00 00 
  40f501:	e9 14 ff ff ff       	jmpq   40f41a <fts_read+0x2ea>
  40f506:	66 2e 0f 1f 84 00 00 	nopw   %cs:0x0(%rax,%rax,1)
  40f50d:	00 00 00 
  40f510:	ba 06 00 00 00       	mov    $0x6,%edx
  40f515:	49 8d 74 24 58       	lea    0x58(%r12),%rsi
  40f51a:	66 89 53 70          	mov    %dx,0x70(%rbx)
  40f51e:	48 89 da             	mov    %rbx,%rdx
  40f521:	e8 da ec ff ff       	callq  40e200 <__sprintf_chk@plt+0xbd00>
  40f526:	41 8b 7c 24 48       	mov    0x48(%r12),%edi
  40f52b:	e9 14 fd ff ff       	jmpq   40f244 <fts_read+0x114>
  40f530:	48 8d 77 48          	lea    0x48(%rdi),%rsi
  40f534:	8b 7f 2c             	mov    0x2c(%rdi),%edi
  40f537:	31 c9                	xor    %ecx,%ecx
  40f539:	48 89 ea             	mov    %rbp,%rdx
  40f53c:	e8 4f e6 ff ff       	callq  40db90 <__sprintf_chk@plt+0xb690>
  40f541:	66 89 45 70          	mov    %ax,0x70(%rbp)
  40f545:	48 89 e8             	mov    %rbp,%rax
  40f548:	e9 15 fd ff ff       	jmpq   40f262 <fts_read+0x132>
  40f54d:	a8 01                	test   $0x1,%al
  40f54f:	0f 85 d6 fc ff ff    	jne    40f22b <fts_read+0xfb>
  40f555:	48 8b 43 08          	mov    0x8(%rbx),%rax
  40f559:	41 b8 83 66 41 00    	mov    $0x416683,%r8d
  40f55f:	b9 ff ff ff ff       	mov    $0xffffffff,%ecx
  40f564:	4c 89 e7             	mov    %r12,%rdi
  40f567:	48 8d 90 80 00 00 00 	lea    0x80(%rax),%rdx
  40f56e:	48 8d 70 78          	lea    0x78(%rax),%rsi
  40f572:	e8 59 ea ff ff       	callq  40dfd0 <__sprintf_chk@plt+0xbad0>
  40f577:	85 c0                	test   %eax,%eax
  40f579:	0f 84 ac fc ff ff    	je     40f22b <fts_read+0xfb>
  40f57f:	e8 8c 29 ff ff       	callq  401f10 <__errno_location@plt>
  40f584:	41 8b 7c 24 48       	mov    0x48(%r12),%edi
  40f589:	8b 00                	mov    (%rax),%eax
  40f58b:	81 cf 00 40 00 00    	or     $0x4000,%edi
  40f591:	89 43 40             	mov    %eax,0x40(%rbx)
  40f594:	41 89 7c 24 48       	mov    %edi,0x48(%r12)
  40f599:	e9 92 fc ff ff       	jmpq   40f230 <fts_read+0x100>
  40f59e:	4c 89 e7             	mov    %r12,%rdi
  40f5a1:	e8 8a e5 ff ff       	callq  40db30 <__sprintf_chk@plt+0xb630>
  40f5a6:	85 c0                	test   %eax,%eax
  40f5a8:	75 d5                	jne    40f57f <fts_read+0x44f>
  40f5aa:	e9 7c fc ff ff       	jmpq   40f22b <fts_read+0xfb>
  40f5af:	f6 c4 02             	test   $0x2,%ah
  40f5b2:	0f 84 c7 01 00 00    	je     40f77f <fts_read+0x64f>
  40f5b8:	8b 73 44             	mov    0x44(%rbx),%esi
  40f5bb:	ba 01 00 00 00       	mov    $0x1,%edx
  40f5c0:	4c 89 e7             	mov    %r12,%rdi
  40f5c3:	e8 08 e5 ff ff       	callq  40dad0 <__sprintf_chk@plt+0xb5d0>
  40f5c8:	e9 56 fc ff ff       	jmpq   40f223 <fts_read+0xf3>
  40f5cd:	49 8b 5c 24 08       	mov    0x8(%r12),%rbx
  40f5d2:	e9 21 ff ff ff       	jmpq   40f4f8 <fts_read+0x3c8>
  40f5d7:	48 8d 77 48          	lea    0x48(%rdi),%rsi
  40f5db:	8b 7f 2c             	mov    0x2c(%rdi),%edi
  40f5de:	48 89 ea             	mov    %rbp,%rdx
  40f5e1:	b9 01 00 00 00       	mov    $0x1,%ecx
  40f5e6:	48 89 eb             	mov    %rbp,%rbx
  40f5e9:	e8 a2 e5 ff ff       	callq  40db90 <__sprintf_chk@plt+0xb690>
  40f5ee:	66 83 f8 01          	cmp    $0x1,%ax
  40f5f2:	89 c2                	mov    %eax,%edx
  40f5f4:	66 89 45 70          	mov    %ax,0x70(%rbp)
  40f5f8:	0f 85 b5 fd ff ff    	jne    40f3b3 <fts_read+0x283>
  40f5fe:	41 8b 74 24 48       	mov    0x48(%r12),%esi
  40f603:	40 f6 c6 04          	test   $0x4,%sil
  40f607:	0f 84 ed 01 00 00    	je     40f7fa <fts_read+0x6ca>
  40f60d:	49 89 2c 24          	mov    %rbp,(%r12)
  40f611:	48 89 eb             	mov    %rbp,%rbx
  40f614:	e9 a8 fd ff ff       	jmpq   40f3c1 <fts_read+0x291>
  40f619:	48 89 df             	mov    %rbx,%rdi
  40f61c:	e8 af 28 ff ff       	callq  401ed0 <free@plt>
  40f621:	e8 ea 28 ff ff       	callq  401f10 <__errno_location@plt>
  40f626:	c7 00 00 00 00 00    	movl   $0x0,(%rax)
  40f62c:	49 c7 04 24 00 00 00 	movq   $0x0,(%r12)
  40f633:	00 
  40f634:	31 c0                	xor    %eax,%eax
  40f636:	e9 27 fc ff ff       	jmpq   40f262 <fts_read+0x132>
  40f63b:	0f 1f 44 00 00       	nopl   0x0(%rax,%rax,1)
  40f640:	e8 8b 28 ff ff       	callq  401ed0 <free@plt>
  40f645:	e9 ec fc ff ff       	jmpq   40f336 <fts_read+0x206>
  40f64a:	80 e6 df             	and    $0xdf,%dh
  40f64d:	41 89 54 24 48       	mov    %edx,0x48(%r12)
  40f652:	e8 f9 e3 ff ff       	callq  40da50 <__sprintf_chk@plt+0xb550>
  40f657:	49 c7 44 24 08 00 00 	movq   $0x0,0x8(%r12)
  40f65e:	00 00 
  40f660:	be 03 00 00 00       	mov    $0x3,%esi
  40f665:	4c 89 e7             	mov    %r12,%rdi
  40f668:	e8 33 ec ff ff       	callq  40e2a0 <__sprintf_chk@plt+0xbda0>
  40f66d:	48 85 c0             	test   %rax,%rax
  40f670:	49 89 44 24 08       	mov    %rax,0x8(%r12)
  40f675:	0f 84 f6 01 00 00    	je     40f871 <fts_read+0x741>
  40f67b:	48 89 c3             	mov    %rax,%rbx
  40f67e:	e9 75 fe ff ff       	jmpq   40f4f8 <fts_read+0x3c8>
  40f683:	80 bb 09 01 00 00 00 	cmpb   $0x0,0x109(%rbx)
  40f68a:	0f 85 e1 fc ff ff    	jne    40f371 <fts_read+0x241>
  40f690:	e9 fe fc ff ff       	jmpq   40f393 <fts_read+0x263>
  40f695:	48 83 7b 58 00       	cmpq   $0x0,0x58(%rbx)
  40f69a:	48 8b 6b 08          	mov    0x8(%rbx),%rbp
  40f69e:	7e 18                	jle    40f6b8 <fts_read+0x588>
  40f6a0:	48 83 7d 68 00       	cmpq   $0x0,0x68(%rbp)
  40f6a5:	75 11                	jne    40f6b8 <fts_read+0x588>
  40f6a7:	41 8b 44 24 48       	mov    0x48(%r12),%eax
  40f6ac:	83 e0 18             	and    $0x18,%eax
  40f6af:	83 f8 18             	cmp    $0x18,%eax
  40f6b2:	0f 84 6a 01 00 00    	je     40f822 <fts_read+0x6f2>
  40f6b8:	41 8b 7c 24 2c       	mov    0x2c(%r12),%edi
  40f6bd:	49 8d 74 24 48       	lea    0x48(%r12),%rsi
  40f6c2:	31 c9                	xor    %ecx,%ecx
  40f6c4:	48 89 da             	mov    %rbx,%rdx
  40f6c7:	e8 c4 e4 ff ff       	callq  40db90 <__sprintf_chk@plt+0xb690>
  40f6cc:	89 c2                	mov    %eax,%edx
  40f6ce:	66 89 43 70          	mov    %ax,0x70(%rbx)
  40f6d2:	8b 83 90 00 00 00    	mov    0x90(%rbx),%eax
  40f6d8:	25 00 f0 00 00       	and    $0xf000,%eax
  40f6dd:	3d 00 40 00 00       	cmp    $0x4000,%eax
  40f6e2:	0f 85 d9 fc ff ff    	jne    40f3c1 <fts_read+0x291>
  40f6e8:	48 83 7b 58 00       	cmpq   $0x0,0x58(%rbx)
  40f6ed:	0f 84 ce fc ff ff    	je     40f3c1 <fts_read+0x291>
  40f6f3:	48 8b 45 68          	mov    0x68(%rbp),%rax
  40f6f7:	48 85 c0             	test   %rax,%rax
  40f6fa:	0f 84 c1 fc ff ff    	je     40f3c1 <fts_read+0x291>
  40f700:	48 83 e8 01          	sub    $0x1,%rax
  40f704:	48 89 45 68          	mov    %rax,0x68(%rbp)
  40f708:	e9 b4 fc ff ff       	jmpq   40f3c1 <fts_read+0x291>
  40f70d:	0f 1f 00             	nopl   (%rax)
  40f710:	8b 7d 44             	mov    0x44(%rbp),%edi
  40f713:	e8 28 2a ff ff       	callq  402140 <close@plt>
  40f718:	e9 9d fb ff ff       	jmpq   40f2ba <fts_read+0x18a>
  40f71d:	48 8b 43 48          	mov    0x48(%rbx),%rax
  40f721:	49 8b 54 24 20       	mov    0x20(%r12),%rdx
  40f726:	be 03 00 00 00       	mov    $0x3,%esi
  40f72b:	49 89 1c 24          	mov    %rbx,(%r12)
  40f72f:	4c 89 e7             	mov    %r12,%rdi
  40f732:	c6 04 02 00          	movb   $0x0,(%rdx,%rax,1)
  40f736:	e8 65 eb ff ff       	callq  40e2a0 <__sprintf_chk@plt+0xbda0>
  40f73b:	48 85 c0             	test   %rax,%rax
  40f73e:	48 89 c3             	mov    %rax,%rbx
  40f741:	74 73                	je     40f7b6 <fts_read+0x686>
  40f743:	48 89 ef             	mov    %rbp,%rdi
  40f746:	e8 85 27 ff ff       	callq  401ed0 <free@plt>
  40f74b:	e9 ca fc ff ff       	jmpq   40f41a <fts_read+0x2ea>
  40f750:	41 8b 7c 24 2c       	mov    0x2c(%r12),%edi
  40f755:	49 8d 74 24 48       	lea    0x48(%r12),%rsi
  40f75a:	b9 01 00 00 00       	mov    $0x1,%ecx
  40f75f:	48 89 da             	mov    %rbx,%rdx
  40f762:	e8 29 e4 ff ff       	callq  40db90 <__sprintf_chk@plt+0xb690>
  40f767:	66 83 f8 01          	cmp    $0x1,%ax
  40f76b:	66 89 43 70          	mov    %ax,0x70(%rbx)
  40f76f:	74 5a                	je     40f7cb <fts_read+0x69b>
  40f771:	be 03 00 00 00       	mov    $0x3,%esi
  40f776:	66 89 73 74          	mov    %si,0x74(%rbx)
  40f77a:	e9 9b fc ff ff       	jmpq   40f41a <fts_read+0x2ea>
  40f77f:	8b 7b 44             	mov    0x44(%rbx),%edi
  40f782:	e8 a9 2b ff ff       	callq  402330 <fchdir@plt>
  40f787:	85 c0                	test   %eax,%eax
  40f789:	0f 84 94 fa ff ff    	je     40f223 <fts_read+0xf3>
  40f78f:	e8 7c 27 ff ff       	callq  401f10 <__errno_location@plt>
  40f794:	8b 7b 44             	mov    0x44(%rbx),%edi
  40f797:	8b 28                	mov    (%rax),%ebp
  40f799:	49 89 c5             	mov    %rax,%r13
  40f79c:	e8 9f 29 ff ff       	callq  402140 <close@plt>
  40f7a1:	41 89 6d 00          	mov    %ebp,0x0(%r13)
  40f7a5:	89 6b 40             	mov    %ebp,0x40(%rbx)
  40f7a8:	41 81 4c 24 48 00 40 	orl    $0x4000,0x48(%r12)
  40f7af:	00 00 
  40f7b1:	e9 6d fa ff ff       	jmpq   40f223 <fts_read+0xf3>
  40f7b6:	41 f6 44 24 49 40    	testb  $0x40,0x49(%r12)
  40f7bc:	0f 85 9e fa ff ff    	jne    40f260 <fts_read+0x130>
  40f7c2:	48 8b 5d 08          	mov    0x8(%rbp),%rbx
  40f7c6:	e9 05 fa ff ff       	jmpq   40f1d0 <fts_read+0xa0>
  40f7cb:	41 8b 74 24 48       	mov    0x48(%r12),%esi
  40f7d0:	40 f6 c6 04          	test   $0x4,%sil
  40f7d4:	75 9b                	jne    40f771 <fts_read+0x641>
  40f7d6:	41 8b 7c 24 2c       	mov    0x2c(%r12),%edi
  40f7db:	ba 84 66 41 00       	mov    $0x416684,%edx
  40f7e0:	e8 ab e6 ff ff       	callq  40de90 <__sprintf_chk@plt+0xb990>
  40f7e5:	85 c0                	test   %eax,%eax
  40f7e7:	89 43 44             	mov    %eax,0x44(%rbx)
  40f7ea:	0f 88 c2 00 00 00    	js     40f8b2 <fts_read+0x782>
  40f7f0:	66 83 4b 72 02       	orw    $0x2,0x72(%rbx)
  40f7f5:	e9 77 ff ff ff       	jmpq   40f771 <fts_read+0x641>
  40f7fa:	41 8b 7c 24 2c       	mov    0x2c(%r12),%edi
  40f7ff:	ba 84 66 41 00       	mov    $0x416684,%edx
  40f804:	e8 87 e6 ff ff       	callq  40de90 <__sprintf_chk@plt+0xb990>
  40f809:	85 c0                	test   %eax,%eax
  40f80b:	89 45 44             	mov    %eax,0x44(%rbp)
  40f80e:	0f 88 b6 00 00 00    	js     40f8ca <fts_read+0x79a>
  40f814:	66 83 4d 72 02       	orw    $0x2,0x72(%rbp)
  40f819:	0f b7 55 70          	movzwl 0x70(%rbp),%edx
  40f81d:	e9 91 fb ff ff       	jmpq   40f3b3 <fts_read+0x283>
  40f822:	4c 8b 7d 50          	mov    0x50(%rbp),%r15
  40f826:	41 f6 47 49 02       	testb  $0x2,0x49(%r15)
  40f82b:	4d 8b 77 50          	mov    0x50(%r15),%r14
  40f82f:	0f 84 83 fe ff ff    	je     40f6b8 <fts_read+0x588>
  40f835:	4d 85 f6             	test   %r14,%r14
  40f838:	0f 84 0d 01 00 00    	je     40f94b <fts_read+0x81b>
  40f83e:	48 8b 45 78          	mov    0x78(%rbp),%rax
  40f842:	48 89 e6             	mov    %rsp,%rsi
  40f845:	4c 89 f7             	mov    %r14,%rdi
  40f848:	48 89 04 24          	mov    %rax,(%rsp)
  40f84c:	e8 3f 7b ff ff       	callq  407390 <__sprintf_chk@plt+0x4e90>
  40f851:	48 85 c0             	test   %rax,%rax
  40f854:	0f 84 8f 00 00 00    	je     40f8e9 <fts_read+0x7b9>
  40f85a:	44 0f b6 78 08       	movzbl 0x8(%rax),%r15d
  40f85f:	45 84 ff             	test   %r15b,%r15b
  40f862:	0f 84 50 fe ff ff    	je     40f6b8 <fts_read+0x588>
  40f868:	0f b7 53 70          	movzwl 0x70(%rbx),%edx
  40f86c:	e9 50 fb ff ff       	jmpq   40f3c1 <fts_read+0x291>
  40f871:	41 8b 7c 24 48       	mov    0x48(%r12),%edi
  40f876:	f7 c7 00 40 00 00    	test   $0x4000,%edi
  40f87c:	0f 85 de f9 ff ff    	jne    40f260 <fts_read+0x130>
  40f882:	44 8b 4d 40          	mov    0x40(%rbp),%r9d
  40f886:	45 85 c9             	test   %r9d,%r9d
  40f889:	74 12                	je     40f89d <fts_read+0x76d>
  40f88b:	66 83 7d 70 04       	cmpw   $0x4,0x70(%rbp)
  40f890:	74 0b                	je     40f89d <fts_read+0x76d>
  40f892:	41 b8 07 00 00 00    	mov    $0x7,%r8d
  40f898:	66 44 89 45 70       	mov    %r8w,0x70(%rbp)
  40f89d:	49 8d 74 24 58       	lea    0x58(%r12),%rsi
  40f8a2:	48 89 ea             	mov    %rbp,%rdx
  40f8a5:	e8 56 e9 ff ff       	callq  40e200 <__sprintf_chk@plt+0xbd00>
  40f8aa:	48 89 e8             	mov    %rbp,%rax
  40f8ad:	e9 b0 f9 ff ff       	jmpq   40f262 <fts_read+0x132>
  40f8b2:	e8 59 26 ff ff       	callq  401f10 <__errno_location@plt>
  40f8b7:	8b 00                	mov    (%rax),%eax
  40f8b9:	bf 07 00 00 00       	mov    $0x7,%edi
  40f8be:	66 89 7b 70          	mov    %di,0x70(%rbx)
  40f8c2:	89 43 40             	mov    %eax,0x40(%rbx)
  40f8c5:	e9 a7 fe ff ff       	jmpq   40f771 <fts_read+0x641>
  40f8ca:	e8 41 26 ff ff       	callq  401f10 <__errno_location@plt>
  40f8cf:	8b 00                	mov    (%rax),%eax
  40f8d1:	41 bb 07 00 00 00    	mov    $0x7,%r11d
  40f8d7:	ba 07 00 00 00       	mov    $0x7,%edx
  40f8dc:	66 44 89 5d 70       	mov    %r11w,0x70(%rbp)
  40f8e1:	89 45 40             	mov    %eax,0x40(%rbp)
  40f8e4:	e9 24 fd ff ff       	jmpq   40f60d <fts_read+0x4dd>
  40f8e9:	bf 10 00 00 00       	mov    $0x10,%edi
  40f8ee:	e8 9d 29 ff ff       	callq  402290 <malloc@plt>
  40f8f3:	48 85 c0             	test   %rax,%rax
  40f8f6:	49 89 c5             	mov    %rax,%r13
  40f8f9:	0f 84 b9 fd ff ff    	je     40f6b8 <fts_read+0x588>
  40f8ff:	41 8b 7f 2c          	mov    0x2c(%r15),%edi
  40f903:	48 8d 74 24 10       	lea    0x10(%rsp),%rsi
  40f908:	45 31 ff             	xor    %r15d,%r15d
  40f90b:	e8 20 2b ff ff       	callq  402430 <fstatfs@plt>
  40f910:	85 c0                	test   %eax,%eax
  40f912:	75 0d                	jne    40f921 <fts_read+0x7f1>
  40f914:	48 81 7c 24 10 73 49 	cmpq   $0x52654973,0x10(%rsp)
  40f91b:	65 52 
  40f91d:	41 0f 94 c7          	sete   %r15b
  40f921:	48 8b 45 78          	mov    0x78(%rbp),%rax
  40f925:	45 88 7d 08          	mov    %r15b,0x8(%r13)
  40f929:	4c 89 ee             	mov    %r13,%rsi
  40f92c:	4c 89 f7             	mov    %r14,%rdi
  40f92f:	49 89 45 00          	mov    %rax,0x0(%r13)
  40f933:	e8 08 84 ff ff       	callq  407d40 <__sprintf_chk@plt+0x5840>
  40f938:	48 85 c0             	test   %rax,%rax
  40f93b:	74 3f                	je     40f97c <fts_read+0x84c>
  40f93d:	49 39 c5             	cmp    %rax,%r13
  40f940:	0f 84 19 ff ff ff    	je     40f85f <fts_read+0x72f>
  40f946:	e9 35 fb ff ff       	jmpq   40f480 <fts_read+0x350>
  40f94b:	31 f6                	xor    %esi,%esi
  40f94d:	41 b8 d0 1e 40 00    	mov    $0x401ed0,%r8d
  40f953:	b9 60 d8 40 00       	mov    $0x40d860,%ecx
  40f958:	ba 50 d8 40 00       	mov    $0x40d850,%edx
  40f95d:	bf 0d 00 00 00       	mov    $0xd,%edi
  40f962:	e8 89 7c ff ff       	callq  4075f0 <__sprintf_chk@plt+0x50f0>
  40f967:	48 85 c0             	test   %rax,%rax
  40f96a:	49 89 c6             	mov    %rax,%r14
  40f96d:	49 89 47 50          	mov    %rax,0x50(%r15)
  40f971:	0f 85 c7 fe ff ff    	jne    40f83e <fts_read+0x70e>
  40f977:	e9 3c fd ff ff       	jmpq   40f6b8 <fts_read+0x588>
  40f97c:	4c 89 ef             	mov    %r13,%rdi
  40f97f:	e8 4c 25 ff ff       	callq  401ed0 <free@plt>
  40f984:	e9 2f fd ff ff       	jmpq   40f6b8 <fts_read+0x588>
  40f989:	0f 1f 80 00 00 00 00 	nopl   0x0(%rax)

000000000040f990 <fts_set>:
  40f990:	83 fa 04             	cmp    $0x4,%edx
  40f993:	77 0b                	ja     40f9a0 <fts_set+0x10>
  40f995:	66 89 56 74          	mov    %dx,0x74(%rsi)
  40f999:	31 c0                	xor    %eax,%eax
  40f99b:	c3                   	retq   
  40f99c:	0f 1f 40 00          	nopl   0x0(%rax)
  40f9a0:	48 83 ec 08          	sub    $0x8,%rsp
  40f9a4:	e8 67 25 ff ff       	callq  401f10 <__errno_location@plt>
  40f9a9:	c7 00 16 00 00 00    	movl   $0x16,(%rax)
  40f9af:	b8 01 00 00 00       	mov    $0x1,%eax
  40f9b4:	48 83 c4 08          	add    $0x8,%rsp
  40f9b8:	c3                   	retq   
  40f9b9:	0f 1f 80 00 00 00 00 	nopl   0x0(%rax)

000000000040f9c0 <fts_children>:
  40f9c0:	41 56                	push   %r14
  40f9c2:	f7 c6 ff df ff ff    	test   $0xffffdfff,%esi
  40f9c8:	41 55                	push   %r13
  40f9ca:	41 54                	push   %r12
  40f9cc:	41 89 f4             	mov    %esi,%r12d
  40f9cf:	55                   	push   %rbp
  40f9d0:	53                   	push   %rbx
  40f9d1:	0f 85 f9 00 00 00    	jne    40fad0 <fts_children+0x110>
  40f9d7:	48 89 fb             	mov    %rdi,%rbx
  40f9da:	48 8b 2f             	mov    (%rdi),%rbp
  40f9dd:	e8 2e 25 ff ff       	callq  401f10 <__errno_location@plt>
  40f9e2:	c7 00 00 00 00 00    	movl   $0x0,(%rax)
  40f9e8:	f6 43 49 40          	testb  $0x40,0x49(%rbx)
  40f9ec:	49 89 c5             	mov    %rax,%r13
  40f9ef:	0f 85 fb 00 00 00    	jne    40faf0 <fts_children+0x130>
  40f9f5:	0f b7 4d 70          	movzwl 0x70(%rbp),%ecx
  40f9f9:	66 83 f9 09          	cmp    $0x9,%cx
  40f9fd:	0f 84 bd 00 00 00    	je     40fac0 <fts_children+0x100>
  40fa03:	31 c0                	xor    %eax,%eax
  40fa05:	66 83 f9 01          	cmp    $0x1,%cx
  40fa09:	75 45                	jne    40fa50 <fts_children+0x90>
  40fa0b:	48 8b 7b 08          	mov    0x8(%rbx),%rdi
  40fa0f:	48 85 ff             	test   %rdi,%rdi
  40fa12:	74 05                	je     40fa19 <fts_children+0x59>
  40fa14:	e8 37 e0 ff ff       	callq  40da50 <__sprintf_chk@plt+0xb550>
  40fa19:	41 81 fc 00 20 00 00 	cmp    $0x2000,%r12d
  40fa20:	41 be 01 00 00 00    	mov    $0x1,%r14d
  40fa26:	74 38                	je     40fa60 <fts_children+0xa0>
  40fa28:	48 83 7d 58 00       	cmpq   $0x0,0x58(%rbp)
  40fa2d:	75 12                	jne    40fa41 <fts_children+0x81>
  40fa2f:	48 8b 45 30          	mov    0x30(%rbp),%rax
  40fa33:	80 38 2f             	cmpb   $0x2f,(%rax)
  40fa36:	74 09                	je     40fa41 <fts_children+0x81>
  40fa38:	8b 73 48             	mov    0x48(%rbx),%esi
  40fa3b:	40 f6 c6 04          	test   $0x4,%sil
  40fa3f:	74 37                	je     40fa78 <fts_children+0xb8>
  40fa41:	44 89 f6             	mov    %r14d,%esi
  40fa44:	48 89 df             	mov    %rbx,%rdi
  40fa47:	e8 54 e8 ff ff       	callq  40e2a0 <__sprintf_chk@plt+0xbda0>
  40fa4c:	48 89 43 08          	mov    %rax,0x8(%rbx)
  40fa50:	5b                   	pop    %rbx
  40fa51:	5d                   	pop    %rbp
  40fa52:	41 5c                	pop    %r12
  40fa54:	41 5d                	pop    %r13
  40fa56:	41 5e                	pop    %r14
  40fa58:	c3                   	retq   
  40fa59:	0f 1f 80 00 00 00 00 	nopl   0x0(%rax)
  40fa60:	81 4b 48 00 20 00 00 	orl    $0x2000,0x48(%rbx)
  40fa67:	48 83 7d 58 00       	cmpq   $0x0,0x58(%rbp)
  40fa6c:	41 b6 02             	mov    $0x2,%r14b
  40fa6f:	74 be                	je     40fa2f <fts_children+0x6f>
  40fa71:	eb ce                	jmp    40fa41 <fts_children+0x81>
  40fa73:	0f 1f 44 00 00       	nopl   0x0(%rax,%rax,1)
  40fa78:	8b 7b 2c             	mov    0x2c(%rbx),%edi
  40fa7b:	ba 84 66 41 00       	mov    $0x416684,%edx
  40fa80:	e8 0b e4 ff ff       	callq  40de90 <__sprintf_chk@plt+0xb990>
  40fa85:	85 c0                	test   %eax,%eax
  40fa87:	89 c5                	mov    %eax,%ebp
  40fa89:	0f 88 89 00 00 00    	js     40fb18 <fts_children+0x158>
  40fa8f:	44 89 f6             	mov    %r14d,%esi
  40fa92:	48 89 df             	mov    %rbx,%rdi
  40fa95:	e8 06 e8 ff ff       	callq  40e2a0 <__sprintf_chk@plt+0xbda0>
  40fa9a:	f6 43 49 02          	testb  $0x2,0x49(%rbx)
  40fa9e:	48 89 43 08          	mov    %rax,0x8(%rbx)
  40faa2:	74 5c                	je     40fb00 <fts_children+0x140>
  40faa4:	ba 01 00 00 00       	mov    $0x1,%edx
  40faa9:	89 ee                	mov    %ebp,%esi
  40faab:	48 89 df             	mov    %rbx,%rdi
  40faae:	e8 1d e0 ff ff       	callq  40dad0 <__sprintf_chk@plt+0xb5d0>
  40fab3:	48 8b 43 08          	mov    0x8(%rbx),%rax
  40fab7:	5b                   	pop    %rbx
  40fab8:	5d                   	pop    %rbp
  40fab9:	41 5c                	pop    %r12
  40fabb:	41 5d                	pop    %r13
  40fabd:	41 5e                	pop    %r14
  40fabf:	c3                   	retq   
  40fac0:	5b                   	pop    %rbx
  40fac1:	48 8b 45 10          	mov    0x10(%rbp),%rax
  40fac5:	5d                   	pop    %rbp
  40fac6:	41 5c                	pop    %r12
  40fac8:	41 5d                	pop    %r13
  40faca:	41 5e                	pop    %r14
  40facc:	c3                   	retq   
  40facd:	0f 1f 00             	nopl   (%rax)
  40fad0:	e8 3b 24 ff ff       	callq  401f10 <__errno_location@plt>
  40fad5:	c7 00 16 00 00 00    	movl   $0x16,(%rax)
  40fadb:	31 c0                	xor    %eax,%eax
  40fadd:	5b                   	pop    %rbx
  40fade:	5d                   	pop    %rbp
  40fadf:	41 5c                	pop    %r12
  40fae1:	41 5d                	pop    %r13
  40fae3:	41 5e                	pop    %r14
  40fae5:	c3                   	retq   
  40fae6:	66 2e 0f 1f 84 00 00 	nopw   %cs:0x0(%rax,%rax,1)
  40faed:	00 00 00 
  40faf0:	31 c0                	xor    %eax,%eax
  40faf2:	e9 59 ff ff ff       	jmpq   40fa50 <fts_children+0x90>
  40faf7:	66 0f 1f 84 00 00 00 	nopw   0x0(%rax,%rax,1)
  40fafe:	00 00 
  40fb00:	89 ef                	mov    %ebp,%edi
  40fb02:	e8 29 28 ff ff       	callq  402330 <fchdir@plt>
  40fb07:	85 c0                	test   %eax,%eax
  40fb09:	75 1c                	jne    40fb27 <fts_children+0x167>
  40fb0b:	89 ef                	mov    %ebp,%edi
  40fb0d:	e8 2e 26 ff ff       	callq  402140 <close@plt>
  40fb12:	eb 9f                	jmp    40fab3 <fts_children+0xf3>
  40fb14:	0f 1f 40 00          	nopl   0x0(%rax)
  40fb18:	48 c7 43 08 00 00 00 	movq   $0x0,0x8(%rbx)
  40fb1f:	00 
  40fb20:	31 c0                	xor    %eax,%eax
  40fb22:	e9 29 ff ff ff       	jmpq   40fa50 <fts_children+0x90>
  40fb27:	41 8b 5d 00          	mov    0x0(%r13),%ebx
  40fb2b:	89 ef                	mov    %ebp,%edi
  40fb2d:	e8 0e 26 ff ff       	callq  402140 <close@plt>
  40fb32:	31 c0                	xor    %eax,%eax
  40fb34:	41 89 5d 00          	mov    %ebx,0x0(%r13)
  40fb38:	e9 13 ff ff ff       	jmpq   40fa50 <fts_children+0x90>
  40fb3d:	0f 1f 00             	nopl   (%rax)
  40fb40:	53                   	push   %rbx
  40fb41:	48 89 fb             	mov    %rdi,%rbx
  40fb44:	e8 c7 24 ff ff       	callq  402010 <strlen@plt>
  40fb49:	31 d2                	xor    %edx,%edx
  40fb4b:	48 83 c0 01          	add    $0x1,%rax
  40fb4f:	b9 01 00 00 00       	mov    $0x1,%ecx
  40fb54:	75 1b                	jne    40fb71 <fts_children+0x1b1>
  40fb56:	eb 78                	jmp    40fbd0 <fts_children+0x210>
  40fb58:	0f 1f 84 00 00 00 00 	nopl   0x0(%rax,%rax,1)
  40fb5f:	00 
  40fb60:	40 88 74 0b ff       	mov    %sil,-0x1(%rbx,%rcx,1)
  40fb65:	48 89 fa             	mov    %rdi,%rdx
  40fb68:	48 83 c1 01          	add    $0x1,%rcx
  40fb6c:	48 39 d0             	cmp    %rdx,%rax
  40fb6f:	76 5f                	jbe    40fbd0 <fts_children+0x210>
  40fb71:	0f b6 34 13          	movzbl (%rbx,%rdx,1),%esi
  40fb75:	48 8d 7a 01          	lea    0x1(%rdx),%rdi
  40fb79:	40 80 fe 5c          	cmp    $0x5c,%sil
  40fb7d:	75 e1                	jne    40fb60 <fts_children+0x1a0>
  40fb7f:	4c 8d 42 04          	lea    0x4(%rdx),%r8
  40fb83:	4c 39 c0             	cmp    %r8,%rax
  40fb86:	76 d8                	jbe    40fb60 <fts_children+0x1a0>
  40fb88:	44 0f b6 0c 3b       	movzbl (%rbx,%rdi,1),%r9d
  40fb8d:	45 8d 51 d0          	lea    -0x30(%r9),%r10d
  40fb91:	41 80 fa 03          	cmp    $0x3,%r10b
  40fb95:	77 c9                	ja     40fb60 <fts_children+0x1a0>
  40fb97:	44 0f b6 54 13 02    	movzbl 0x2(%rbx,%rdx,1),%r10d
  40fb9d:	45 8d 5a d0          	lea    -0x30(%r10),%r11d
  40fba1:	41 80 fb 07          	cmp    $0x7,%r11b
  40fba5:	77 b9                	ja     40fb60 <fts_children+0x1a0>
  40fba7:	0f b6 54 13 03       	movzbl 0x3(%rbx,%rdx,1),%edx
  40fbac:	83 ea 30             	sub    $0x30,%edx
  40fbaf:	80 fa 07             	cmp    $0x7,%dl
  40fbb2:	77 ac                	ja     40fb60 <fts_children+0x1a0>
  40fbb4:	47 8d 0c ca          	lea    (%r10,%r9,8),%r9d
  40fbb8:	42 8d 54 ca 80       	lea    -0x80(%rdx,%r9,8),%edx
  40fbbd:	88 54 0b ff          	mov    %dl,-0x1(%rbx,%rcx,1)
  40fbc1:	4c 89 c2             	mov    %r8,%rdx
  40fbc4:	eb a2                	jmp    40fb68 <fts_children+0x1a8>
  40fbc6:	66 2e 0f 1f 84 00 00 	nopw   %cs:0x0(%rax,%rax,1)
  40fbcd:	00 00 00 
  40fbd0:	5b                   	pop    %rbx
  40fbd1:	c3                   	retq   
  40fbd2:	66 66 66 66 66 2e 0f 	data32 data32 data32 data32 nopw %cs:0x0(%rax,%rax,1)
  40fbd9:	1f 84 00 00 00 00 00 
  40fbe0:	53                   	push   %rbx
  40fbe1:	48 89 fb             	mov    %rdi,%rbx
  40fbe4:	48 8b 3f             	mov    (%rdi),%rdi
  40fbe7:	e8 e4 22 ff ff       	callq  401ed0 <free@plt>
  40fbec:	48 8b 7b 08          	mov    0x8(%rbx),%rdi
  40fbf0:	e8 db 22 ff ff       	callq  401ed0 <free@plt>
  40fbf5:	48 8b 7b 10          	mov    0x10(%rbx),%rdi
  40fbf9:	e8 d2 22 ff ff       	callq  401ed0 <free@plt>
  40fbfe:	f6 43 28 04          	testb  $0x4,0x28(%rbx)
  40fc02:	74 09                	je     40fc0d <fts_children+0x24d>
  40fc04:	48 8b 7b 18          	mov    0x18(%rbx),%rdi
  40fc08:	e8 c3 22 ff ff       	callq  401ed0 <free@plt>
  40fc0d:	48 89 df             	mov    %rbx,%rdi
  40fc10:	5b                   	pop    %rbx
  40fc11:	e9 ba 22 ff ff       	jmpq   401ed0 <free@plt>
  40fc16:	66 2e 0f 1f 84 00 00 	nopw   %cs:0x0(%rax,%rax,1)
  40fc1d:	00 00 00 
  40fc20:	41 57                	push   %r15
  40fc22:	be 7e 32 41 00       	mov    $0x41327e,%esi
  40fc27:	bf d0 66 41 00       	mov    $0x4166d0,%edi
  40fc2c:	41 56                	push   %r14
  40fc2e:	41 55                	push   %r13
  40fc30:	41 54                	push   %r12
  40fc32:	55                   	push   %rbp
  40fc33:	53                   	push   %rbx
  40fc34:	48 83 ec 78          	sub    $0x78,%rsp
  40fc38:	e8 b3 27 ff ff       	callq  4023f0 <fopen@plt>
  40fc3d:	48 85 c0             	test   %rax,%rax
  40fc40:	48 89 c5             	mov    %rax,%rbp
  40fc43:	0f 84 22 04 00 00    	je     41006b <fts_children+0x6ab>
  40fc49:	4c 8d 64 24 58       	lea    0x58(%rsp),%r12
  40fc4e:	48 c7 44 24 60 00 00 	movq   $0x0,0x60(%rsp)
  40fc55:	00 00 
  40fc57:	48 c7 44 24 68 00 00 	movq   $0x0,0x68(%rsp)
  40fc5e:	00 00 
  40fc60:	48 8d 74 24 68       	lea    0x68(%rsp),%rsi
  40fc65:	48 8d 7c 24 60       	lea    0x60(%rsp),%rdi
  40fc6a:	48 89 e9             	mov    %rbp,%rcx
  40fc6d:	ba 0a 00 00 00       	mov    $0xa,%edx
  40fc72:	e8 59 25 ff ff       	callq  4021d0 <__getdelim@plt>
  40fc77:	48 83 f8 ff          	cmp    $0xffffffffffffffff,%rax
  40fc7b:	0f 84 f7 01 00 00    	je     40fe78 <fts_children+0x4b8>
  40fc81:	48 8d 44 24 3c       	lea    0x3c(%rsp),%rax
  40fc86:	48 8d 5c 24 2f       	lea    0x2f(%rsp),%rbx
  40fc8b:	48 8b 7c 24 60       	mov    0x60(%rsp),%rdi
  40fc90:	4c 8d 4c 24 54       	lea    0x54(%rsp),%r9
  40fc95:	4c 8d 44 24 50       	lea    0x50(%rsp),%r8
  40fc9a:	48 8d 4c 24 34       	lea    0x34(%rsp),%rcx
  40fc9f:	48 89 44 24 08       	mov    %rax,0x8(%rsp)
  40fca4:	48 8d 44 24 38       	lea    0x38(%rsp),%rax
  40fca9:	48 8d 54 24 30       	lea    0x30(%rsp),%rdx
  40fcae:	48 89 5c 24 10       	mov    %rbx,0x10(%rsp)
  40fcb3:	be 70 67 41 00       	mov    $0x416770,%esi
  40fcb8:	48 89 04 24          	mov    %rax,(%rsp)
  40fcbc:	31 c0                	xor    %eax,%eax
  40fcbe:	e8 3d 26 ff ff       	callq  402300 <sscanf@plt>
  40fcc3:	83 e0 fb             	and    $0xfffffffb,%eax
  40fcc6:	83 f8 03             	cmp    $0x3,%eax
  40fcc9:	75 95                	jne    40fc60 <fts_children+0x2a0>
  40fccb:	48 63 7c 24 3c       	movslq 0x3c(%rsp),%rdi
  40fcd0:	be e5 66 41 00       	mov    $0x4166e5,%esi
  40fcd5:	48 03 7c 24 60       	add    0x60(%rsp),%rdi
  40fcda:	e8 e1 27 ff ff       	callq  4024c0 <strstr@plt>
  40fcdf:	48 85 c0             	test   %rax,%rax
  40fce2:	49 89 c5             	mov    %rax,%r13
  40fce5:	0f 84 75 ff ff ff    	je     40fc60 <fts_children+0x2a0>
  40fceb:	4c 8d 4c 24 4c       	lea    0x4c(%rsp),%r9
  40fcf0:	4c 8d 44 24 48       	lea    0x48(%rsp),%r8
  40fcf5:	48 8d 4c 24 44       	lea    0x44(%rsp),%rcx
  40fcfa:	48 8d 54 24 40       	lea    0x40(%rsp),%rdx
  40fcff:	48 89 c7             	mov    %rax,%rdi
  40fd02:	48 89 1c 24          	mov    %rbx,(%rsp)
  40fd06:	31 c0                	xor    %eax,%eax
  40fd08:	be e9 66 41 00       	mov    $0x4166e9,%esi
  40fd0d:	e8 ee 25 ff ff       	callq  402300 <sscanf@plt>
  40fd12:	83 e0 fb             	and    $0xfffffffb,%eax
  40fd15:	83 f8 01             	cmp    $0x1,%eax
  40fd18:	0f 85 42 ff ff ff    	jne    40fc60 <fts_children+0x2a0>
  40fd1e:	48 63 44 24 54       	movslq 0x54(%rsp),%rax
  40fd23:	48 8b 54 24 60       	mov    0x60(%rsp),%rdx
  40fd28:	c6 04 02 00          	movb   $0x0,(%rdx,%rax,1)
  40fd2c:	48 63 44 24 3c       	movslq 0x3c(%rsp),%rax
  40fd31:	48 8b 54 24 60       	mov    0x60(%rsp),%rdx
  40fd36:	c6 04 02 00          	movb   $0x0,(%rdx,%rax,1)
  40fd3a:	48 63 44 24 44       	movslq 0x44(%rsp),%rax
  40fd3f:	41 c6 44 05 00 00    	movb   $0x0,0x0(%r13,%rax,1)
  40fd45:	48 63 44 24 4c       	movslq 0x4c(%rsp),%rax
  40fd4a:	41 c6 44 05 00 00    	movb   $0x0,0x0(%r13,%rax,1)
  40fd50:	48 63 7c 24 48       	movslq 0x48(%rsp),%rdi
  40fd55:	4c 01 ef             	add    %r13,%rdi
  40fd58:	e8 e3 fd ff ff       	callq  40fb40 <fts_children+0x180>
  40fd5d:	48 63 7c 24 38       	movslq 0x38(%rsp),%rdi
  40fd62:	48 03 7c 24 60       	add    0x60(%rsp),%rdi
  40fd67:	e8 d4 fd ff ff       	callq  40fb40 <fts_children+0x180>
  40fd6c:	48 63 7c 24 50       	movslq 0x50(%rsp),%rdi
  40fd71:	48 03 7c 24 60       	add    0x60(%rsp),%rdi
  40fd76:	e8 c5 fd ff ff       	callq  40fb40 <fts_children+0x180>
  40fd7b:	bf 38 00 00 00       	mov    $0x38,%edi
  40fd80:	e8 fb c5 ff ff       	callq  40c380 <__sprintf_chk@plt+0x9e80>
  40fd85:	48 63 7c 24 48       	movslq 0x48(%rsp),%rdi
  40fd8a:	48 89 c3             	mov    %rax,%rbx
  40fd8d:	4c 01 ef             	add    %r13,%rdi
  40fd90:	e8 db c7 ff ff       	callq  40c570 <__sprintf_chk@plt+0xa070>
  40fd95:	48 63 7c 24 38       	movslq 0x38(%rsp),%rdi
  40fd9a:	48 89 03             	mov    %rax,(%rbx)
  40fd9d:	48 03 7c 24 60       	add    0x60(%rsp),%rdi
  40fda2:	e8 c9 c7 ff ff       	callq  40c570 <__sprintf_chk@plt+0xa070>
  40fda7:	48 63 7c 24 50       	movslq 0x50(%rsp),%rdi
  40fdac:	48 89 43 08          	mov    %rax,0x8(%rbx)
  40fdb0:	48 03 7c 24 60       	add    0x60(%rsp),%rdi
  40fdb5:	e8 b6 c7 ff ff       	callq  40c570 <__sprintf_chk@plt+0xa070>
  40fdba:	48 63 7c 24 40       	movslq 0x40(%rsp),%rdi
  40fdbf:	48 89 43 10          	mov    %rax,0x10(%rbx)
  40fdc3:	4c 01 ef             	add    %r13,%rdi
  40fdc6:	e8 a5 c7 ff ff       	callq  40c570 <__sprintf_chk@plt+0xa070>
  40fdcb:	8b 74 24 34          	mov    0x34(%rsp),%esi
  40fdcf:	8b 4c 24 30          	mov    0x30(%rsp),%ecx
  40fdd3:	49 89 c5             	mov    %rax,%r13
  40fdd6:	48 89 43 18          	mov    %rax,0x18(%rbx)
  40fdda:	bf ff 66 41 00       	mov    $0x4166ff,%edi
  40fddf:	80 4b 28 04          	orb    $0x4,0x28(%rbx)
  40fde3:	89 ca                	mov    %ecx,%edx
  40fde5:	89 f0                	mov    %esi,%eax
  40fde7:	81 e1 ff 0f 00 00    	and    $0xfff,%ecx
  40fded:	81 e2 00 f0 ff ff    	and    $0xfffff000,%edx
  40fdf3:	25 00 ff ff ff       	and    $0xffffff00,%eax
  40fdf8:	c1 e1 08             	shl    $0x8,%ecx
  40fdfb:	48 c1 e0 0c          	shl    $0xc,%rax
  40fdff:	48 c1 e2 20          	shl    $0x20,%rdx
  40fe03:	40 0f b6 f6          	movzbl %sil,%esi
  40fe07:	09 f1                	or     %esi,%ecx
  40fe09:	48 09 c2             	or     %rax,%rdx
  40fe0c:	4c 89 ee             	mov    %r13,%rsi
  40fe0f:	48 09 ca             	or     %rcx,%rdx
  40fe12:	b9 07 00 00 00       	mov    $0x7,%ecx
  40fe17:	b8 01 00 00 00       	mov    $0x1,%eax
  40fe1c:	f3 a6                	repz cmpsb %es:(%rdi),%ds:(%rsi)
  40fe1e:	48 89 53 20          	mov    %rdx,0x20(%rbx)
  40fe22:	0f 97 c1             	seta   %cl
  40fe25:	0f 92 c2             	setb   %dl
  40fe28:	38 d1                	cmp    %dl,%cl
  40fe2a:	0f 85 90 00 00 00    	jne    40fec0 <fts_children+0x500>
  40fe30:	0f b6 53 28          	movzbl 0x28(%rbx),%edx
  40fe34:	4c 8b 33             	mov    (%rbx),%r14
  40fe37:	be 3a 00 00 00       	mov    $0x3a,%esi
  40fe3c:	4c 89 f7             	mov    %r14,%rdi
  40fe3f:	83 e2 fe             	and    $0xfffffffe,%edx
  40fe42:	09 c2                	or     %eax,%edx
  40fe44:	88 53 28             	mov    %dl,0x28(%rbx)
  40fe47:	e8 34 22 ff ff       	callq  402080 <strchr@plt>
  40fe4c:	48 85 c0             	test   %rax,%rax
  40fe4f:	ba 01 00 00 00       	mov    $0x1,%edx
  40fe54:	0f 84 66 01 00 00    	je     40ffc0 <fts_children+0x600>
  40fe5a:	0f b6 43 28          	movzbl 0x28(%rbx),%eax
  40fe5e:	01 d2                	add    %edx,%edx
  40fe60:	83 e0 fd             	and    $0xfffffffd,%eax
  40fe63:	09 d0                	or     %edx,%eax
  40fe65:	88 43 28             	mov    %al,0x28(%rbx)
  40fe68:	49 89 1c 24          	mov    %rbx,(%r12)
  40fe6c:	4c 8d 63 30          	lea    0x30(%rbx),%r12
  40fe70:	e9 eb fd ff ff       	jmpq   40fc60 <fts_children+0x2a0>
  40fe75:	0f 1f 00             	nopl   (%rax)
  40fe78:	48 8b 7c 24 60       	mov    0x60(%rsp),%rdi
  40fe7d:	e8 4e 20 ff ff       	callq  401ed0 <free@plt>
  40fe82:	f6 45 00 20          	testb  $0x20,0x0(%rbp)
  40fe86:	0f 85 84 01 00 00    	jne    410010 <fts_children+0x650>
  40fe8c:	48 89 ef             	mov    %rbp,%rdi
  40fe8f:	e8 5c d8 ff ff       	callq  40d6f0 <__sprintf_chk@plt+0xb1f0>
  40fe94:	83 f8 ff             	cmp    $0xffffffff,%eax
  40fe97:	0f 84 eb 03 00 00    	je     410288 <fts_children+0x8c8>
  40fe9d:	49 c7 04 24 00 00 00 	movq   $0x0,(%r12)
  40fea4:	00 
  40fea5:	48 8b 44 24 58       	mov    0x58(%rsp),%rax
  40feaa:	48 83 c4 78          	add    $0x78,%rsp
  40feae:	5b                   	pop    %rbx
  40feaf:	5d                   	pop    %rbp
  40feb0:	41 5c                	pop    %r12
  40feb2:	41 5d                	pop    %r13
  40feb4:	41 5e                	pop    %r14
  40feb6:	41 5f                	pop    %r15
  40feb8:	c3                   	retq   
  40feb9:	0f 1f 80 00 00 00 00 	nopl   0x0(%rax)
  40fec0:	bf 06 67 41 00       	mov    $0x416706,%edi
  40fec5:	b9 05 00 00 00       	mov    $0x5,%ecx
  40feca:	4c 89 ee             	mov    %r13,%rsi
  40fecd:	f3 a6                	repz cmpsb %es:(%rdi),%ds:(%rsi)
  40fecf:	0f 84 5b ff ff ff    	je     40fe30 <fts_children+0x470>
  40fed5:	bf 0b 67 41 00       	mov    $0x41670b,%edi
  40feda:	b9 06 00 00 00       	mov    $0x6,%ecx
  40fedf:	4c 89 ee             	mov    %r13,%rsi
  40fee2:	f3 a6                	repz cmpsb %es:(%rdi),%ds:(%rsi)
  40fee4:	0f 84 46 ff ff ff    	je     40fe30 <fts_children+0x470>
  40feea:	bf 11 67 41 00       	mov    $0x416711,%edi
  40feef:	b9 08 00 00 00       	mov    $0x8,%ecx
  40fef4:	4c 89 ee             	mov    %r13,%rsi
  40fef7:	f3 a6                	repz cmpsb %es:(%rdi),%ds:(%rsi)
  40fef9:	0f 84 31 ff ff ff    	je     40fe30 <fts_children+0x470>
  40feff:	bf 19 67 41 00       	mov    $0x416719,%edi
  40ff04:	b9 07 00 00 00       	mov    $0x7,%ecx
  40ff09:	4c 89 ee             	mov    %r13,%rsi
  40ff0c:	f3 a6                	repz cmpsb %es:(%rdi),%ds:(%rsi)
  40ff0e:	0f 84 1c ff ff ff    	je     40fe30 <fts_children+0x470>
  40ff14:	bf 20 67 41 00       	mov    $0x416720,%edi
  40ff19:	b9 08 00 00 00       	mov    $0x8,%ecx
  40ff1e:	4c 89 ee             	mov    %r13,%rsi
  40ff21:	f3 a6                	repz cmpsb %es:(%rdi),%ds:(%rsi)
  40ff23:	0f 84 07 ff ff ff    	je     40fe30 <fts_children+0x470>
  40ff29:	bf 28 67 41 00       	mov    $0x416728,%edi
  40ff2e:	b9 07 00 00 00       	mov    $0x7,%ecx
  40ff33:	4c 89 ee             	mov    %r13,%rsi
  40ff36:	f3 a6                	repz cmpsb %es:(%rdi),%ds:(%rsi)
  40ff38:	0f 84 f2 fe ff ff    	je     40fe30 <fts_children+0x470>
  40ff3e:	bf 2f 67 41 00       	mov    $0x41672f,%edi
  40ff43:	b9 0b 00 00 00       	mov    $0xb,%ecx
  40ff48:	4c 89 ee             	mov    %r13,%rsi
  40ff4b:	f3 a6                	repz cmpsb %es:(%rdi),%ds:(%rsi)
  40ff4d:	0f 84 dd fe ff ff    	je     40fe30 <fts_children+0x470>
  40ff53:	bf 3a 67 41 00       	mov    $0x41673a,%edi
  40ff58:	b9 06 00 00 00       	mov    $0x6,%ecx
  40ff5d:	4c 89 ee             	mov    %r13,%rsi
  40ff60:	f3 a6                	repz cmpsb %es:(%rdi),%ds:(%rsi)
  40ff62:	0f 84 c8 fe ff ff    	je     40fe30 <fts_children+0x470>
  40ff68:	bf 40 67 41 00       	mov    $0x416740,%edi
  40ff6d:	b9 06 00 00 00       	mov    $0x6,%ecx
  40ff72:	4c 89 ee             	mov    %r13,%rsi
  40ff75:	f3 a6                	repz cmpsb %es:(%rdi),%ds:(%rsi)
  40ff77:	0f 84 b3 fe ff ff    	je     40fe30 <fts_children+0x470>
  40ff7d:	bf 46 67 41 00       	mov    $0x416746,%edi
  40ff82:	b9 07 00 00 00       	mov    $0x7,%ecx
  40ff87:	4c 89 ee             	mov    %r13,%rsi
  40ff8a:	f3 a6                	repz cmpsb %es:(%rdi),%ds:(%rsi)
  40ff8c:	0f 84 9e fe ff ff    	je     40fe30 <fts_children+0x470>
  40ff92:	bf 4d 67 41 00       	mov    $0x41674d,%edi
  40ff97:	b9 07 00 00 00       	mov    $0x7,%ecx
  40ff9c:	4c 89 ee             	mov    %r13,%rsi
  40ff9f:	f3 a6                	repz cmpsb %es:(%rdi),%ds:(%rsi)
  40ffa1:	0f 84 89 fe ff ff    	je     40fe30 <fts_children+0x470>
  40ffa7:	bf 54 67 41 00       	mov    $0x416754,%edi
  40ffac:	b9 05 00 00 00       	mov    $0x5,%ecx
  40ffb1:	4c 89 ee             	mov    %r13,%rsi
  40ffb4:	f3 a6                	repz cmpsb %es:(%rdi),%ds:(%rsi)
  40ffb6:	0f 94 c0             	sete   %al
  40ffb9:	e9 72 fe ff ff       	jmpq   40fe30 <fts_children+0x470>
  40ffbe:	66 90                	xchg   %ax,%ax
  40ffc0:	31 d2                	xor    %edx,%edx
  40ffc2:	41 80 3e 2f          	cmpb   $0x2f,(%r14)
  40ffc6:	0f 85 8e fe ff ff    	jne    40fe5a <fts_children+0x49a>
  40ffcc:	41 80 7e 01 2f       	cmpb   $0x2f,0x1(%r14)
  40ffd1:	0f 85 83 fe ff ff    	jne    40fe5a <fts_children+0x49a>
  40ffd7:	b9 06 00 00 00       	mov    $0x6,%ecx
  40ffdc:	bf 59 67 41 00       	mov    $0x416759,%edi
  40ffe1:	4c 89 ee             	mov    %r13,%rsi
  40ffe4:	f3 a6                	repz cmpsb %es:(%rdi),%ds:(%rsi)
  40ffe6:	ba 01 00 00 00       	mov    $0x1,%edx
  40ffeb:	0f 97 c1             	seta   %cl
  40ffee:	0f 92 c0             	setb   %al
  40fff1:	38 c1                	cmp    %al,%cl
  40fff3:	0f 84 61 fe ff ff    	je     40fe5a <fts_children+0x49a>
  40fff9:	bf 5f 67 41 00       	mov    $0x41675f,%edi
  40fffe:	b9 05 00 00 00       	mov    $0x5,%ecx
  410003:	4c 89 ee             	mov    %r13,%rsi
  410006:	f3 a6                	repz cmpsb %es:(%rdi),%ds:(%rsi)
  410008:	0f 94 c2             	sete   %dl
  41000b:	e9 4a fe ff ff       	jmpq   40fe5a <fts_children+0x49a>
  410010:	e8 fb 1e ff ff       	callq  401f10 <__errno_location@plt>
  410015:	8b 18                	mov    (%rax),%ebx
  410017:	49 89 c5             	mov    %rax,%r13
  41001a:	48 89 ef             	mov    %rbp,%rdi
  41001d:	e8 ce d6 ff ff       	callq  40d6f0 <__sprintf_chk@plt+0xb1f0>
  410022:	89 dd                	mov    %ebx,%ebp
  410024:	41 89 5d 00          	mov    %ebx,0x0(%r13)
  410028:	49 c7 04 24 00 00 00 	movq   $0x0,(%r12)
  41002f:	00 
  410030:	48 8b 7c 24 58       	mov    0x58(%rsp),%rdi
  410035:	48 85 ff             	test   %rdi,%rdi
  410038:	75 09                	jne    410043 <fts_children+0x683>
  41003a:	eb 1a                	jmp    410056 <fts_children+0x696>
  41003c:	0f 1f 40 00          	nopl   0x0(%rax)
  410040:	48 89 df             	mov    %rbx,%rdi
  410043:	48 8b 5f 30          	mov    0x30(%rdi),%rbx
  410047:	e8 94 fb ff ff       	callq  40fbe0 <fts_children+0x220>
  41004c:	48 85 db             	test   %rbx,%rbx
  41004f:	48 89 5c 24 58       	mov    %rbx,0x58(%rsp)
  410054:	75 ea                	jne    410040 <fts_children+0x680>
  410056:	41 89 6d 00          	mov    %ebp,0x0(%r13)
  41005a:	48 83 c4 78          	add    $0x78,%rsp
  41005e:	31 c0                	xor    %eax,%eax
  410060:	5b                   	pop    %rbx
  410061:	5d                   	pop    %rbp
  410062:	41 5c                	pop    %r12
  410064:	41 5d                	pop    %r13
  410066:	41 5e                	pop    %r14
  410068:	41 5f                	pop    %r15
  41006a:	c3                   	retq   
  41006b:	be 7e 32 41 00       	mov    $0x41327e,%esi
  410070:	bf 64 67 41 00       	mov    $0x416764,%edi
  410075:	e8 46 22 ff ff       	callq  4022c0 <setmntent@plt>
  41007a:	48 85 c0             	test   %rax,%rax
  41007d:	48 89 c5             	mov    %rax,%rbp
  410080:	0f 84 11 02 00 00    	je     410297 <fts_children+0x8d7>
  410086:	4c 8d 64 24 58       	lea    0x58(%rsp),%r12
  41008b:	41 bd 07 00 00 00    	mov    $0x7,%r13d
  410091:	0f 1f 80 00 00 00 00 	nopl   0x0(%rax)
  410098:	48 89 ef             	mov    %rbp,%rdi
  41009b:	e8 10 22 ff ff       	callq  4022b0 <getmntent@plt>
  4100a0:	48 85 c0             	test   %rax,%rax
  4100a3:	49 89 c6             	mov    %rax,%r14
  4100a6:	0f 84 cc 01 00 00    	je     410278 <fts_children+0x8b8>
  4100ac:	bf 38 00 00 00       	mov    $0x38,%edi
  4100b1:	e8 ca c2 ff ff       	callq  40c380 <__sprintf_chk@plt+0x9e80>
  4100b6:	49 8b 3e             	mov    (%r14),%rdi
  4100b9:	48 89 c3             	mov    %rax,%rbx
  4100bc:	e8 af c4 ff ff       	callq  40c570 <__sprintf_chk@plt+0xa070>
  4100c1:	49 8b 7e 08          	mov    0x8(%r14),%rdi
  4100c5:	48 89 03             	mov    %rax,(%rbx)
  4100c8:	e8 a3 c4 ff ff       	callq  40c570 <__sprintf_chk@plt+0xa070>
  4100cd:	49 8b 7e 10          	mov    0x10(%r14),%rdi
  4100d1:	48 89 43 08          	mov    %rax,0x8(%rbx)
  4100d5:	48 c7 43 10 00 00 00 	movq   $0x0,0x10(%rbx)
  4100dc:	00 
  4100dd:	e8 8e c4 ff ff       	callq  40c570 <__sprintf_chk@plt+0xa070>
  4100e2:	4c 89 e9             	mov    %r13,%rcx
  4100e5:	48 89 c6             	mov    %rax,%rsi
  4100e8:	bf ff 66 41 00       	mov    $0x4166ff,%edi
  4100ed:	80 4b 28 04          	orb    $0x4,0x28(%rbx)
  4100f1:	49 89 c6             	mov    %rax,%r14
  4100f4:	48 89 43 18          	mov    %rax,0x18(%rbx)
  4100f8:	f3 a6                	repz cmpsb %es:(%rdi),%ds:(%rsi)
  4100fa:	b8 01 00 00 00       	mov    $0x1,%eax
  4100ff:	0f 97 c1             	seta   %cl
  410102:	0f 92 c2             	setb   %dl
  410105:	38 d1                	cmp    %dl,%cl
  410107:	0f 84 db 00 00 00    	je     4101e8 <fts_children+0x828>
  41010d:	bf 06 67 41 00       	mov    $0x416706,%edi
  410112:	b9 05 00 00 00       	mov    $0x5,%ecx
  410117:	4c 89 f6             	mov    %r14,%rsi
  41011a:	f3 a6                	repz cmpsb %es:(%rdi),%ds:(%rsi)
  41011c:	0f 84 c6 00 00 00    	je     4101e8 <fts_children+0x828>
  410122:	bf 0b 67 41 00       	mov    $0x41670b,%edi
  410127:	b9 06 00 00 00       	mov    $0x6,%ecx
  41012c:	4c 89 f6             	mov    %r14,%rsi
  41012f:	f3 a6                	repz cmpsb %es:(%rdi),%ds:(%rsi)
  410131:	0f 84 b1 00 00 00    	je     4101e8 <fts_children+0x828>
  410137:	bf 11 67 41 00       	mov    $0x416711,%edi
  41013c:	b9 08 00 00 00       	mov    $0x8,%ecx
  410141:	4c 89 f6             	mov    %r14,%rsi
  410144:	f3 a6                	repz cmpsb %es:(%rdi),%ds:(%rsi)
  410146:	0f 84 9c 00 00 00    	je     4101e8 <fts_children+0x828>
  41014c:	bf 19 67 41 00       	mov    $0x416719,%edi
  410151:	4c 89 f6             	mov    %r14,%rsi
  410154:	4c 89 e9             	mov    %r13,%rcx
  410157:	f3 a6                	repz cmpsb %es:(%rdi),%ds:(%rsi)
  410159:	0f 84 89 00 00 00    	je     4101e8 <fts_children+0x828>
  41015f:	bf 20 67 41 00       	mov    $0x416720,%edi
  410164:	b9 08 00 00 00       	mov    $0x8,%ecx
  410169:	4c 89 f6             	mov    %r14,%rsi
  41016c:	f3 a6                	repz cmpsb %es:(%rdi),%ds:(%rsi)
  41016e:	74 78                	je     4101e8 <fts_children+0x828>
  410170:	bf 28 67 41 00       	mov    $0x416728,%edi
  410175:	4c 89 f6             	mov    %r14,%rsi
  410178:	4c 89 e9             	mov    %r13,%rcx
  41017b:	f3 a6                	repz cmpsb %es:(%rdi),%ds:(%rsi)
  41017d:	74 69                	je     4101e8 <fts_children+0x828>
  41017f:	bf 2f 67 41 00       	mov    $0x41672f,%edi
  410184:	b9 0b 00 00 00       	mov    $0xb,%ecx
  410189:	4c 89 f6             	mov    %r14,%rsi
  41018c:	f3 a6                	repz cmpsb %es:(%rdi),%ds:(%rsi)
  41018e:	74 58                	je     4101e8 <fts_children+0x828>
  410190:	bf 3a 67 41 00       	mov    $0x41673a,%edi
  410195:	b9 06 00 00 00       	mov    $0x6,%ecx
  41019a:	4c 89 f6             	mov    %r14,%rsi
  41019d:	f3 a6                	repz cmpsb %es:(%rdi),%ds:(%rsi)
  41019f:	74 47                	je     4101e8 <fts_children+0x828>
  4101a1:	bf 40 67 41 00       	mov    $0x416740,%edi
  4101a6:	b9 06 00 00 00       	mov    $0x6,%ecx
  4101ab:	4c 89 f6             	mov    %r14,%rsi
  4101ae:	f3 a6                	repz cmpsb %es:(%rdi),%ds:(%rsi)
  4101b0:	74 36                	je     4101e8 <fts_children+0x828>
  4101b2:	bf 46 67 41 00       	mov    $0x416746,%edi
  4101b7:	4c 89 f6             	mov    %r14,%rsi
  4101ba:	4c 89 e9             	mov    %r13,%rcx
  4101bd:	f3 a6                	repz cmpsb %es:(%rdi),%ds:(%rsi)
  4101bf:	74 27                	je     4101e8 <fts_children+0x828>
  4101c1:	bf 4d 67 41 00       	mov    $0x41674d,%edi
  4101c6:	4c 89 f6             	mov    %r14,%rsi
  4101c9:	4c 89 e9             	mov    %r13,%rcx
  4101cc:	f3 a6                	repz cmpsb %es:(%rdi),%ds:(%rsi)
  4101ce:	74 18                	je     4101e8 <fts_children+0x828>
  4101d0:	bf 54 67 41 00       	mov    $0x416754,%edi
  4101d5:	b9 05 00 00 00       	mov    $0x5,%ecx
  4101da:	4c 89 f6             	mov    %r14,%rsi
  4101dd:	f3 a6                	repz cmpsb %es:(%rdi),%ds:(%rsi)
  4101df:	0f 94 c0             	sete   %al
  4101e2:	66 0f 1f 44 00 00    	nopw   0x0(%rax,%rax,1)
  4101e8:	0f b6 53 28          	movzbl 0x28(%rbx),%edx
  4101ec:	4c 8b 3b             	mov    (%rbx),%r15
  4101ef:	be 3a 00 00 00       	mov    $0x3a,%esi
  4101f4:	4c 89 ff             	mov    %r15,%rdi
  4101f7:	83 e2 fe             	and    $0xfffffffe,%edx
  4101fa:	09 c2                	or     %eax,%edx
  4101fc:	88 53 28             	mov    %dl,0x28(%rbx)
  4101ff:	e8 7c 1e ff ff       	callq  402080 <strchr@plt>
  410204:	48 85 c0             	test   %rax,%rax
  410207:	ba 01 00 00 00       	mov    $0x1,%edx
  41020c:	74 24                	je     410232 <fts_children+0x872>
  41020e:	8d 04 12             	lea    (%rdx,%rdx,1),%eax
  410211:	0f b6 53 28          	movzbl 0x28(%rbx),%edx
  410215:	48 c7 43 20 ff ff ff 	movq   $0xffffffffffffffff,0x20(%rbx)
  41021c:	ff 
  41021d:	83 e2 fd             	and    $0xfffffffd,%edx
  410220:	09 c2                	or     %eax,%edx
  410222:	88 53 28             	mov    %dl,0x28(%rbx)
  410225:	49 89 1c 24          	mov    %rbx,(%r12)
  410229:	4c 8d 63 30          	lea    0x30(%rbx),%r12
  41022d:	e9 66 fe ff ff       	jmpq   410098 <fts_children+0x6d8>
  410232:	31 d2                	xor    %edx,%edx
  410234:	41 80 3f 2f          	cmpb   $0x2f,(%r15)
  410238:	75 d4                	jne    41020e <fts_children+0x84e>
  41023a:	41 80 7f 01 2f       	cmpb   $0x2f,0x1(%r15)
  41023f:	75 cd                	jne    41020e <fts_children+0x84e>
  410241:	b9 06 00 00 00       	mov    $0x6,%ecx
  410246:	bf 59 67 41 00       	mov    $0x416759,%edi
  41024b:	4c 89 f6             	mov    %r14,%rsi
  41024e:	f3 a6                	repz cmpsb %es:(%rdi),%ds:(%rsi)
  410250:	ba 01 00 00 00       	mov    $0x1,%edx
  410255:	0f 97 c1             	seta   %cl
  410258:	0f 92 c0             	setb   %al
  41025b:	38 c1                	cmp    %al,%cl
  41025d:	74 af                	je     41020e <fts_children+0x84e>
  41025f:	bf 5f 67 41 00       	mov    $0x41675f,%edi
  410264:	b9 05 00 00 00       	mov    $0x5,%ecx
  410269:	4c 89 f6             	mov    %r14,%rsi
  41026c:	f3 a6                	repz cmpsb %es:(%rdi),%ds:(%rsi)
  41026e:	0f 94 c2             	sete   %dl
  410271:	eb 9b                	jmp    41020e <fts_children+0x84e>
  410273:	0f 1f 44 00 00       	nopl   0x0(%rax,%rax,1)
  410278:	48 89 ef             	mov    %rbp,%rdi
  41027b:	e8 60 1c ff ff       	callq  401ee0 <endmntent@plt>
  410280:	85 c0                	test   %eax,%eax
  410282:	0f 85 15 fc ff ff    	jne    40fe9d <fts_children+0x4dd>
  410288:	e8 83 1c ff ff       	callq  401f10 <__errno_location@plt>
  41028d:	49 89 c5             	mov    %rax,%r13
  410290:	8b 28                	mov    (%rax),%ebp
  410292:	e9 91 fd ff ff       	jmpq   410028 <fts_children+0x668>
  410297:	31 c0                	xor    %eax,%eax
  410299:	e9 0c fc ff ff       	jmpq   40feaa <fts_children+0x4ea>
  41029e:	66 90                	xchg   %ax,%ax
  4102a0:	48 39 f7             	cmp    %rsi,%rdi
  4102a3:	75 17                	jne    4102bc <fts_children+0x8fc>
  4102a5:	eb 44                	jmp    4102eb <fts_children+0x92b>
  4102a7:	66 0f 1f 84 00 00 00 	nopw   0x0(%rax,%rax,1)
  4102ae:	00 00 
  4102b0:	48 83 c7 01          	add    $0x1,%rdi
  4102b4:	48 83 c6 01          	add    $0x1,%rsi
  4102b8:	38 d0                	cmp    %dl,%al
  4102ba:	75 26                	jne    4102e2 <fts_children+0x922>
  4102bc:	0f b6 07             	movzbl (%rdi),%eax
  4102bf:	8d 48 bf             	lea    -0x41(%rax),%ecx
  4102c2:	8d 50 20             	lea    0x20(%rax),%edx
  4102c5:	83 f9 19             	cmp    $0x19,%ecx
  4102c8:	0f 46 c2             	cmovbe %edx,%eax
  4102cb:	0f b6 16             	movzbl (%rsi),%edx
  4102ce:	44 8d 4a bf          	lea    -0x41(%rdx),%r9d
  4102d2:	44 8d 42 20          	lea    0x20(%rdx),%r8d
  4102d6:	41 83 f9 19          	cmp    $0x19,%r9d
  4102da:	41 0f 46 d0          	cmovbe %r8d,%edx
  4102de:	84 c0                	test   %al,%al
  4102e0:	75 ce                	jne    4102b0 <fts_children+0x8f0>
  4102e2:	0f b6 d2             	movzbl %dl,%edx
  4102e5:	0f b6 c0             	movzbl %al,%eax
  4102e8:	29 d0                	sub    %edx,%eax
  4102ea:	c3                   	retq   
  4102eb:	31 c0                	xor    %eax,%eax
  4102ed:	c3                   	retq   
  4102ee:	66 90                	xchg   %ax,%ax
  4102f0:	55                   	push   %rbp
  4102f1:	31 d2                	xor    %edx,%edx
  4102f3:	31 c0                	xor    %eax,%eax
  4102f5:	89 f5                	mov    %esi,%ebp
  4102f7:	be 01 00 00 00       	mov    $0x1,%esi
  4102fc:	53                   	push   %rbx
  4102fd:	89 fb                	mov    %edi,%ebx
  4102ff:	48 83 ec 08          	sub    $0x8,%rsp
  410303:	e8 98 28 00 00       	callq  412ba0 <fts_children+0x31e0>
  410308:	85 c0                	test   %eax,%eax
  41030a:	89 c1                	mov    %eax,%ecx
  41030c:	78 32                	js     410340 <fts_children+0x980>
  41030e:	89 c2                	mov    %eax,%edx
  410310:	83 e0 fe             	and    $0xfffffffe,%eax
  410313:	83 ca 01             	or     $0x1,%edx
  410316:	40 84 ed             	test   %bpl,%bpl
  410319:	0f 44 d0             	cmove  %eax,%edx
  41031c:	31 c0                	xor    %eax,%eax
  41031e:	39 ca                	cmp    %ecx,%edx
  410320:	74 17                	je     410339 <fts_children+0x979>
  410322:	be 02 00 00 00       	mov    $0x2,%esi
  410327:	89 df                	mov    %ebx,%edi
  410329:	e8 72 28 00 00       	callq  412ba0 <fts_children+0x31e0>
  41032e:	83 f8 ff             	cmp    $0xffffffff,%eax
  410331:	0f 94 c0             	sete   %al
  410334:	0f b6 c0             	movzbl %al,%eax
  410337:	f7 d8                	neg    %eax
  410339:	48 83 c4 08          	add    $0x8,%rsp
  41033d:	5b                   	pop    %rbx
  41033e:	5d                   	pop    %rbp
  41033f:	c3                   	retq   
  410340:	b8 ff ff ff ff       	mov    $0xffffffff,%eax
  410345:	eb f2                	jmp    410339 <fts_children+0x979>
  410347:	66 0f 1f 84 00 00 00 	nopw   0x0(%rax,%rax,1)
  41034e:	00 00 
  410350:	31 d2                	xor    %edx,%edx
  410352:	be 06 04 00 00       	mov    $0x406,%esi
  410357:	31 c0                	xor    %eax,%eax
  410359:	e9 42 28 00 00       	jmpq   412ba0 <fts_children+0x31e0>
  41035e:	66 90                	xchg   %ax,%ax
  410360:	41 54                	push   %r12
  410362:	55                   	push   %rbp
  410363:	48 89 fd             	mov    %rdi,%rbp
  410366:	53                   	push   %rbx
  410367:	e8 e4 1b ff ff       	callq  401f50 <__fpending@plt>
  41036c:	8b 5d 00             	mov    0x0(%rbp),%ebx
  41036f:	48 89 ef             	mov    %rbp,%rdi
  410372:	49 89 c4             	mov    %rax,%r12
  410375:	e8 76 d3 ff ff       	callq  40d6f0 <__sprintf_chk@plt+0xb1f0>
  41037a:	83 e3 20             	and    $0x20,%ebx
  41037d:	85 c0                	test   %eax,%eax
  41037f:	0f 95 c2             	setne  %dl
  410382:	85 db                	test   %ebx,%ebx
  410384:	75 1a                	jne    4103a0 <fts_children+0x9e0>
  410386:	84 d2                	test   %dl,%dl
  410388:	74 0a                	je     410394 <fts_children+0x9d4>
  41038a:	4d 85 e4             	test   %r12,%r12
  41038d:	bb ff ff ff ff       	mov    $0xffffffff,%ebx
  410392:	74 2c                	je     4103c0 <fts_children+0xa00>
  410394:	89 d8                	mov    %ebx,%eax
  410396:	5b                   	pop    %rbx
  410397:	5d                   	pop    %rbp
  410398:	41 5c                	pop    %r12
  41039a:	c3                   	retq   
  41039b:	0f 1f 44 00 00       	nopl   0x0(%rax,%rax,1)
  4103a0:	84 d2                	test   %dl,%dl
  4103a2:	bb ff ff ff ff       	mov    $0xffffffff,%ebx
  4103a7:	75 eb                	jne    410394 <fts_children+0x9d4>
  4103a9:	e8 62 1b ff ff       	callq  401f10 <__errno_location@plt>
  4103ae:	c7 00 00 00 00 00    	movl   $0x0,(%rax)
  4103b4:	89 d8                	mov    %ebx,%eax
  4103b6:	5b                   	pop    %rbx
  4103b7:	5d                   	pop    %rbp
  4103b8:	41 5c                	pop    %r12
  4103ba:	c3                   	retq   
  4103bb:	0f 1f 44 00 00       	nopl   0x0(%rax,%rax,1)
  4103c0:	e8 4b 1b ff ff       	callq  401f10 <__errno_location@plt>
  4103c5:	31 db                	xor    %ebx,%ebx
  4103c7:	83 38 09             	cmpl   $0x9,(%rax)
  4103ca:	0f 95 c3             	setne  %bl
  4103cd:	f7 db                	neg    %ebx
  4103cf:	89 d8                	mov    %ebx,%eax
  4103d1:	5b                   	pop    %rbx
  4103d2:	5d                   	pop    %rbp
  4103d3:	41 5c                	pop    %r12
  4103d5:	c3                   	retq   
  4103d6:	66 2e 0f 1f 84 00 00 	nopw   %cs:0x0(%rax,%rax,1)
  4103dd:	00 00 00 
  4103e0:	48 c7 47 10 00 00 00 	movq   $0x0,0x10(%rdi)
  4103e7:	00 
  4103e8:	c7 47 18 16 f6 95 00 	movl   $0x95f616,0x18(%rdi)
  4103ef:	c3                   	retq   
  4103f0:	81 7f 18 16 f6 95 00 	cmpl   $0x95f616,0x18(%rdi)
  4103f7:	75 62                	jne    41045b <fts_children+0xa9b>
  4103f9:	48 8b 57 10          	mov    0x10(%rdi),%rdx
  4103fd:	48 85 d2             	test   %rdx,%rdx
  410400:	74 26                	je     410428 <fts_children+0xa68>
  410402:	4c 8b 46 08          	mov    0x8(%rsi),%r8
  410406:	4c 3b 07             	cmp    (%rdi),%r8
  410409:	74 45                	je     410450 <fts_children+0xa90>
  41040b:	48 8d 4a 01          	lea    0x1(%rdx),%rcx
  41040f:	31 c0                	xor    %eax,%eax
  410411:	48 85 d1             	test   %rdx,%rcx
  410414:	48 89 4f 10          	mov    %rcx,0x10(%rdi)
  410418:	75 2e                	jne    410448 <fts_children+0xa88>
  41041a:	48 85 c9             	test   %rcx,%rcx
  41041d:	75 15                	jne    410434 <fts_children+0xa74>
  41041f:	b8 01 00 00 00       	mov    $0x1,%eax
  410424:	c3                   	retq   
  410425:	0f 1f 00             	nopl   (%rax)
  410428:	4c 8b 46 08          	mov    0x8(%rsi),%r8
  41042c:	48 c7 47 10 01 00 00 	movq   $0x1,0x10(%rdi)
  410433:	00 
  410434:	48 8b 06             	mov    (%rsi),%rax
  410437:	4c 89 07             	mov    %r8,(%rdi)
  41043a:	48 89 47 08          	mov    %rax,0x8(%rdi)
  41043e:	31 c0                	xor    %eax,%eax
  410440:	c3                   	retq   
  410441:	0f 1f 80 00 00 00 00 	nopl   0x0(%rax)
  410448:	f3 c3                	repz retq 
  41044a:	66 0f 1f 44 00 00    	nopw   0x0(%rax,%rax,1)
  410450:	48 8b 47 08          	mov    0x8(%rdi),%rax
  410454:	48 39 06             	cmp    %rax,(%rsi)
  410457:	75 b2                	jne    41040b <fts_children+0xa4b>
  410459:	eb c4                	jmp    41041f <fts_children+0xa5f>
  41045b:	50                   	push   %rax
  41045c:	b9 ba 67 41 00       	mov    $0x4167ba,%ecx
  410461:	ba 3c 00 00 00       	mov    $0x3c,%edx
  410466:	be 90 67 41 00       	mov    $0x416790,%esi
  41046b:	bf a2 67 41 00       	mov    $0x4167a2,%edi
  410470:	e8 5b 1c ff ff       	callq  4020d0 <__assert_fail@plt>
  410475:	66 2e 0f 1f 84 00 00 	nopw   %cs:0x0(%rax,%rax,1)
  41047c:	00 00 00 
  41047f:	90                   	nop
  410480:	48 83 ec 58          	sub    $0x58,%rsp
  410484:	48 89 54 24 30       	mov    %rdx,0x30(%rsp)
  410489:	31 d2                	xor    %edx,%edx
  41048b:	40 f6 c6 40          	test   $0x40,%sil
  41048f:	75 17                	jne    4104a8 <fts_children+0xae8>
  410491:	31 c0                	xor    %eax,%eax
  410493:	e8 38 1f ff ff       	callq  4023d0 <open@plt>
  410498:	89 c7                	mov    %eax,%edi
  41049a:	e8 c1 26 00 00       	callq  412b60 <fts_children+0x31a0>
  41049f:	48 83 c4 58          	add    $0x58,%rsp
  4104a3:	c3                   	retq   
  4104a4:	0f 1f 40 00          	nopl   0x0(%rax)
  4104a8:	48 8d 44 24 60       	lea    0x60(%rsp),%rax
  4104ad:	c7 44 24 08 10 00 00 	movl   $0x10,0x8(%rsp)
  4104b4:	00 
  4104b5:	8b 54 24 30          	mov    0x30(%rsp),%edx
  4104b9:	48 89 44 24 10       	mov    %rax,0x10(%rsp)
  4104be:	48 8d 44 24 20       	lea    0x20(%rsp),%rax
  4104c3:	48 89 44 24 18       	mov    %rax,0x18(%rsp)
  4104c8:	eb c7                	jmp    410491 <fts_children+0xad1>
  4104ca:	66 0f 1f 44 00 00    	nopw   0x0(%rax,%rax,1)
  4104d0:	c6 47 1c 01          	movb   $0x1,0x1c(%rdi)
  4104d4:	c7 47 14 00 00 00 00 	movl   $0x0,0x14(%rdi)
  4104db:	c7 47 18 00 00 00 00 	movl   $0x0,0x18(%rdi)
  4104e2:	89 37                	mov    %esi,(%rdi)
  4104e4:	89 77 04             	mov    %esi,0x4(%rdi)
  4104e7:	89 77 08             	mov    %esi,0x8(%rdi)
  4104ea:	89 77 0c             	mov    %esi,0xc(%rdi)
  4104ed:	89 77 10             	mov    %esi,0x10(%rdi)
  4104f0:	c3                   	retq   
  4104f1:	66 66 66 66 66 66 2e 	data32 data32 data32 data32 data32 nopw %cs:0x0(%rax,%rax,1)
  4104f8:	0f 1f 84 00 00 00 00 
  4104ff:	00 
  410500:	0f b6 47 1c          	movzbl 0x1c(%rdi),%eax
  410504:	c3                   	retq   
  410505:	66 66 2e 0f 1f 84 00 	data32 nopw %cs:0x0(%rax,%rax,1)
  41050c:	00 00 00 00 
  410510:	0f b6 47 1c          	movzbl 0x1c(%rdi),%eax
  410514:	8b 57 14             	mov    0x14(%rdi),%edx
  410517:	83 f0 01             	xor    $0x1,%eax
  41051a:	44 0f b6 c0          	movzbl %al,%r8d
  41051e:	44 01 c2             	add    %r8d,%edx
  410521:	83 e2 03             	and    $0x3,%edx
  410524:	89 d0                	mov    %edx,%eax
  410526:	48 8d 0c 87          	lea    (%rdi,%rax,4),%rcx
  41052a:	8b 01                	mov    (%rcx),%eax
  41052c:	89 31                	mov    %esi,(%rcx)
  41052e:	8b 4f 18             	mov    0x18(%rdi),%ecx
  410531:	89 57 14             	mov    %edx,0x14(%rdi)
  410534:	39 d1                	cmp    %edx,%ecx
  410536:	75 09                	jne    410541 <fts_children+0xb81>
  410538:	44 01 c1             	add    %r8d,%ecx
  41053b:	83 e1 03             	and    $0x3,%ecx
  41053e:	89 4f 18             	mov    %ecx,0x18(%rdi)
  410541:	c6 47 1c 00          	movb   $0x0,0x1c(%rdi)
  410545:	c3                   	retq   
  410546:	66 2e 0f 1f 84 00 00 	nopw   %cs:0x0(%rax,%rax,1)
  41054d:	00 00 00 
  410550:	80 7f 1c 00          	cmpb   $0x0,0x1c(%rdi)
  410554:	75 27                	jne    41057d <fts_children+0xbbd>
  410556:	8b 57 14             	mov    0x14(%rdi),%edx
  410559:	8b 77 10             	mov    0x10(%rdi),%esi
  41055c:	89 d0                	mov    %edx,%eax
  41055e:	48 8d 0c 87          	lea    (%rdi,%rax,4),%rcx
  410562:	8b 01                	mov    (%rcx),%eax
  410564:	89 31                	mov    %esi,(%rcx)
  410566:	3b 57 18             	cmp    0x18(%rdi),%edx
  410569:	74 0d                	je     410578 <fts_children+0xbb8>
  41056b:	83 c2 03             	add    $0x3,%edx
  41056e:	83 e2 03             	and    $0x3,%edx
  410571:	89 57 14             	mov    %edx,0x14(%rdi)
  410574:	c3                   	retq   
  410575:	0f 1f 00             	nopl   (%rax)
  410578:	c6 47 1c 01          	movb   $0x1,0x1c(%rdi)
  41057c:	c3                   	retq   
  41057d:	50                   	push   %rax
  41057e:	e8 7d 19 ff ff       	callq  401f00 <abort@plt>
  410583:	66 2e 0f 1f 84 00 00 	nopw   %cs:0x0(%rax,%rax,1)
  41058a:	00 00 00 
  41058d:	0f 1f 00             	nopl   (%rax)
  410590:	41 57                	push   %r15
  410592:	bf 0e 00 00 00       	mov    $0xe,%edi
  410597:	41 56                	push   %r14
  410599:	41 55                	push   %r13
  41059b:	41 54                	push   %r12
  41059d:	55                   	push   %rbp
  41059e:	53                   	push   %rbx
  41059f:	48 81 ec a8 00 00 00 	sub    $0xa8,%rsp
  4105a6:	64 48 8b 04 25 28 00 	mov    %fs:0x28,%rax
  4105ad:	00 00 
  4105af:	48 89 84 24 98 00 00 	mov    %rax,0x98(%rsp)
  4105b6:	00 
  4105b7:	31 c0                	xor    %eax,%eax
  4105b9:	e8 12 1d ff ff       	callq  4022d0 <nl_langinfo@plt>
  4105be:	4c 8b 35 93 a0 20 00 	mov    0x20a093(%rip),%r14        # 61a658 <stderr+0x208>
  4105c5:	48 85 c0             	test   %rax,%rax
  4105c8:	48 89 c3             	mov    %rax,%rbx
  4105cb:	b8 ab 5d 41 00       	mov    $0x415dab,%eax
  4105d0:	48 0f 44 d8          	cmove  %rax,%rbx
  4105d4:	4d 85 f6             	test   %r14,%r14
  4105d7:	75 21                	jne    4105fa <fts_children+0xc3a>
  4105d9:	e9 86 00 00 00       	jmpq   410664 <fts_children+0xca4>
  4105de:	66 90                	xchg   %ax,%ax
  4105e0:	4c 89 f7             	mov    %r14,%rdi
  4105e3:	e8 28 1a ff ff       	callq  402010 <strlen@plt>
  4105e8:	49 8d 6c 06 01       	lea    0x1(%r14,%rax,1),%rbp
  4105ed:	48 89 ef             	mov    %rbp,%rdi
  4105f0:	e8 1b 1a ff ff       	callq  402010 <strlen@plt>
  4105f5:	4c 8d 74 05 01       	lea    0x1(%rbp,%rax,1),%r14
  4105fa:	41 0f b6 2e          	movzbl (%r14),%ebp
  4105fe:	40 84 ed             	test   %bpl,%bpl
  410601:	74 29                	je     41062c <fts_children+0xc6c>
  410603:	4c 89 f6             	mov    %r14,%rsi
  410606:	48 89 df             	mov    %rbx,%rdi
  410609:	e8 d2 1b ff ff       	callq  4021e0 <strcmp@plt>
  41060e:	85 c0                	test   %eax,%eax
  410610:	74 0d                	je     41061f <fts_children+0xc5f>
  410612:	40 80 fd 2a          	cmp    $0x2a,%bpl
  410616:	75 c8                	jne    4105e0 <fts_children+0xc20>
  410618:	41 80 7e 01 00       	cmpb   $0x0,0x1(%r14)
  41061d:	75 c1                	jne    4105e0 <fts_children+0xc20>
  41061f:	4c 89 f7             	mov    %r14,%rdi
  410622:	e8 e9 19 ff ff       	callq  402010 <strlen@plt>
  410627:	49 8d 5c 06 01       	lea    0x1(%r14,%rax,1),%rbx
  41062c:	80 3b 00             	cmpb   $0x0,(%rbx)
  41062f:	b8 cf 67 41 00       	mov    $0x4167cf,%eax
  410634:	48 0f 44 d8          	cmove  %rax,%rbx
  410638:	48 8b 8c 24 98 00 00 	mov    0x98(%rsp),%rcx
  41063f:	00 
  410640:	64 48 33 0c 25 28 00 	xor    %fs:0x28,%rcx
  410647:	00 00 
  410649:	48 89 d8             	mov    %rbx,%rax
  41064c:	0f 85 3b 03 00 00    	jne    41098d <fts_children+0xfcd>
  410652:	48 81 c4 a8 00 00 00 	add    $0xa8,%rsp
  410659:	5b                   	pop    %rbx
  41065a:	5d                   	pop    %rbp
  41065b:	41 5c                	pop    %r12
  41065d:	41 5d                	pop    %r13
  41065f:	41 5e                	pop    %r14
  410661:	41 5f                	pop    %r15
  410663:	c3                   	retq   
  410664:	bf d5 67 41 00       	mov    $0x4167d5,%edi
  410669:	e8 52 18 ff ff       	callq  401ec0 <getenv@plt>
  41066e:	48 85 c0             	test   %rax,%rax
  410671:	49 89 c7             	mov    %rax,%r15
  410674:	74 09                	je     41067f <fts_children+0xcbf>
  410676:	80 38 00             	cmpb   $0x0,(%rax)
  410679:	0f 85 63 02 00 00    	jne    4108e2 <fts_children+0xf22>
  41067f:	b8 07 00 00 00       	mov    $0x7,%eax
  410684:	41 bc 08 00 00 00    	mov    $0x8,%r12d
  41068a:	41 bf c6 67 41 00    	mov    $0x4167c6,%r15d
  410690:	41 80 3c 07 2f       	cmpb   $0x2f,(%r15,%rax,1)
  410695:	41 bd 01 00 00 00    	mov    $0x1,%r13d
  41069b:	c7 44 24 08 01 00 00 	movl   $0x1,0x8(%rsp)
  4106a2:	00 
  4106a3:	0f 84 29 02 00 00    	je     4108d2 <fts_children+0xf12>
  4106a9:	4d 01 e5             	add    %r12,%r13
  4106ac:	49 8d 7d 0e          	lea    0xe(%r13),%rdi
  4106b0:	e8 db 1b ff ff       	callq  402290 <malloc@plt>
  4106b5:	48 85 c0             	test   %rax,%rax
  4106b8:	48 89 c5             	mov    %rax,%rbp
  4106bb:	0f 84 c1 02 00 00    	je     410982 <fts_children+0xfc2>
  4106c1:	4c 89 e2             	mov    %r12,%rdx
  4106c4:	4c 89 fe             	mov    %r15,%rsi
  4106c7:	48 89 c7             	mov    %rax,%rdi
  4106ca:	e8 61 1b ff ff       	callq  402230 <memcpy@plt>
  4106cf:	8b 54 24 08          	mov    0x8(%rsp),%edx
  4106d3:	85 d2                	test   %edx,%edx
  4106d5:	74 06                	je     4106dd <fts_children+0xd1d>
  4106d7:	42 c6 44 25 00 2f    	movb   $0x2f,0x0(%rbp,%r12,1)
  4106dd:	49 01 ed             	add    %rbp,%r13
  4106e0:	48 b8 63 68 61 72 73 	movabs $0x2e74657372616863,%rax
  4106e7:	65 74 2e 
  4106ea:	be 00 00 02 00       	mov    $0x20000,%esi
  4106ef:	49 89 45 00          	mov    %rax,0x0(%r13)
  4106f3:	b8 73 00 00 00       	mov    $0x73,%eax
  4106f8:	41 c7 45 08 61 6c 69 	movl   $0x61696c61,0x8(%r13)
  4106ff:	61 
  410700:	66 41 89 45 0c       	mov    %ax,0xc(%r13)
  410705:	48 89 ef             	mov    %rbp,%rdi
  410708:	31 c0                	xor    %eax,%eax
  41070a:	e8 c1 1c ff ff       	callq  4023d0 <open@plt>
  41070f:	85 c0                	test   %eax,%eax
  410711:	41 89 c4             	mov    %eax,%r12d
  410714:	0f 88 9e 01 00 00    	js     4108b8 <fts_children+0xef8>
  41071a:	be 7e 32 41 00       	mov    $0x41327e,%esi
  41071f:	89 c7                	mov    %eax,%edi
  410721:	e8 2a 1c ff ff       	callq  402350 <fdopen@plt>
  410726:	48 85 c0             	test   %rax,%rax
  410729:	49 89 c7             	mov    %rax,%r15
  41072c:	0f 84 7e 01 00 00    	je     4108b0 <fts_children+0xef0>
  410732:	4c 8d 64 24 20       	lea    0x20(%rsp),%r12
  410737:	48 c7 44 24 08 00 00 	movq   $0x0,0x8(%rsp)
  41073e:	00 00 
  410740:	49 8b 47 08          	mov    0x8(%r15),%rax
  410744:	49 3b 47 10          	cmp    0x10(%r15),%rax
  410748:	0f 83 43 01 00 00    	jae    410891 <fts_children+0xed1>
  41074e:	48 8d 50 01          	lea    0x1(%rax),%rdx
  410752:	49 89 57 08          	mov    %rdx,0x8(%r15)
  410756:	0f b6 38             	movzbl (%rax),%edi
  410759:	83 ff 20             	cmp    $0x20,%edi
  41075c:	74 e2                	je     410740 <fts_children+0xd80>
  41075e:	8d 47 f7             	lea    -0x9(%rdi),%eax
  410761:	83 f8 01             	cmp    $0x1,%eax
  410764:	76 da                	jbe    410740 <fts_children+0xd80>
  410766:	83 ff 23             	cmp    $0x23,%edi
  410769:	0f 84 96 01 00 00    	je     410905 <fts_children+0xf45>
  41076f:	4c 89 fe             	mov    %r15,%rsi
  410772:	e8 69 1b ff ff       	callq  4022e0 <ungetc@plt>
  410777:	48 8d 4c 24 60       	lea    0x60(%rsp),%rcx
  41077c:	31 c0                	xor    %eax,%eax
  41077e:	4c 89 e2             	mov    %r12,%rdx
  410781:	be e5 67 41 00       	mov    $0x4167e5,%esi
  410786:	4c 89 ff             	mov    %r15,%rdi
  410789:	e8 92 19 ff ff       	callq  402120 <fscanf@plt>
  41078e:	83 f8 01             	cmp    $0x1,%eax
  410791:	0f 8e 95 01 00 00    	jle    41092c <fts_children+0xf6c>
  410797:	4c 89 e2             	mov    %r12,%rdx
  41079a:	8b 0a                	mov    (%rdx),%ecx
  41079c:	48 83 c2 04          	add    $0x4,%rdx
  4107a0:	8d 81 ff fe fe fe    	lea    -0x1010101(%rcx),%eax
  4107a6:	f7 d1                	not    %ecx
  4107a8:	21 c8                	and    %ecx,%eax
  4107aa:	25 80 80 80 80       	and    $0x80808080,%eax
  4107af:	74 e9                	je     41079a <fts_children+0xdda>
  4107b1:	89 c1                	mov    %eax,%ecx
  4107b3:	4c 8d 54 24 60       	lea    0x60(%rsp),%r10
  4107b8:	c1 e9 10             	shr    $0x10,%ecx
  4107bb:	a9 80 80 00 00       	test   $0x8080,%eax
  4107c0:	0f 44 c1             	cmove  %ecx,%eax
  4107c3:	48 8d 4a 02          	lea    0x2(%rdx),%rcx
  4107c7:	48 0f 44 d1          	cmove  %rcx,%rdx
  4107cb:	00 c0                	add    %al,%al
  4107cd:	48 83 da 03          	sbb    $0x3,%rdx
  4107d1:	4c 29 e2             	sub    %r12,%rdx
  4107d4:	41 8b 0a             	mov    (%r10),%ecx
  4107d7:	49 83 c2 04          	add    $0x4,%r10
  4107db:	8d 81 ff fe fe fe    	lea    -0x1010101(%rcx),%eax
  4107e1:	f7 d1                	not    %ecx
  4107e3:	21 c8                	and    %ecx,%eax
  4107e5:	25 80 80 80 80       	and    $0x80808080,%eax
  4107ea:	74 e8                	je     4107d4 <fts_children+0xe14>
  4107ec:	89 c1                	mov    %eax,%ecx
  4107ee:	c1 e9 10             	shr    $0x10,%ecx
  4107f1:	a9 80 80 00 00       	test   $0x8080,%eax
  4107f6:	0f 44 c1             	cmove  %ecx,%eax
  4107f9:	49 8d 4a 02          	lea    0x2(%r10),%rcx
  4107fd:	4c 0f 44 d1          	cmove  %rcx,%r10
  410801:	00 c0                	add    %al,%al
  410803:	48 8d 44 24 60       	lea    0x60(%rsp),%rax
  410808:	49 83 da 03          	sbb    $0x3,%r10
  41080c:	49 29 c2             	sub    %rax,%r10
  41080f:	48 83 7c 24 08 00    	cmpq   $0x0,0x8(%rsp)
  410815:	49 8d 04 12          	lea    (%r10,%rdx,1),%rax
  410819:	0f 85 2d 01 00 00    	jne    41094c <fts_children+0xf8c>
  41081f:	48 8d 48 02          	lea    0x2(%rax),%rcx
  410823:	48 8d 78 03          	lea    0x3(%rax),%rdi
  410827:	48 89 54 24 18       	mov    %rdx,0x18(%rsp)
  41082c:	4c 89 54 24 10       	mov    %r10,0x10(%rsp)
  410831:	48 89 4c 24 08       	mov    %rcx,0x8(%rsp)
  410836:	e8 55 1a ff ff       	callq  402290 <malloc@plt>
  41083b:	4c 8b 54 24 10       	mov    0x10(%rsp),%r10
  410840:	48 8b 54 24 18       	mov    0x18(%rsp),%rdx
  410845:	49 89 c5             	mov    %rax,%r13
  410848:	4d 85 ed             	test   %r13,%r13
  41084b:	0f 84 41 01 00 00    	je     410992 <fts_children+0xfd2>
  410851:	4c 8b 74 24 08       	mov    0x8(%rsp),%r14
  410856:	48 c7 c7 fe ff ff ff 	mov    $0xfffffffffffffffe,%rdi
  41085d:	4c 89 e6             	mov    %r12,%rsi
  410860:	48 29 d7             	sub    %rdx,%rdi
  410863:	4d 29 d6             	sub    %r10,%r14
  410866:	4c 01 f7             	add    %r14,%rdi
  410869:	4c 01 ef             	add    %r13,%rdi
  41086c:	e8 cf 16 ff ff       	callq  401f40 <strcpy@plt>
  410871:	4b 8d 7c 35 ff       	lea    -0x1(%r13,%r14,1),%rdi
  410876:	48 8d 74 24 60       	lea    0x60(%rsp),%rsi
  41087b:	4d 89 ee             	mov    %r13,%r14
  41087e:	e8 bd 16 ff ff       	callq  401f40 <strcpy@plt>
  410883:	49 8b 47 08          	mov    0x8(%r15),%rax
  410887:	49 3b 47 10          	cmp    0x10(%r15),%rax
  41088b:	0f 82 bd fe ff ff    	jb     41074e <fts_children+0xd8e>
  410891:	4c 89 ff             	mov    %r15,%rdi
  410894:	e8 17 16 ff ff       	callq  401eb0 <__uflow@plt>
  410899:	83 f8 ff             	cmp    $0xffffffff,%eax
  41089c:	89 c7                	mov    %eax,%edi
  41089e:	0f 84 88 00 00 00    	je     41092c <fts_children+0xf6c>
  4108a4:	e9 b0 fe ff ff       	jmpq   410759 <fts_children+0xd99>
  4108a9:	0f 1f 80 00 00 00 00 	nopl   0x0(%rax)
  4108b0:	44 89 e7             	mov    %r12d,%edi
  4108b3:	e8 88 18 ff ff       	callq  402140 <close@plt>
  4108b8:	41 be ab 5d 41 00    	mov    $0x415dab,%r14d
  4108be:	48 89 ef             	mov    %rbp,%rdi
  4108c1:	e8 0a 16 ff ff       	callq  401ed0 <free@plt>
  4108c6:	4c 89 35 8b 9d 20 00 	mov    %r14,0x209d8b(%rip)        # 61a658 <stderr+0x208>
  4108cd:	e9 28 fd ff ff       	jmpq   4105fa <fts_children+0xc3a>
  4108d2:	45 31 ed             	xor    %r13d,%r13d
  4108d5:	c7 44 24 08 00 00 00 	movl   $0x0,0x8(%rsp)
  4108dc:	00 
  4108dd:	e9 c7 fd ff ff       	jmpq   4106a9 <fts_children+0xce9>
  4108e2:	48 89 c7             	mov    %rax,%rdi
  4108e5:	e8 26 17 ff ff       	callq  402010 <strlen@plt>
  4108ea:	48 85 c0             	test   %rax,%rax
  4108ed:	49 89 c4             	mov    %rax,%r12
  4108f0:	74 e0                	je     4108d2 <fts_children+0xf12>
  4108f2:	48 8d 40 ff          	lea    -0x1(%rax),%rax
  4108f6:	e9 95 fd ff ff       	jmpq   410690 <fts_children+0xcd0>
  4108fb:	0f 1f 44 00 00       	nopl   0x0(%rax,%rax,1)
  410900:	83 f8 ff             	cmp    $0xffffffff,%eax
  410903:	74 1e                	je     410923 <fts_children+0xf63>
  410905:	49 8b 47 08          	mov    0x8(%r15),%rax
  410909:	49 3b 47 10          	cmp    0x10(%r15),%rax
  41090d:	0f 83 9a 00 00 00    	jae    4109ad <fts_children+0xfed>
  410913:	48 8d 50 01          	lea    0x1(%rax),%rdx
  410917:	49 89 57 08          	mov    %rdx,0x8(%r15)
  41091b:	0f b6 00             	movzbl (%rax),%eax
  41091e:	83 f8 0a             	cmp    $0xa,%eax
  410921:	75 dd                	jne    410900 <fts_children+0xf40>
  410923:	83 f8 ff             	cmp    $0xffffffff,%eax
  410926:	0f 85 14 fe ff ff    	jne    410740 <fts_children+0xd80>
  41092c:	4c 89 ff             	mov    %r15,%rdi
  41092f:	e8 bc cd ff ff       	callq  40d6f0 <__sprintf_chk@plt+0xb1f0>
  410934:	48 8b 44 24 08       	mov    0x8(%rsp),%rax
  410939:	48 85 c0             	test   %rax,%rax
  41093c:	0f 84 76 ff ff ff    	je     4108b8 <fts_children+0xef8>
  410942:	41 c6 04 06 00       	movb   $0x0,(%r14,%rax,1)
  410947:	e9 72 ff ff ff       	jmpq   4108be <fts_children+0xefe>
  41094c:	48 03 44 24 08       	add    0x8(%rsp),%rax
  410951:	4c 89 f7             	mov    %r14,%rdi
  410954:	4c 89 54 24 18       	mov    %r10,0x18(%rsp)
  410959:	48 89 54 24 10       	mov    %rdx,0x10(%rsp)
  41095e:	48 8d 48 02          	lea    0x2(%rax),%rcx
  410962:	48 8d 70 03          	lea    0x3(%rax),%rsi
  410966:	48 89 4c 24 08       	mov    %rcx,0x8(%rsp)
  41096b:	e8 d0 19 ff ff       	callq  402340 <realloc@plt>
  410970:	4c 8b 54 24 18       	mov    0x18(%rsp),%r10
  410975:	49 89 c5             	mov    %rax,%r13
  410978:	48 8b 54 24 10       	mov    0x10(%rsp),%rdx
  41097d:	e9 c6 fe ff ff       	jmpq   410848 <fts_children+0xe88>
  410982:	41 be ab 5d 41 00    	mov    $0x415dab,%r14d
  410988:	e9 39 ff ff ff       	jmpq   4108c6 <fts_children+0xf06>
  41098d:	e8 ae 16 ff ff       	callq  402040 <__stack_chk_fail@plt>
  410992:	4c 89 f7             	mov    %r14,%rdi
  410995:	41 be ab 5d 41 00    	mov    $0x415dab,%r14d
  41099b:	e8 30 15 ff ff       	callq  401ed0 <free@plt>
  4109a0:	4c 89 ff             	mov    %r15,%rdi
  4109a3:	e8 48 cd ff ff       	callq  40d6f0 <__sprintf_chk@plt+0xb1f0>
  4109a8:	e9 11 ff ff ff       	jmpq   4108be <fts_children+0xefe>
  4109ad:	4c 89 ff             	mov    %r15,%rdi
  4109b0:	e8 fb 14 ff ff       	callq  401eb0 <__uflow@plt>
  4109b5:	e9 64 ff ff ff       	jmpq   41091e <fts_children+0xf5e>
  4109ba:	66 0f 1f 44 00 00    	nopw   0x0(%rax,%rax,1)
  4109c0:	55                   	push   %rbp
  4109c1:	48 89 e5             	mov    %rsp,%rbp
  4109c4:	53                   	push   %rbx
  4109c5:	48 83 ec 38          	sub    $0x38,%rsp
  4109c9:	64 48 8b 04 25 28 00 	mov    %fs:0x28,%rax
  4109d0:	00 00 
  4109d2:	48 89 45 e8          	mov    %rax,-0x18(%rbp)
  4109d6:	31 c0                	xor    %eax,%eax
  4109d8:	48 b8 ff ff ff ff ff 	movabs $0x1fffffffffffffff,%rax
  4109df:	ff ff 1f 
  4109e2:	48 39 c2             	cmp    %rax,%rdx
  4109e5:	76 1b                	jbe    410a02 <fts_children+0x1042>
  4109e7:	31 c0                	xor    %eax,%eax
  4109e9:	48 8b 4d e8          	mov    -0x18(%rbp),%rcx
  4109ed:	64 48 33 0c 25 28 00 	xor    %fs:0x28,%rcx
  4109f4:	00 00 
  4109f6:	0f 85 5b 01 00 00    	jne    410b57 <fts_children+0x1197>
  4109fc:	48 8b 5d f8          	mov    -0x8(%rbp),%rbx
  410a00:	c9                   	leaveq 
  410a01:	c3                   	retq   
  410a02:	48 89 fb             	mov    %rdi,%rbx
  410a05:	48 8d 3c d5 00 00 00 	lea    0x0(,%rdx,8),%rdi
  410a0c:	00 
  410a0d:	48 81 ff af 0f 00 00 	cmp    $0xfaf,%rdi
  410a14:	0f 86 bf 00 00 00    	jbe    410ad9 <fts_children+0x1119>
  410a1a:	48 89 4d c8          	mov    %rcx,-0x38(%rbp)
  410a1e:	48 89 55 d0          	mov    %rdx,-0x30(%rbp)
  410a22:	48 89 75 d8          	mov    %rsi,-0x28(%rbp)
  410a26:	e8 b5 22 00 00       	callq  412ce0 <fts_children+0x3320>
  410a2b:	48 8b 4d c8          	mov    -0x38(%rbp),%rcx
  410a2f:	48 8b 55 d0          	mov    -0x30(%rbp),%rdx
  410a33:	48 8b 75 d8          	mov    -0x28(%rbp),%rsi
  410a37:	48 85 c0             	test   %rax,%rax
  410a3a:	74 ab                	je     4109e7 <fts_children+0x1027>
  410a3c:	45 31 c0             	xor    %r8d,%r8d
  410a3f:	48 83 fa 02          	cmp    $0x2,%rdx
  410a43:	48 c7 40 08 01 00 00 	movq   $0x1,0x8(%rax)
  410a4a:	00 
  410a4b:	41 ba 02 00 00 00    	mov    $0x2,%r10d
  410a51:	76 40                	jbe    410a93 <fts_children+0x10d3>
  410a53:	0f 1f 44 00 00       	nopl   0x0(%rax,%rax,1)
  410a58:	46 0f b6 4c 16 ff    	movzbl -0x1(%rsi,%r10,1),%r9d
  410a5e:	46 38 0c 06          	cmp    %r9b,(%rsi,%r8,1)
  410a62:	75 1a                	jne    410a7e <fts_children+0x10be>
  410a64:	e9 a7 00 00 00       	jmpq   410b10 <fts_children+0x1150>
  410a69:	0f 1f 80 00 00 00 00 	nopl   0x0(%rax)
  410a70:	4e 2b 04 c0          	sub    (%rax,%r8,8),%r8
  410a74:	46 38 0c 06          	cmp    %r9b,(%rsi,%r8,1)
  410a78:	0f 84 92 00 00 00    	je     410b10 <fts_children+0x1150>
  410a7e:	4d 85 c0             	test   %r8,%r8
  410a81:	75 ed                	jne    410a70 <fts_children+0x10b0>
  410a83:	4e 89 14 d0          	mov    %r10,(%rax,%r10,8)
  410a87:	45 31 c0             	xor    %r8d,%r8d
  410a8a:	49 83 c2 01          	add    $0x1,%r10
  410a8e:	49 39 d2             	cmp    %rdx,%r10
  410a91:	75 c5                	jne    410a58 <fts_children+0x1098>
  410a93:	48 c7 01 00 00 00 00 	movq   $0x0,(%rcx)
  410a9a:	44 0f b6 0b          	movzbl (%rbx),%r9d
  410a9e:	49 89 da             	mov    %rbx,%r10
  410aa1:	45 31 c0             	xor    %r8d,%r8d
  410aa4:	0f 1f 40 00          	nopl   0x0(%rax)
  410aa8:	45 84 c9             	test   %r9b,%r9b
  410aab:	74 1a                	je     410ac7 <fts_children+0x1107>
  410aad:	46 38 0c 06          	cmp    %r9b,(%rsi,%r8,1)
  410ab1:	74 75                	je     410b28 <fts_children+0x1168>
  410ab3:	4d 85 c0             	test   %r8,%r8
  410ab6:	74 48                	je     410b00 <fts_children+0x1140>
  410ab8:	4a 8b 3c c0          	mov    (%rax,%r8,8),%rdi
  410abc:	48 01 fb             	add    %rdi,%rbx
  410abf:	49 29 f8             	sub    %rdi,%r8
  410ac2:	45 84 c9             	test   %r9b,%r9b
  410ac5:	75 e6                	jne    410aad <fts_children+0x10ed>
  410ac7:	48 89 c7             	mov    %rax,%rdi
  410aca:	e8 91 22 00 00       	callq  412d60 <fts_children+0x33a0>
  410acf:	b8 01 00 00 00       	mov    $0x1,%eax
  410ad4:	e9 10 ff ff ff       	jmpq   4109e9 <fts_children+0x1029>
  410ad9:	48 83 c7 2e          	add    $0x2e,%rdi
  410add:	48 83 e7 f0          	and    $0xfffffffffffffff0,%rdi
  410ae1:	48 29 fc             	sub    %rdi,%rsp
  410ae4:	48 8d 44 24 0f       	lea    0xf(%rsp),%rax
  410ae9:	48 83 e0 f0          	and    $0xfffffffffffffff0,%rax
  410aed:	48 83 c0 10          	add    $0x10,%rax
  410af1:	e9 41 ff ff ff       	jmpq   410a37 <fts_children+0x1077>
  410af6:	66 2e 0f 1f 84 00 00 	nopw   %cs:0x0(%rax,%rax,1)
  410afd:	00 00 00 
  410b00:	45 0f b6 4a 01       	movzbl 0x1(%r10),%r9d
  410b05:	48 83 c3 01          	add    $0x1,%rbx
  410b09:	49 83 c2 01          	add    $0x1,%r10
  410b0d:	eb 99                	jmp    410aa8 <fts_children+0x10e8>
  410b0f:	90                   	nop
  410b10:	49 83 c0 01          	add    $0x1,%r8
  410b14:	4c 89 d7             	mov    %r10,%rdi
  410b17:	4c 29 c7             	sub    %r8,%rdi
  410b1a:	4a 89 3c d0          	mov    %rdi,(%rax,%r10,8)
  410b1e:	e9 67 ff ff ff       	jmpq   410a8a <fts_children+0x10ca>
  410b23:	0f 1f 44 00 00       	nopl   0x0(%rax,%rax,1)
  410b28:	49 83 c0 01          	add    $0x1,%r8
  410b2c:	49 8d 7a 01          	lea    0x1(%r10),%rdi
  410b30:	4c 39 c2             	cmp    %r8,%rdx
  410b33:	74 0d                	je     410b42 <fts_children+0x1182>
  410b35:	45 0f b6 4a 01       	movzbl 0x1(%r10),%r9d
  410b3a:	49 89 fa             	mov    %rdi,%r10
  410b3d:	e9 66 ff ff ff       	jmpq   410aa8 <fts_children+0x10e8>
  410b42:	48 89 c7             	mov    %rax,%rdi
  410b45:	48 89 19             	mov    %rbx,(%rcx)
  410b48:	e8 13 22 00 00       	callq  412d60 <fts_children+0x33a0>
  410b4d:	b8 01 00 00 00       	mov    $0x1,%eax
  410b52:	e9 92 fe ff ff       	jmpq   4109e9 <fts_children+0x1029>
  410b57:	e8 e4 14 ff ff       	callq  402040 <__stack_chk_fail@plt>
  410b5c:	0f 1f 40 00          	nopl   0x0(%rax)
  410b60:	55                   	push   %rbp
  410b61:	48 89 e5             	mov    %rsp,%rbp
  410b64:	41 57                	push   %r15
  410b66:	41 56                	push   %r14
  410b68:	41 55                	push   %r13
  410b6a:	49 89 f5             	mov    %rsi,%r13
  410b6d:	41 54                	push   %r12
  410b6f:	53                   	push   %rbx
  410b70:	48 81 ec 08 01 00 00 	sub    $0x108,%rsp
  410b77:	48 89 bd f0 fe ff ff 	mov    %rdi,-0x110(%rbp)
  410b7e:	48 89 f7             	mov    %rsi,%rdi
  410b81:	64 48 8b 04 25 28 00 	mov    %fs:0x28,%rax
  410b88:	00 00 
  410b8a:	48 89 45 c8          	mov    %rax,-0x38(%rbp)
  410b8e:	31 c0                	xor    %eax,%eax
  410b90:	48 89 95 d8 fe ff ff 	mov    %rdx,-0x128(%rbp)
  410b97:	e8 54 22 00 00       	callq  412df0 <fts_children+0x3430>
  410b9c:	48 89 c3             	mov    %rax,%rbx
  410b9f:	48 89 85 e8 fe ff ff 	mov    %rax,-0x118(%rbp)
  410ba6:	48 b8 92 24 49 92 24 	movabs $0x492492492492492,%rax
  410bad:	49 92 04 
  410bb0:	48 39 c3             	cmp    %rax,%rbx
  410bb3:	76 24                	jbe    410bd9 <fts_children+0x1219>
  410bb5:	31 c0                	xor    %eax,%eax
  410bb7:	48 8b 5d c8          	mov    -0x38(%rbp),%rbx
  410bbb:	64 48 33 1c 25 28 00 	xor    %fs:0x28,%rbx
  410bc2:	00 00 
  410bc4:	0f 85 d2 09 00 00    	jne    41159c <fts_children+0x1bdc>
  410bca:	48 8d 65 d8          	lea    -0x28(%rbp),%rsp
  410bce:	5b                   	pop    %rbx
  410bcf:	41 5c                	pop    %r12
  410bd1:	41 5d                	pop    %r13
  410bd3:	41 5e                	pop    %r14
  410bd5:	41 5f                	pop    %r15
  410bd7:	5d                   	pop    %rbp
  410bd8:	c3                   	retq   
  410bd9:	48 8b 85 e8 fe ff ff 	mov    -0x118(%rbp),%rax
  410be0:	48 8d 14 c5 00 00 00 	lea    0x0(,%rax,8),%rdx
  410be7:	00 
  410be8:	48 89 c7             	mov    %rax,%rdi
  410beb:	48 c1 e7 06          	shl    $0x6,%rdi
  410bef:	48 29 d7             	sub    %rdx,%rdi
  410bf2:	48 81 ff af 0f 00 00 	cmp    $0xfaf,%rdi
  410bf9:	0f 86 d2 03 00 00    	jbe    410fd1 <fts_children+0x1611>
  410bff:	e8 dc 20 00 00       	callq  412ce0 <fts_children+0x3320>
  410c04:	49 89 c4             	mov    %rax,%r12
  410c07:	4d 85 e4             	test   %r12,%r12
  410c0a:	74 a9                	je     410bb5 <fts_children+0x11f5>
  410c0c:	48 8b 85 e8 fe ff ff 	mov    -0x118(%rbp),%rax
  410c13:	4c 89 ad 10 ff ff ff 	mov    %r13,-0xf0(%rbp)
  410c1a:	4d 8d 74 24 18       	lea    0x18(%r12),%r14
  410c1f:	c6 85 00 ff ff ff 00 	movb   $0x0,-0x100(%rbp)
  410c26:	48 c7 85 04 ff ff ff 	movq   $0x0,-0xfc(%rbp)
  410c2d:	00 00 00 00 
  410c31:	c6 85 0c ff ff ff 00 	movb   $0x0,-0xf4(%rbp)
  410c38:	48 8d 1c 40          	lea    (%rax,%rax,2),%rbx
  410c3c:	48 8d 85 00 ff ff ff 	lea    -0x100(%rbp),%rax
  410c43:	48 c1 e3 04          	shl    $0x4,%rbx
  410c47:	4c 8d 68 04          	lea    0x4(%rax),%r13
  410c4b:	4c 01 e3             	add    %r12,%rbx
  410c4e:	66 90                	xchg   %ax,%ax
  410c50:	80 bd 00 ff ff ff 00 	cmpb   $0x0,-0x100(%rbp)
  410c57:	0f 85 aa 03 00 00    	jne    411007 <fts_children+0x1647>
  410c5d:	48 8b 95 10 ff ff ff 	mov    -0xf0(%rbp),%rdx
  410c64:	0f b6 02             	movzbl (%rdx),%eax
  410c67:	89 c1                	mov    %eax,%ecx
  410c69:	83 e0 1f             	and    $0x1f,%eax
  410c6c:	c0 e9 05             	shr    $0x5,%cl
  410c6f:	83 e1 07             	and    $0x7,%ecx
  410c72:	8b 0c 8d 80 57 41 00 	mov    0x415780(,%rcx,4),%ecx
  410c79:	0f a3 c1             	bt     %eax,%ecx
  410c7c:	0f 83 6e 03 00 00    	jae    410ff0 <fts_children+0x1630>
  410c82:	48 c7 85 18 ff ff ff 	movq   $0x1,-0xe8(%rbp)
  410c89:	01 00 00 00 
  410c8d:	0f be 02             	movsbl (%rdx),%eax
  410c90:	c6 85 20 ff ff ff 01 	movb   $0x1,-0xe0(%rbp)
  410c97:	89 85 24 ff ff ff    	mov    %eax,-0xdc(%rbp)
  410c9d:	8b 85 24 ff ff ff    	mov    -0xdc(%rbp),%eax
  410ca3:	c6 85 0c ff ff ff 01 	movb   $0x1,-0xf4(%rbp)
  410caa:	85 c0                	test   %eax,%eax
  410cac:	0f 85 fe 03 00 00    	jne    4110b0 <fts_children+0x16f0>
  410cb2:	48 83 bd e8 fe ff ff 	cmpq   $0x2,-0x118(%rbp)
  410cb9:	02 
  410cba:	48 c7 43 08 01 00 00 	movq   $0x1,0x8(%rbx)
  410cc1:	00 
  410cc2:	0f 86 a4 00 00 00    	jbe    410d6c <fts_children+0x13ac>
  410cc8:	4d 89 e7             	mov    %r12,%r15
  410ccb:	45 31 f6             	xor    %r14d,%r14d
  410cce:	48 c7 85 f8 fe ff ff 	movq   $0x2,-0x108(%rbp)
  410cd5:	02 00 00 00 
  410cd9:	0f 1f 80 00 00 00 00 	nopl   0x0(%rax)
  410ce0:	45 0f b6 6f 40       	movzbl 0x40(%r15),%r13d
  410ce5:	eb 2a                	jmp    410d11 <fts_children+0x1351>
  410ce7:	66 0f 1f 84 00 00 00 	nopw   0x0(%rax,%rax,1)
  410cee:	00 00 
  410cf0:	80 78 10 00          	cmpb   $0x0,0x10(%rax)
  410cf4:	74 2b                	je     410d21 <fts_children+0x1361>
  410cf6:	8b 40 14             	mov    0x14(%rax),%eax
  410cf9:	41 39 47 44          	cmp    %eax,0x44(%r15)
  410cfd:	0f 94 c0             	sete   %al
  410d00:	84 c0                	test   %al,%al
  410d02:	75 33                	jne    410d37 <fts_children+0x1377>
  410d04:	4d 85 f6             	test   %r14,%r14
  410d07:	0f 84 33 06 00 00    	je     411340 <fts_children+0x1980>
  410d0d:	4e 2b 34 f3          	sub    (%rbx,%r14,8),%r14
  410d11:	4b 8d 04 76          	lea    (%r14,%r14,2),%rax
  410d15:	48 c1 e0 04          	shl    $0x4,%rax
  410d19:	4c 01 e0             	add    %r12,%rax
  410d1c:	45 84 ed             	test   %r13b,%r13b
  410d1f:	75 cf                	jne    410cf0 <fts_children+0x1330>
  410d21:	49 8b 57 38          	mov    0x38(%r15),%rdx
  410d25:	31 f6                	xor    %esi,%esi
  410d27:	48 3b 50 08          	cmp    0x8(%rax),%rdx
  410d2b:	0f 84 87 02 00 00    	je     410fb8 <fts_children+0x15f8>
  410d31:	89 f0                	mov    %esi,%eax
  410d33:	84 c0                	test   %al,%al
  410d35:	74 cd                	je     410d04 <fts_children+0x1344>
  410d37:	48 8b bd f8 fe ff ff 	mov    -0x108(%rbp),%rdi
  410d3e:	49 83 c6 01          	add    $0x1,%r14
  410d42:	48 89 f8             	mov    %rdi,%rax
  410d45:	4c 29 f0             	sub    %r14,%rax
  410d48:	48 89 04 fb          	mov    %rax,(%rbx,%rdi,8)
  410d4c:	48 83 85 f8 fe ff ff 	addq   $0x1,-0x108(%rbp)
  410d53:	01 
  410d54:	49 83 c7 30          	add    $0x30,%r15
  410d58:	48 8b 85 e8 fe ff ff 	mov    -0x118(%rbp),%rax
  410d5f:	48 39 85 f8 fe ff ff 	cmp    %rax,-0x108(%rbp)
  410d66:	0f 85 74 ff ff ff    	jne    410ce0 <fts_children+0x1320>
  410d6c:	48 8b 85 d8 fe ff ff 	mov    -0x128(%rbp),%rax
  410d73:	c6 85 40 ff ff ff 00 	movb   $0x0,-0xc0(%rbp)
  410d7a:	45 31 ff             	xor    %r15d,%r15d
  410d7d:	48 c7 85 44 ff ff ff 	movq   $0x0,-0xbc(%rbp)
  410d84:	00 00 00 00 
  410d88:	c6 85 4c ff ff ff 00 	movb   $0x0,-0xb4(%rbp)
  410d8f:	c6 45 80 00          	movb   $0x0,-0x80(%rbp)
  410d93:	48 c7 45 84 00 00 00 	movq   $0x0,-0x7c(%rbp)
  410d9a:	00 
  410d9b:	48 c7 00 00 00 00 00 	movq   $0x0,(%rax)
  410da2:	48 8b 85 f0 fe ff ff 	mov    -0x110(%rbp),%rax
  410da9:	c6 45 8c 00          	movb   $0x0,-0x74(%rbp)
  410dad:	48 c7 85 f0 fe ff ff 	movq   $0x0,-0x110(%rbp)
  410db4:	00 00 00 00 
  410db8:	48 89 85 50 ff ff ff 	mov    %rax,-0xb0(%rbp)
  410dbf:	48 89 45 90          	mov    %rax,-0x70(%rbp)
  410dc3:	48 8d 45 80          	lea    -0x80(%rbp),%rax
  410dc7:	48 83 c0 04          	add    $0x4,%rax
  410dcb:	48 89 85 e0 fe ff ff 	mov    %rax,-0x120(%rbp)
  410dd2:	48 8d 85 40 ff ff ff 	lea    -0xc0(%rbp),%rax
  410dd9:	48 83 c0 04          	add    $0x4,%rax
  410ddd:	48 89 85 f8 fe ff ff 	mov    %rax,-0x108(%rbp)
  410de4:	0f 1f 40 00          	nopl   0x0(%rax)
  410de8:	45 84 ff             	test   %r15b,%r15b
  410deb:	74 63                	je     410e50 <fts_children+0x1490>
  410ded:	44 0f b6 7d a0       	movzbl -0x60(%rbp),%r15d
  410df2:	45 84 ff             	test   %r15b,%r15b
  410df5:	0f 85 a6 00 00 00    	jne    410ea1 <fts_children+0x14e1>
  410dfb:	48 8b 85 f0 fe ff ff 	mov    -0x110(%rbp),%rax
  410e02:	48 8d 0c 40          	lea    (%rax,%rax,2),%rcx
  410e06:	48 c1 e1 04          	shl    $0x4,%rcx
  410e0a:	4c 01 e1             	add    %r12,%rcx
  410e0d:	48 8b 51 08          	mov    0x8(%rcx),%rdx
  410e11:	31 c0                	xor    %eax,%eax
  410e13:	48 3b 55 98          	cmp    -0x68(%rbp),%rdx
  410e17:	0f 84 03 05 00 00    	je     411320 <fts_children+0x1960>
  410e1d:	84 c0                	test   %al,%al
  410e1f:	0f 84 b1 00 00 00    	je     410ed6 <fts_children+0x1516>
  410e25:	48 83 85 f0 fe ff ff 	addq   $0x1,-0x110(%rbp)
  410e2c:	01 
  410e2d:	48 8b 45 98          	mov    -0x68(%rbp),%rax
  410e31:	48 01 45 90          	add    %rax,-0x70(%rbp)
  410e35:	48 8b 85 e8 fe ff ff 	mov    -0x118(%rbp),%rax
  410e3c:	48 39 85 f0 fe ff ff 	cmp    %rax,-0x110(%rbp)
  410e43:	c6 45 8c 00          	movb   $0x0,-0x74(%rbp)
  410e47:	0f 84 c4 06 00 00    	je     411511 <fts_children+0x1b51>
  410e4d:	45 31 ff             	xor    %r15d,%r15d
  410e50:	80 7d 80 00          	cmpb   $0x0,-0x80(%rbp)
  410e54:	0f 85 ce 03 00 00    	jne    411228 <fts_children+0x1868>
  410e5a:	48 8b 55 90          	mov    -0x70(%rbp),%rdx
  410e5e:	0f b6 02             	movzbl (%rdx),%eax
  410e61:	89 c1                	mov    %eax,%ecx
  410e63:	83 e0 1f             	and    $0x1f,%eax
  410e66:	c0 e9 05             	shr    $0x5,%cl
  410e69:	83 e1 07             	and    $0x7,%ecx
  410e6c:	8b 0c 8d 80 57 41 00 	mov    0x415780(,%rcx,4),%ecx
  410e73:	0f a3 c1             	bt     %eax,%ecx
  410e76:	0f 83 94 03 00 00    	jae    411210 <fts_children+0x1850>
  410e7c:	48 c7 45 98 01 00 00 	movq   $0x1,-0x68(%rbp)
  410e83:	00 
  410e84:	0f be 02             	movsbl (%rdx),%eax
  410e87:	41 bf 01 00 00 00    	mov    $0x1,%r15d
  410e8d:	c6 45 a0 01          	movb   $0x1,-0x60(%rbp)
  410e91:	89 45 a4             	mov    %eax,-0x5c(%rbp)
  410e94:	45 84 ff             	test   %r15b,%r15b
  410e97:	c6 45 8c 01          	movb   $0x1,-0x74(%rbp)
  410e9b:	0f 84 5a ff ff ff    	je     410dfb <fts_children+0x143b>
  410ea1:	8b 45 a4             	mov    -0x5c(%rbp),%eax
  410ea4:	85 c0                	test   %eax,%eax
  410ea6:	0f 84 76 06 00 00    	je     411522 <fts_children+0x1b62>
  410eac:	48 8b bd f0 fe ff ff 	mov    -0x110(%rbp),%rdi
  410eb3:	48 8d 0c 7f          	lea    (%rdi,%rdi,2),%rcx
  410eb7:	48 c1 e1 04          	shl    $0x4,%rcx
  410ebb:	4c 01 e1             	add    %r12,%rcx
  410ebe:	80 79 10 00          	cmpb   $0x0,0x10(%rcx)
  410ec2:	0f 84 45 ff ff ff    	je     410e0d <fts_children+0x144d>
  410ec8:	3b 41 14             	cmp    0x14(%rcx),%eax
  410ecb:	0f 94 c0             	sete   %al
  410ece:	84 c0                	test   %al,%al
  410ed0:	0f 85 4f ff ff ff    	jne    410e25 <fts_children+0x1465>
  410ed6:	48 83 bd f0 fe ff ff 	cmpq   $0x0,-0x110(%rbp)
  410edd:	00 
  410ede:	0f 84 dc 03 00 00    	je     4112c0 <fts_children+0x1900>
  410ee4:	48 8b 85 f0 fe ff ff 	mov    -0x110(%rbp),%rax
  410eeb:	4c 8b 34 c3          	mov    (%rbx,%rax,8),%r14
  410eef:	4c 29 b5 f0 fe ff ff 	sub    %r14,-0x110(%rbp)
  410ef6:	4d 85 f6             	test   %r14,%r14
  410ef9:	0f 84 11 04 00 00    	je     411310 <fts_children+0x1950>
  410eff:	44 0f b6 bd 4c ff ff 	movzbl -0xb4(%rbp),%r15d
  410f06:	ff 
  410f07:	45 84 ff             	test   %r15b,%r15b
  410f0a:	74 33                	je     410f3f <fts_children+0x157f>
  410f0c:	44 0f b6 bd 60 ff ff 	movzbl -0xa0(%rbp),%r15d
  410f13:	ff 
  410f14:	45 84 ff             	test   %r15b,%r15b
  410f17:	0f 85 85 00 00 00    	jne    410fa2 <fts_children+0x15e2>
  410f1d:	48 8b 85 58 ff ff ff 	mov    -0xa8(%rbp),%rax
  410f24:	48 01 85 50 ff ff ff 	add    %rax,-0xb0(%rbp)
  410f2b:	49 83 ee 01          	sub    $0x1,%r14
  410f2f:	c6 85 4c ff ff ff 00 	movb   $0x0,-0xb4(%rbp)
  410f36:	0f 84 d4 03 00 00    	je     411310 <fts_children+0x1950>
  410f3c:	45 31 ff             	xor    %r15d,%r15d
  410f3f:	80 bd 40 ff ff ff 00 	cmpb   $0x0,-0xc0(%rbp)
  410f46:	0f 85 df 01 00 00    	jne    41112b <fts_children+0x176b>
  410f4c:	48 8b 95 50 ff ff ff 	mov    -0xb0(%rbp),%rdx
  410f53:	0f b6 02             	movzbl (%rdx),%eax
  410f56:	89 c1                	mov    %eax,%ecx
  410f58:	83 e0 1f             	and    $0x1f,%eax
  410f5b:	c0 e9 05             	shr    $0x5,%cl
  410f5e:	83 e1 07             	and    $0x7,%ecx
  410f61:	8b 0c 8d 80 57 41 00 	mov    0x415780(,%rcx,4),%ecx
  410f68:	0f a3 c1             	bt     %eax,%ecx
  410f6b:	0f 83 9f 01 00 00    	jae    411110 <fts_children+0x1750>
  410f71:	48 c7 85 58 ff ff ff 	movq   $0x1,-0xa8(%rbp)
  410f78:	01 00 00 00 
  410f7c:	0f be 02             	movsbl (%rdx),%eax
  410f7f:	41 bf 01 00 00 00    	mov    $0x1,%r15d
  410f85:	c6 85 60 ff ff ff 01 	movb   $0x1,-0xa0(%rbp)
  410f8c:	89 85 64 ff ff ff    	mov    %eax,-0x9c(%rbp)
  410f92:	45 84 ff             	test   %r15b,%r15b
  410f95:	c6 85 4c ff ff ff 01 	movb   $0x1,-0xb4(%rbp)
  410f9c:	0f 84 7b ff ff ff    	je     410f1d <fts_children+0x155d>
  410fa2:	8b bd 64 ff ff ff    	mov    -0x9c(%rbp),%edi
  410fa8:	85 ff                	test   %edi,%edi
  410faa:	0f 85 6d ff ff ff    	jne    410f1d <fts_children+0x155d>
  410fb0:	e8 4b 0f ff ff       	callq  401f00 <abort@plt>
  410fb5:	0f 1f 00             	nopl   (%rax)
  410fb8:	48 8b 30             	mov    (%rax),%rsi
  410fbb:	49 8b 7f 30          	mov    0x30(%r15),%rdi
  410fbf:	e8 dc 11 ff ff       	callq  4021a0 <memcmp@plt>
  410fc4:	85 c0                	test   %eax,%eax
  410fc6:	40 0f 94 c6          	sete   %sil
  410fca:	89 f0                	mov    %esi,%eax
  410fcc:	e9 62 fd ff ff       	jmpq   410d33 <fts_children+0x1373>
  410fd1:	48 8d 47 2e          	lea    0x2e(%rdi),%rax
  410fd5:	48 83 e0 f0          	and    $0xfffffffffffffff0,%rax
  410fd9:	48 29 c4             	sub    %rax,%rsp
  410fdc:	4c 8d 64 24 0f       	lea    0xf(%rsp),%r12
  410fe1:	49 83 e4 f0          	and    $0xfffffffffffffff0,%r12
  410fe5:	49 83 c4 10          	add    $0x10,%r12
  410fe9:	e9 19 fc ff ff       	jmpq   410c07 <fts_children+0x1247>
  410fee:	66 90                	xchg   %ax,%ax
  410ff0:	4c 89 ef             	mov    %r13,%rdi
  410ff3:	e8 98 14 ff ff       	callq  402490 <mbsinit@plt>
  410ff8:	85 c0                	test   %eax,%eax
  410ffa:	0f 84 6a 05 00 00    	je     41156a <fts_children+0x1baa>
  411000:	c6 85 00 ff ff ff 01 	movb   $0x1,-0x100(%rbp)
  411007:	e8 f4 0f ff ff       	callq  402000 <__ctype_get_mb_cur_max@plt>
  41100c:	4c 8b bd 10 ff ff ff 	mov    -0xf0(%rbp),%r15
  411013:	48 89 c6             	mov    %rax,%rsi
  411016:	4c 89 ff             	mov    %r15,%rdi
  411019:	e8 62 a7 ff ff       	callq  40b780 <__sprintf_chk@plt+0x9280>
  41101e:	48 8d 95 00 ff ff ff 	lea    -0x100(%rbp),%rdx
  411025:	4c 89 fe             	mov    %r15,%rsi
  411028:	48 8d 4a 04          	lea    0x4(%rdx),%rcx
  41102c:	48 8d 7a 24          	lea    0x24(%rdx),%rdi
  411030:	48 89 c2             	mov    %rax,%rdx
  411033:	e8 28 10 ff ff       	callq  402060 <mbrtowc@plt>
  411038:	48 83 f8 ff          	cmp    $0xffffffffffffffff,%rax
  41103c:	48 89 85 18 ff ff ff 	mov    %rax,-0xe8(%rbp)
  411043:	0f 84 07 03 00 00    	je     411350 <fts_children+0x1990>
  411049:	48 83 f8 fe          	cmp    $0xfffffffffffffffe,%rax
  41104d:	0f 84 b2 03 00 00    	je     411405 <fts_children+0x1a45>
  411053:	48 85 c0             	test   %rax,%rax
  411056:	75 2b                	jne    411083 <fts_children+0x16c3>
  411058:	48 8b 85 10 ff ff ff 	mov    -0xf0(%rbp),%rax
  41105f:	48 c7 85 18 ff ff ff 	movq   $0x1,-0xe8(%rbp)
  411066:	01 00 00 00 
  41106a:	80 38 00             	cmpb   $0x0,(%rax)
  41106d:	0f 85 2e 05 00 00    	jne    4115a1 <fts_children+0x1be1>
  411073:	44 8b 8d 24 ff ff ff 	mov    -0xdc(%rbp),%r9d
  41107a:	45 85 c9             	test   %r9d,%r9d
  41107d:	0f 85 00 05 00 00    	jne    411583 <fts_children+0x1bc3>
  411083:	48 8d 85 00 ff ff ff 	lea    -0x100(%rbp),%rax
  41108a:	c6 85 20 ff ff ff 01 	movb   $0x1,-0xe0(%rbp)
  411091:	48 8d 78 04          	lea    0x4(%rax),%rdi
  411095:	e8 f6 13 ff ff       	callq  402490 <mbsinit@plt>
  41109a:	85 c0                	test   %eax,%eax
  41109c:	0f 84 fb fb ff ff    	je     410c9d <fts_children+0x12dd>
  4110a2:	c6 85 00 ff ff ff 00 	movb   $0x0,-0x100(%rbp)
  4110a9:	e9 ef fb ff ff       	jmpq   410c9d <fts_children+0x12dd>
  4110ae:	66 90                	xchg   %ax,%ax
  4110b0:	b8 01 00 00 00       	mov    $0x1,%eax
  4110b5:	48 8d bd 00 ff ff ff 	lea    -0x100(%rbp),%rdi
  4110bc:	48 8b b5 10 ff ff ff 	mov    -0xf0(%rbp),%rsi
  4110c3:	48 8d 57 28          	lea    0x28(%rdi),%rdx
  4110c7:	48 39 d6             	cmp    %rdx,%rsi
  4110ca:	0f 84 16 03 00 00    	je     4113e6 <fts_children+0x1a26>
  4110d0:	49 89 76 e8          	mov    %rsi,-0x18(%r14)
  4110d4:	48 8b 95 18 ff ff ff 	mov    -0xe8(%rbp),%rdx
  4110db:	84 c0                	test   %al,%al
  4110dd:	41 88 46 f8          	mov    %al,-0x8(%r14)
  4110e1:	49 89 56 f0          	mov    %rdx,-0x10(%r14)
  4110e5:	74 0a                	je     4110f1 <fts_children+0x1731>
  4110e7:	8b 85 24 ff ff ff    	mov    -0xdc(%rbp),%eax
  4110ed:	41 89 46 fc          	mov    %eax,-0x4(%r14)
  4110f1:	48 8b 85 18 ff ff ff 	mov    -0xe8(%rbp),%rax
  4110f8:	c6 85 0c ff ff ff 00 	movb   $0x0,-0xf4(%rbp)
  4110ff:	49 83 c6 30          	add    $0x30,%r14
  411103:	48 01 85 10 ff ff ff 	add    %rax,-0xf0(%rbp)
  41110a:	e9 41 fb ff ff       	jmpq   410c50 <fts_children+0x1290>
  41110f:	90                   	nop
  411110:	48 8b bd f8 fe ff ff 	mov    -0x108(%rbp),%rdi
  411117:	e8 74 13 ff ff       	callq  402490 <mbsinit@plt>
  41111c:	85 c0                	test   %eax,%eax
  41111e:	0f 84 46 04 00 00    	je     41156a <fts_children+0x1baa>
  411124:	c6 85 40 ff ff ff 01 	movb   $0x1,-0xc0(%rbp)
  41112b:	e8 d0 0e ff ff       	callq  402000 <__ctype_get_mb_cur_max@plt>
  411130:	4c 8b ad 50 ff ff ff 	mov    -0xb0(%rbp),%r13
  411137:	48 89 c6             	mov    %rax,%rsi
  41113a:	4c 89 ef             	mov    %r13,%rdi
  41113d:	e8 3e a6 ff ff       	callq  40b780 <__sprintf_chk@plt+0x9280>
  411142:	48 8d b5 40 ff ff ff 	lea    -0xc0(%rbp),%rsi
  411149:	48 89 c2             	mov    %rax,%rdx
  41114c:	48 8d 4e 04          	lea    0x4(%rsi),%rcx
  411150:	48 8d 7e 24          	lea    0x24(%rsi),%rdi
  411154:	4c 89 ee             	mov    %r13,%rsi
  411157:	e8 04 0f ff ff       	callq  402060 <mbrtowc@plt>
  41115c:	48 83 f8 ff          	cmp    $0xffffffffffffffff,%rax
  411160:	48 89 85 58 ff ff ff 	mov    %rax,-0xa8(%rbp)
  411167:	74 6f                	je     4111d8 <fts_children+0x1818>
  411169:	48 83 f8 fe          	cmp    $0xfffffffffffffffe,%rax
  41116d:	0f 84 7d 00 00 00    	je     4111f0 <fts_children+0x1830>
  411173:	48 85 c0             	test   %rax,%rax
  411176:	75 2b                	jne    4111a3 <fts_children+0x17e3>
  411178:	48 8b 85 50 ff ff ff 	mov    -0xb0(%rbp),%rax
  41117f:	48 c7 85 58 ff ff ff 	movq   $0x1,-0xa8(%rbp)
  411186:	01 00 00 00 
  41118a:	80 38 00             	cmpb   $0x0,(%rax)
  41118d:	0f 85 0e 04 00 00    	jne    4115a1 <fts_children+0x1be1>
  411193:	44 8b 85 64 ff ff ff 	mov    -0x9c(%rbp),%r8d
  41119a:	45 85 c0             	test   %r8d,%r8d
  41119d:	0f 85 e0 03 00 00    	jne    411583 <fts_children+0x1bc3>
  4111a3:	48 8d 85 40 ff ff ff 	lea    -0xc0(%rbp),%rax
  4111aa:	c6 85 60 ff ff ff 01 	movb   $0x1,-0xa0(%rbp)
  4111b1:	41 bf 01 00 00 00    	mov    $0x1,%r15d
  4111b7:	48 8d 78 04          	lea    0x4(%rax),%rdi
  4111bb:	e8 d0 12 ff ff       	callq  402490 <mbsinit@plt>
  4111c0:	85 c0                	test   %eax,%eax
  4111c2:	0f 84 ca fd ff ff    	je     410f92 <fts_children+0x15d2>
  4111c8:	c6 85 40 ff ff ff 00 	movb   $0x0,-0xc0(%rbp)
  4111cf:	e9 be fd ff ff       	jmpq   410f92 <fts_children+0x15d2>
  4111d4:	0f 1f 40 00          	nopl   0x0(%rax)
  4111d8:	48 c7 85 58 ff ff ff 	movq   $0x1,-0xa8(%rbp)
  4111df:	01 00 00 00 
  4111e3:	c6 85 60 ff ff ff 00 	movb   $0x0,-0xa0(%rbp)
  4111ea:	e9 a3 fd ff ff       	jmpq   410f92 <fts_children+0x15d2>
  4111ef:	90                   	nop
  4111f0:	48 8b bd 50 ff ff ff 	mov    -0xb0(%rbp),%rdi
  4111f7:	e8 14 0e ff ff       	callq  402010 <strlen@plt>
  4111fc:	c6 85 60 ff ff ff 00 	movb   $0x0,-0xa0(%rbp)
  411203:	48 89 85 58 ff ff ff 	mov    %rax,-0xa8(%rbp)
  41120a:	e9 83 fd ff ff       	jmpq   410f92 <fts_children+0x15d2>
  41120f:	90                   	nop
  411210:	48 8b bd e0 fe ff ff 	mov    -0x120(%rbp),%rdi
  411217:	e8 74 12 ff ff       	callq  402490 <mbsinit@plt>
  41121c:	85 c0                	test   %eax,%eax
  41121e:	0f 84 46 03 00 00    	je     41156a <fts_children+0x1baa>
  411224:	c6 45 80 01          	movb   $0x1,-0x80(%rbp)
  411228:	e8 d3 0d ff ff       	callq  402000 <__ctype_get_mb_cur_max@plt>
  41122d:	4c 8b 75 90          	mov    -0x70(%rbp),%r14
  411231:	48 89 c6             	mov    %rax,%rsi
  411234:	4c 89 f7             	mov    %r14,%rdi
  411237:	e8 44 a5 ff ff       	callq  40b780 <__sprintf_chk@plt+0x9280>
  41123c:	48 8d 55 80          	lea    -0x80(%rbp),%rdx
  411240:	4c 89 f6             	mov    %r14,%rsi
  411243:	48 8d 4a 04          	lea    0x4(%rdx),%rcx
  411247:	48 8d 7a 24          	lea    0x24(%rdx),%rdi
  41124b:	48 89 c2             	mov    %rax,%rdx
  41124e:	e8 0d 0e ff ff       	callq  402060 <mbrtowc@plt>
  411253:	48 83 f8 ff          	cmp    $0xffffffffffffffff,%rax
  411257:	48 89 45 98          	mov    %rax,-0x68(%rbp)
  41125b:	0f 84 c3 01 00 00    	je     411424 <fts_children+0x1a64>
  411261:	48 83 f8 fe          	cmp    $0xfffffffffffffffe,%rax
  411265:	0f 84 90 02 00 00    	je     4114fb <fts_children+0x1b3b>
  41126b:	48 85 c0             	test   %rax,%rax
  41126e:	75 20                	jne    411290 <fts_children+0x18d0>
  411270:	48 8b 45 90          	mov    -0x70(%rbp),%rax
  411274:	48 c7 45 98 01 00 00 	movq   $0x1,-0x68(%rbp)
  41127b:	00 
  41127c:	80 38 00             	cmpb   $0x0,(%rax)
  41127f:	0f 85 1c 03 00 00    	jne    4115a1 <fts_children+0x1be1>
  411285:	8b 55 a4             	mov    -0x5c(%rbp),%edx
  411288:	85 d2                	test   %edx,%edx
  41128a:	0f 85 f3 02 00 00    	jne    411583 <fts_children+0x1bc3>
  411290:	48 8d 45 80          	lea    -0x80(%rbp),%rax
  411294:	c6 45 a0 01          	movb   $0x1,-0x60(%rbp)
  411298:	41 bf 01 00 00 00    	mov    $0x1,%r15d
  41129e:	48 8d 78 04          	lea    0x4(%rax),%rdi
  4112a2:	e8 e9 11 ff ff       	callq  402490 <mbsinit@plt>
  4112a7:	85 c0                	test   %eax,%eax
  4112a9:	0f 84 e5 fb ff ff    	je     410e94 <fts_children+0x14d4>
  4112af:	c6 45 80 00          	movb   $0x0,-0x80(%rbp)
  4112b3:	e9 dc fb ff ff       	jmpq   410e94 <fts_children+0x14d4>
  4112b8:	0f 1f 84 00 00 00 00 	nopl   0x0(%rax,%rax,1)
  4112bf:	00 
  4112c0:	44 0f b6 b5 4c ff ff 	movzbl -0xb4(%rbp),%r14d
  4112c7:	ff 
  4112c8:	45 84 f6             	test   %r14b,%r14b
  4112cb:	0f 84 9f 00 00 00    	je     411370 <fts_children+0x19b0>
  4112d1:	44 0f b6 b5 60 ff ff 	movzbl -0xa0(%rbp),%r14d
  4112d8:	ff 
  4112d9:	45 84 f6             	test   %r14b,%r14b
  4112dc:	0f 85 f1 00 00 00    	jne    4113d3 <fts_children+0x1a13>
  4112e2:	48 8b 85 58 ff ff ff 	mov    -0xa8(%rbp),%rax
  4112e9:	c6 85 4c ff ff ff 00 	movb   $0x0,-0xb4(%rbp)
  4112f0:	48 01 85 50 ff ff ff 	add    %rax,-0xb0(%rbp)
  4112f7:	c6 45 8c 00          	movb   $0x0,-0x74(%rbp)
  4112fb:	48 8b 45 98          	mov    -0x68(%rbp),%rax
  4112ff:	48 01 45 90          	add    %rax,-0x70(%rbp)
  411303:	e9 45 fb ff ff       	jmpq   410e4d <fts_children+0x148d>
  411308:	0f 1f 84 00 00 00 00 	nopl   0x0(%rax,%rax,1)
  41130f:	00 
  411310:	44 0f b6 7d 8c       	movzbl -0x74(%rbp),%r15d
  411315:	e9 ce fa ff ff       	jmpq   410de8 <fts_children+0x1428>
  41131a:	66 0f 1f 44 00 00    	nopw   0x0(%rax,%rax,1)
  411320:	48 8b 75 90          	mov    -0x70(%rbp),%rsi
  411324:	48 8b 39             	mov    (%rcx),%rdi
  411327:	e8 74 0e ff ff       	callq  4021a0 <memcmp@plt>
  41132c:	85 c0                	test   %eax,%eax
  41132e:	0f 94 c0             	sete   %al
  411331:	e9 e7 fa ff ff       	jmpq   410e1d <fts_children+0x145d>
  411336:	66 2e 0f 1f 84 00 00 	nopw   %cs:0x0(%rax,%rax,1)
  41133d:	00 00 00 
  411340:	48 8b 85 f8 fe ff ff 	mov    -0x108(%rbp),%rax
  411347:	48 89 04 c3          	mov    %rax,(%rbx,%rax,8)
  41134b:	e9 fc f9 ff ff       	jmpq   410d4c <fts_children+0x138c>
  411350:	48 c7 85 18 ff ff ff 	movq   $0x1,-0xe8(%rbp)
  411357:	01 00 00 00 
  41135b:	c6 85 20 ff ff ff 00 	movb   $0x0,-0xe0(%rbp)
  411362:	c6 85 0c ff ff ff 01 	movb   $0x1,-0xf4(%rbp)
  411369:	31 c0                	xor    %eax,%eax
  41136b:	e9 45 fd ff ff       	jmpq   4110b5 <fts_children+0x16f5>
  411370:	80 bd 40 ff ff ff 00 	cmpb   $0x0,-0xc0(%rbp)
  411377:	0f 85 d3 00 00 00    	jne    411450 <fts_children+0x1a90>
  41137d:	48 8b 95 50 ff ff ff 	mov    -0xb0(%rbp),%rdx
  411384:	0f b6 02             	movzbl (%rdx),%eax
  411387:	89 c1                	mov    %eax,%ecx
  411389:	83 e0 1f             	and    $0x1f,%eax
  41138c:	c0 e9 05             	shr    $0x5,%cl
  41138f:	83 e1 07             	and    $0x7,%ecx
  411392:	8b 0c 8d 80 57 41 00 	mov    0x415780(,%rcx,4),%ecx
  411399:	0f a3 c1             	bt     %eax,%ecx
  41139c:	0f 83 93 00 00 00    	jae    411435 <fts_children+0x1a75>
  4113a2:	48 c7 85 58 ff ff ff 	movq   $0x1,-0xa8(%rbp)
  4113a9:	01 00 00 00 
  4113ad:	0f be 02             	movsbl (%rdx),%eax
  4113b0:	41 be 01 00 00 00    	mov    $0x1,%r14d
  4113b6:	c6 85 60 ff ff ff 01 	movb   $0x1,-0xa0(%rbp)
  4113bd:	89 85 64 ff ff ff    	mov    %eax,-0x9c(%rbp)
  4113c3:	45 84 f6             	test   %r14b,%r14b
  4113c6:	c6 85 4c ff ff ff 01 	movb   $0x1,-0xb4(%rbp)
  4113cd:	0f 84 0f ff ff ff    	je     4112e2 <fts_children+0x1922>
  4113d3:	8b 8d 64 ff ff ff    	mov    -0x9c(%rbp),%ecx
  4113d9:	85 c9                	test   %ecx,%ecx
  4113db:	0f 85 01 ff ff ff    	jne    4112e2 <fts_children+0x1922>
  4113e1:	e9 ca fb ff ff       	jmpq   410fb0 <fts_children+0x15f0>
  4113e6:	48 8b 95 18 ff ff ff 	mov    -0xe8(%rbp),%rdx
  4113ed:	4c 89 f7             	mov    %r14,%rdi
  4113f0:	e8 3b 0e ff ff       	callq  402230 <memcpy@plt>
  4113f5:	4d 89 76 e8          	mov    %r14,-0x18(%r14)
  4113f9:	0f b6 85 20 ff ff ff 	movzbl -0xe0(%rbp),%eax
  411400:	e9 cf fc ff ff       	jmpq   4110d4 <fts_children+0x1714>
  411405:	48 8b bd 10 ff ff ff 	mov    -0xf0(%rbp),%rdi
  41140c:	e8 ff 0b ff ff       	callq  402010 <strlen@plt>
  411411:	c6 85 20 ff ff ff 00 	movb   $0x0,-0xe0(%rbp)
  411418:	48 89 85 18 ff ff ff 	mov    %rax,-0xe8(%rbp)
  41141f:	e9 3e ff ff ff       	jmpq   411362 <fts_children+0x19a2>
  411424:	48 c7 45 98 01 00 00 	movq   $0x1,-0x68(%rbp)
  41142b:	00 
  41142c:	c6 45 a0 00          	movb   $0x0,-0x60(%rbp)
  411430:	e9 5f fa ff ff       	jmpq   410e94 <fts_children+0x14d4>
  411435:	48 8b bd f8 fe ff ff 	mov    -0x108(%rbp),%rdi
  41143c:	e8 4f 10 ff ff       	callq  402490 <mbsinit@plt>
  411441:	85 c0                	test   %eax,%eax
  411443:	0f 84 21 01 00 00    	je     41156a <fts_children+0x1baa>
  411449:	c6 85 40 ff ff ff 01 	movb   $0x1,-0xc0(%rbp)
  411450:	e8 ab 0b ff ff       	callq  402000 <__ctype_get_mb_cur_max@plt>
  411455:	4c 8b bd 50 ff ff ff 	mov    -0xb0(%rbp),%r15
  41145c:	48 89 c6             	mov    %rax,%rsi
  41145f:	4c 89 ff             	mov    %r15,%rdi
  411462:	e8 19 a3 ff ff       	callq  40b780 <__sprintf_chk@plt+0x9280>
  411467:	48 8d bd 40 ff ff ff 	lea    -0xc0(%rbp),%rdi
  41146e:	48 89 c2             	mov    %rax,%rdx
  411471:	4c 89 fe             	mov    %r15,%rsi
  411474:	48 8d 4f 04          	lea    0x4(%rdi),%rcx
  411478:	48 83 c7 24          	add    $0x24,%rdi
  41147c:	e8 df 0b ff ff       	callq  402060 <mbrtowc@plt>
  411481:	48 83 f8 ff          	cmp    $0xffffffffffffffff,%rax
  411485:	48 89 85 58 ff ff ff 	mov    %rax,-0xa8(%rbp)
  41148c:	0f 84 a2 00 00 00    	je     411534 <fts_children+0x1b74>
  411492:	48 83 f8 fe          	cmp    $0xfffffffffffffffe,%rax
  411496:	0f 84 af 00 00 00    	je     41154b <fts_children+0x1b8b>
  41149c:	48 85 c0             	test   %rax,%rax
  41149f:	75 29                	jne    4114ca <fts_children+0x1b0a>
  4114a1:	48 8b 85 50 ff ff ff 	mov    -0xb0(%rbp),%rax
  4114a8:	48 c7 85 58 ff ff ff 	movq   $0x1,-0xa8(%rbp)
  4114af:	01 00 00 00 
  4114b3:	80 38 00             	cmpb   $0x0,(%rax)
  4114b6:	0f 85 e5 00 00 00    	jne    4115a1 <fts_children+0x1be1>
  4114bc:	8b b5 64 ff ff ff    	mov    -0x9c(%rbp),%esi
  4114c2:	85 f6                	test   %esi,%esi
  4114c4:	0f 85 b9 00 00 00    	jne    411583 <fts_children+0x1bc3>
  4114ca:	48 8d 85 40 ff ff ff 	lea    -0xc0(%rbp),%rax
  4114d1:	c6 85 60 ff ff ff 01 	movb   $0x1,-0xa0(%rbp)
  4114d8:	41 be 01 00 00 00    	mov    $0x1,%r14d
  4114de:	48 8d 78 04          	lea    0x4(%rax),%rdi
  4114e2:	e8 a9 0f ff ff       	callq  402490 <mbsinit@plt>
  4114e7:	85 c0                	test   %eax,%eax
  4114e9:	0f 84 d4 fe ff ff    	je     4113c3 <fts_children+0x1a03>
  4114ef:	c6 85 40 ff ff ff 00 	movb   $0x0,-0xc0(%rbp)
  4114f6:	e9 c8 fe ff ff       	jmpq   4113c3 <fts_children+0x1a03>
  4114fb:	48 8b 7d 90          	mov    -0x70(%rbp),%rdi
  4114ff:	e8 0c 0b ff ff       	callq  402010 <strlen@plt>
  411504:	c6 45 a0 00          	movb   $0x0,-0x60(%rbp)
  411508:	48 89 45 98          	mov    %rax,-0x68(%rbp)
  41150c:	e9 83 f9 ff ff       	jmpq   410e94 <fts_children+0x14d4>
  411511:	48 8b 85 50 ff ff ff 	mov    -0xb0(%rbp),%rax
  411518:	48 8b 9d d8 fe ff ff 	mov    -0x128(%rbp),%rbx
  41151f:	48 89 03             	mov    %rax,(%rbx)
  411522:	4c 89 e7             	mov    %r12,%rdi
  411525:	e8 36 18 00 00       	callq  412d60 <fts_children+0x33a0>
  41152a:	b8 01 00 00 00       	mov    $0x1,%eax
  41152f:	e9 83 f6 ff ff       	jmpq   410bb7 <fts_children+0x11f7>
  411534:	48 c7 85 58 ff ff ff 	movq   $0x1,-0xa8(%rbp)
  41153b:	01 00 00 00 
  41153f:	c6 85 60 ff ff ff 00 	movb   $0x0,-0xa0(%rbp)
  411546:	e9 78 fe ff ff       	jmpq   4113c3 <fts_children+0x1a03>
  41154b:	48 8b bd 50 ff ff ff 	mov    -0xb0(%rbp),%rdi
  411552:	e8 b9 0a ff ff       	callq  402010 <strlen@plt>
  411557:	c6 85 60 ff ff ff 00 	movb   $0x0,-0xa0(%rbp)
  41155e:	48 89 85 58 ff ff ff 	mov    %rax,-0xa8(%rbp)
  411565:	e9 59 fe ff ff       	jmpq   4113c3 <fts_children+0x1a03>
  41156a:	b9 f0 67 41 00       	mov    $0x4167f0,%ecx
  41156f:	ba 93 00 00 00       	mov    $0x93,%edx
  411574:	be f2 51 41 00       	mov    $0x4151f2,%esi
  411579:	bf 00 52 41 00       	mov    $0x415200,%edi
  41157e:	e8 4d 0b ff ff       	callq  4020d0 <__assert_fail@plt>
  411583:	b9 f0 67 41 00       	mov    $0x4167f0,%ecx
  411588:	ba b0 00 00 00       	mov    $0xb0,%edx
  41158d:	be f2 51 41 00       	mov    $0x4151f2,%esi
  411592:	bf 2e 52 41 00       	mov    $0x41522e,%edi
  411597:	e8 34 0b ff ff       	callq  4020d0 <__assert_fail@plt>
  41159c:	e8 9f 0a ff ff       	callq  402040 <__stack_chk_fail@plt>
  4115a1:	b9 f0 67 41 00       	mov    $0x4167f0,%ecx
  4115a6:	ba af 00 00 00       	mov    $0xaf,%edx
  4115ab:	be f2 51 41 00       	mov    $0x4151f2,%esi
  4115b0:	bf 17 52 41 00       	mov    $0x415217,%edi
  4115b5:	e8 16 0b ff ff       	callq  4020d0 <__assert_fail@plt>
  4115ba:	66 0f 1f 44 00 00    	nopw   0x0(%rax,%rax,1)
  4115c0:	41 57                	push   %r15
  4115c2:	41 56                	push   %r14
  4115c4:	41 55                	push   %r13
  4115c6:	41 54                	push   %r12
  4115c8:	49 89 fc             	mov    %rdi,%r12
  4115cb:	55                   	push   %rbp
  4115cc:	48 89 f5             	mov    %rsi,%rbp
  4115cf:	53                   	push   %rbx
  4115d0:	48 81 ec a8 01 00 00 	sub    $0x1a8,%rsp
  4115d7:	64 48 8b 04 25 28 00 	mov    %fs:0x28,%rax
  4115de:	00 00 
  4115e0:	48 89 84 24 98 01 00 	mov    %rax,0x198(%rsp)
  4115e7:	00 
  4115e8:	31 c0                	xor    %eax,%eax
  4115ea:	e8 11 0a ff ff       	callq  402000 <__ctype_get_mb_cur_max@plt>
  4115ef:	48 83 f8 01          	cmp    $0x1,%rax
  4115f3:	0f 86 3f 05 00 00    	jbe    411b38 <fts_children+0x2178>
  4115f9:	0f be 45 00          	movsbl 0x0(%rbp),%eax
  4115fd:	48 89 6c 24 60       	mov    %rbp,0x60(%rsp)
  411602:	48 8d 5c 24 54       	lea    0x54(%rsp),%rbx
  411607:	c6 44 24 50 00       	movb   $0x0,0x50(%rsp)
  41160c:	48 c7 44 24 54 00 00 	movq   $0x0,0x54(%rsp)
  411613:	00 00 
  411615:	c6 44 24 5c 00       	movb   $0x0,0x5c(%rsp)
  41161a:	89 c6                	mov    %eax,%esi
  41161c:	89 c2                	mov    %eax,%edx
  41161e:	40 c0 ee 05          	shr    $0x5,%sil
  411622:	83 e2 1f             	and    $0x1f,%edx
  411625:	83 e6 07             	and    $0x7,%esi
  411628:	8b 34 b5 80 57 41 00 	mov    0x415780(,%rsi,4),%esi
  41162f:	0f a3 d6             	bt     %edx,%esi
  411632:	0f 83 68 03 00 00    	jae    4119a0 <fts_children+0x1fe0>
  411638:	48 c7 44 24 68 01 00 	movq   $0x1,0x68(%rsp)
  41163f:	00 00 
  411641:	89 44 24 74          	mov    %eax,0x74(%rsp)
  411645:	c6 44 24 70 01       	movb   $0x1,0x70(%rsp)
  41164a:	8b 74 24 74          	mov    0x74(%rsp),%esi
  41164e:	c6 44 24 5c 01       	movb   $0x1,0x5c(%rsp)
  411653:	4c 89 e0             	mov    %r12,%rax
  411656:	85 f6                	test   %esi,%esi
  411658:	0f 84 aa 04 00 00    	je     411b08 <fts_children+0x2148>
  41165e:	31 db                	xor    %ebx,%ebx
  411660:	48 8d 84 24 d4 00 00 	lea    0xd4(%rsp),%rax
  411667:	00 
  411668:	c6 84 24 d0 00 00 00 	movb   $0x0,0xd0(%rsp)
  41166f:	00 
  411670:	45 31 ed             	xor    %r13d,%r13d
  411673:	80 bc 24 d0 00 00 00 	cmpb   $0x0,0xd0(%rsp)
  41167a:	00 
  41167b:	4c 89 a4 24 e0 00 00 	mov    %r12,0xe0(%rsp)
  411682:	00 
  411683:	48 89 44 24 30       	mov    %rax,0x30(%rsp)
  411688:	48 8d 84 24 94 00 00 	lea    0x94(%rsp),%rax
  41168f:	00 
  411690:	4c 89 64 24 38       	mov    %r12,0x38(%rsp)
  411695:	48 89 ac 24 a0 00 00 	mov    %rbp,0xa0(%rsp)
  41169c:	00 
  41169d:	c6 84 24 90 00 00 00 	movb   $0x0,0x90(%rsp)
  4116a4:	00 
  4116a5:	49 89 dc             	mov    %rbx,%r12
  4116a8:	48 c7 84 24 94 00 00 	movq   $0x0,0x94(%rsp)
  4116af:	00 00 00 00 00 
  4116b4:	c6 84 24 9c 00 00 00 	movb   $0x0,0x9c(%rsp)
  4116bb:	00 
  4116bc:	48 c7 84 24 d4 00 00 	movq   $0x0,0xd4(%rsp)
  4116c3:	00 00 00 00 00 
  4116c8:	c6 84 24 dc 00 00 00 	movb   $0x0,0xdc(%rsp)
  4116cf:	00 
  4116d0:	48 c7 44 24 20 00 00 	movq   $0x0,0x20(%rsp)
  4116d7:	00 00 
  4116d9:	c6 44 24 08 01       	movb   $0x1,0x8(%rsp)
  4116de:	48 89 44 24 10       	mov    %rax,0x10(%rsp)
  4116e3:	48 89 6c 24 28       	mov    %rbp,0x28(%rsp)
  4116e8:	0f 85 04 02 00 00    	jne    4118f2 <fts_children+0x1f32>
  4116ee:	48 8b 94 24 e0 00 00 	mov    0xe0(%rsp),%rdx
  4116f5:	00 
  4116f6:	0f b6 02             	movzbl (%rdx),%eax
  4116f9:	89 c1                	mov    %eax,%ecx
  4116fb:	83 e0 1f             	and    $0x1f,%eax
  4116fe:	c0 e9 05             	shr    $0x5,%cl
  411701:	83 e1 07             	and    $0x7,%ecx
  411704:	8b 0c 8d 80 57 41 00 	mov    0x415780(,%rcx,4),%ecx
  41170b:	0f a3 c1             	bt     %eax,%ecx
  41170e:	0f 83 7c 05 00 00    	jae    411c90 <fts_children+0x22d0>
  411714:	48 c7 84 24 e8 00 00 	movq   $0x1,0xe8(%rsp)
  41171b:	00 01 00 00 00 
  411720:	0f be 02             	movsbl (%rdx),%eax
  411723:	c6 84 24 f0 00 00 00 	movb   $0x1,0xf0(%rsp)
  41172a:	01 
  41172b:	89 84 24 f4 00 00 00 	mov    %eax,0xf4(%rsp)
  411732:	8b 8c 24 f4 00 00 00 	mov    0xf4(%rsp),%ecx
  411739:	c6 84 24 dc 00 00 00 	movb   $0x1,0xdc(%rsp)
  411740:	01 
  411741:	85 c9                	test   %ecx,%ecx
  411743:	0f 84 37 05 00 00    	je     411c80 <fts_children+0x22c0>
  411749:	b8 01 00 00 00       	mov    $0x1,%eax
  41174e:	49 83 fc 09          	cmp    $0x9,%r12
  411752:	0f 97 c3             	seta   %bl
  411755:	22 5c 24 08          	and    0x8(%rsp),%bl
  411759:	0f 84 39 01 00 00    	je     411898 <fts_children+0x1ed8>
  41175f:	4b 8d 14 a4          	lea    (%r12,%r12,4),%rdx
  411763:	49 39 d5             	cmp    %rdx,%r13
  411766:	0f 82 54 0b 00 00    	jb     4122c0 <fts_children+0x2900>
  41176c:	4d 89 ef             	mov    %r13,%r15
  41176f:	4c 2b 7c 24 20       	sub    0x20(%rsp),%r15
  411774:	0f 84 ba 00 00 00    	je     411834 <fts_children+0x1e74>
  41177a:	44 0f b6 b4 24 9c 00 	movzbl 0x9c(%rsp),%r14d
  411781:	00 00 
  411783:	45 84 f6             	test   %r14b,%r14b
  411786:	74 37                	je     4117bf <fts_children+0x1dff>
  411788:	44 0f b6 b4 24 b0 00 	movzbl 0xb0(%rsp),%r14d
  41178f:	00 00 
  411791:	45 84 f6             	test   %r14b,%r14b
  411794:	0f 85 8b 00 00 00    	jne    411825 <fts_children+0x1e65>
  41179a:	48 8b 84 24 a8 00 00 	mov    0xa8(%rsp),%rax
  4117a1:	00 
  4117a2:	48 01 84 24 a0 00 00 	add    %rax,0xa0(%rsp)
  4117a9:	00 
  4117aa:	49 83 ef 01          	sub    $0x1,%r15
  4117ae:	c6 84 24 9c 00 00 00 	movb   $0x0,0x9c(%rsp)
  4117b5:	00 
  4117b6:	0f 84 24 0c 00 00    	je     4123e0 <fts_children+0x2a20>
  4117bc:	45 31 f6             	xor    %r14d,%r14d
  4117bf:	80 bc 24 90 00 00 00 	cmpb   $0x0,0x90(%rsp)
  4117c6:	00 
  4117c7:	0f 85 4d 05 00 00    	jne    411d1a <fts_children+0x235a>
  4117cd:	48 8b 94 24 a0 00 00 	mov    0xa0(%rsp),%rdx
  4117d4:	00 
  4117d5:	0f b6 02             	movzbl (%rdx),%eax
  4117d8:	89 c1                	mov    %eax,%ecx
  4117da:	83 e0 1f             	and    $0x1f,%eax
  4117dd:	c0 e9 05             	shr    $0x5,%cl
  4117e0:	83 e1 07             	and    $0x7,%ecx
  4117e3:	8b 0c 8d 80 57 41 00 	mov    0x415780(,%rcx,4),%ecx
  4117ea:	0f a3 c1             	bt     %eax,%ecx
  4117ed:	0f 83 0d 05 00 00    	jae    411d00 <fts_children+0x2340>
  4117f3:	48 c7 84 24 a8 00 00 	movq   $0x1,0xa8(%rsp)
  4117fa:	00 01 00 00 00 
  4117ff:	0f be 02             	movsbl (%rdx),%eax
  411802:	41 89 de             	mov    %ebx,%r14d
  411805:	c6 84 24 b0 00 00 00 	movb   $0x1,0xb0(%rsp)
  41180c:	01 
  41180d:	89 84 24 b4 00 00 00 	mov    %eax,0xb4(%rsp)
  411814:	45 84 f6             	test   %r14b,%r14b
  411817:	c6 84 24 9c 00 00 00 	movb   $0x1,0x9c(%rsp)
  41181e:	01 
  41181f:	0f 84 75 ff ff ff    	je     41179a <fts_children+0x1dda>
  411825:	8b ac 24 b4 00 00 00 	mov    0xb4(%rsp),%ebp
  41182c:	85 ed                	test   %ebp,%ebp
  41182e:	0f 85 66 ff ff ff    	jne    41179a <fts_children+0x1dda>
  411834:	80 bc 24 9c 00 00 00 	cmpb   $0x0,0x9c(%rsp)
  41183b:	00 
  41183c:	0f 84 9e 0b 00 00    	je     4123e0 <fts_children+0x2a20>
  411842:	0f b6 9c 24 b0 00 00 	movzbl 0xb0(%rsp),%ebx
  411849:	00 
  41184a:	84 db                	test   %bl,%bl
  41184c:	0f 84 7e 0a 00 00    	je     4122d0 <fts_children+0x2910>
  411852:	44 8b 94 24 b4 00 00 	mov    0xb4(%rsp),%r10d
  411859:	00 
  41185a:	45 85 d2             	test   %r10d,%r10d
  41185d:	0f 85 6d 0a 00 00    	jne    4122d0 <fts_children+0x2910>
  411863:	48 8b 74 24 28       	mov    0x28(%rsp),%rsi
  411868:	48 8b 7c 24 38       	mov    0x38(%rsp),%rdi
  41186d:	48 8d 54 24 48       	lea    0x48(%rsp),%rdx
  411872:	e8 e9 f2 ff ff       	callq  410b60 <fts_children+0x11a0>
  411877:	84 c0                	test   %al,%al
  411879:	0f 85 2f 0d 00 00    	jne    4125ae <fts_children+0x2bee>
  41187f:	0f b6 84 24 f0 00 00 	movzbl 0xf0(%rsp),%eax
  411886:	00 
  411887:	4c 89 6c 24 20       	mov    %r13,0x20(%rsp)
  41188c:	c6 44 24 08 00       	movb   $0x0,0x8(%rsp)
  411891:	0f 1f 80 00 00 00 00 	nopl   0x0(%rax)
  411898:	49 83 c4 01          	add    $0x1,%r12
  41189c:	84 c0                	test   %al,%al
  41189e:	49 8d 5d 01          	lea    0x1(%r13),%rbx
  4118a2:	0f 84 28 05 00 00    	je     411dd0 <fts_children+0x2410>
  4118a8:	80 7c 24 70 00       	cmpb   $0x0,0x70(%rsp)
  4118ad:	0f 84 1d 05 00 00    	je     411dd0 <fts_children+0x2410>
  4118b3:	8b 44 24 74          	mov    0x74(%rsp),%eax
  4118b7:	39 84 24 f4 00 00 00 	cmp    %eax,0xf4(%rsp)
  4118be:	0f 94 c0             	sete   %al
  4118c1:	84 c0                	test   %al,%al
  4118c3:	0f 85 3b 05 00 00    	jne    411e04 <fts_children+0x2444>
  4118c9:	48 8b 84 24 e8 00 00 	mov    0xe8(%rsp),%rax
  4118d0:	00 
  4118d1:	48 01 84 24 e0 00 00 	add    %rax,0xe0(%rsp)
  4118d8:	00 
  4118d9:	49 89 dd             	mov    %rbx,%r13
  4118dc:	80 bc 24 d0 00 00 00 	cmpb   $0x0,0xd0(%rsp)
  4118e3:	00 
  4118e4:	c6 84 24 dc 00 00 00 	movb   $0x0,0xdc(%rsp)
  4118eb:	00 
  4118ec:	0f 84 fc fd ff ff    	je     4116ee <fts_children+0x1d2e>
  4118f2:	e8 09 07 ff ff       	callq  402000 <__ctype_get_mb_cur_max@plt>
  4118f7:	48 8b 9c 24 e0 00 00 	mov    0xe0(%rsp),%rbx
  4118fe:	00 
  4118ff:	48 89 c6             	mov    %rax,%rsi
  411902:	48 89 df             	mov    %rbx,%rdi
  411905:	e8 76 9e ff ff       	callq  40b780 <__sprintf_chk@plt+0x9280>
  41190a:	48 8d 8c 24 d4 00 00 	lea    0xd4(%rsp),%rcx
  411911:	00 
  411912:	48 8d bc 24 f4 00 00 	lea    0xf4(%rsp),%rdi
  411919:	00 
  41191a:	48 89 c2             	mov    %rax,%rdx
  41191d:	48 89 de             	mov    %rbx,%rsi
  411920:	e8 3b 07 ff ff       	callq  402060 <mbrtowc@plt>
  411925:	48 83 f8 ff          	cmp    $0xffffffffffffffff,%rax
  411929:	48 89 84 24 e8 00 00 	mov    %rax,0xe8(%rsp)
  411930:	00 
  411931:	0f 84 09 0b 00 00    	je     412440 <fts_children+0x2a80>
  411937:	48 83 f8 fe          	cmp    $0xfffffffffffffffe,%rax
  41193b:	0f 84 8f 03 00 00    	je     411cd0 <fts_children+0x2310>
  411941:	48 85 c0             	test   %rax,%rax
  411944:	75 2e                	jne    411974 <fts_children+0x1fb4>
  411946:	48 8b 84 24 e0 00 00 	mov    0xe0(%rsp),%rax
  41194d:	00 
  41194e:	48 c7 84 24 e8 00 00 	movq   $0x1,0xe8(%rsp)
  411955:	00 01 00 00 00 
  41195a:	80 38 00             	cmpb   $0x0,(%rax)
  41195d:	0f 85 5a 0c 00 00    	jne    4125bd <fts_children+0x2bfd>
  411963:	44 8b bc 24 f4 00 00 	mov    0xf4(%rsp),%r15d
  41196a:	00 
  41196b:	45 85 ff             	test   %r15d,%r15d
  41196e:	0f 85 0d 0a 00 00    	jne    412381 <fts_children+0x29c1>
  411974:	48 8d bc 24 d4 00 00 	lea    0xd4(%rsp),%rdi
  41197b:	00 
  41197c:	c6 84 24 f0 00 00 00 	movb   $0x1,0xf0(%rsp)
  411983:	01 
  411984:	e8 07 0b ff ff       	callq  402490 <mbsinit@plt>
  411989:	85 c0                	test   %eax,%eax
  41198b:	0f 84 a1 fd ff ff    	je     411732 <fts_children+0x1d72>
  411991:	c6 84 24 d0 00 00 00 	movb   $0x0,0xd0(%rsp)
  411998:	00 
  411999:	e9 94 fd ff ff       	jmpq   411732 <fts_children+0x1d72>
  41199e:	66 90                	xchg   %ax,%ax
  4119a0:	48 89 df             	mov    %rbx,%rdi
  4119a3:	e8 e8 0a ff ff       	callq  402490 <mbsinit@plt>
  4119a8:	85 c0                	test   %eax,%eax
  4119aa:	0f 84 e5 0b 00 00    	je     412595 <fts_children+0x2bd5>
  4119b0:	c6 44 24 50 01       	movb   $0x1,0x50(%rsp)
  4119b5:	e8 46 06 ff ff       	callq  402000 <__ctype_get_mb_cur_max@plt>
  4119ba:	4c 8b 6c 24 60       	mov    0x60(%rsp),%r13
  4119bf:	48 89 c6             	mov    %rax,%rsi
  4119c2:	4c 89 ef             	mov    %r13,%rdi
  4119c5:	e8 b6 9d ff ff       	callq  40b780 <__sprintf_chk@plt+0x9280>
  4119ca:	48 8d 7c 24 74       	lea    0x74(%rsp),%rdi
  4119cf:	48 89 d9             	mov    %rbx,%rcx
  4119d2:	48 89 c2             	mov    %rax,%rdx
  4119d5:	4c 89 ee             	mov    %r13,%rsi
  4119d8:	e8 83 06 ff ff       	callq  402060 <mbrtowc@plt>
  4119dd:	48 83 f8 ff          	cmp    $0xffffffffffffffff,%rax
  4119e1:	48 89 44 24 68       	mov    %rax,0x68(%rsp)
  4119e6:	0f 84 c4 02 00 00    	je     411cb0 <fts_children+0x22f0>
  4119ec:	48 83 f8 fe          	cmp    $0xfffffffffffffffe,%rax
  4119f0:	0f 84 25 0b 00 00    	je     41251b <fts_children+0x2b5b>
  4119f6:	48 85 c0             	test   %rax,%rax
  4119f9:	75 23                	jne    411a1e <fts_children+0x205e>
  4119fb:	48 8b 44 24 60       	mov    0x60(%rsp),%rax
  411a00:	48 c7 44 24 68 01 00 	movq   $0x1,0x68(%rsp)
  411a07:	00 00 
  411a09:	80 38 00             	cmpb   $0x0,(%rax)
  411a0c:	0f 85 ab 0b 00 00    	jne    4125bd <fts_children+0x2bfd>
  411a12:	8b 44 24 74          	mov    0x74(%rsp),%eax
  411a16:	85 c0                	test   %eax,%eax
  411a18:	0f 85 63 09 00 00    	jne    412381 <fts_children+0x29c1>
  411a1e:	48 8d 7c 24 54       	lea    0x54(%rsp),%rdi
  411a23:	c6 44 24 70 01       	movb   $0x1,0x70(%rsp)
  411a28:	e8 63 0a ff ff       	callq  402490 <mbsinit@plt>
  411a2d:	85 c0                	test   %eax,%eax
  411a2f:	0f 84 15 fc ff ff    	je     41164a <fts_children+0x1c8a>
  411a35:	c6 44 24 50 00       	movb   $0x0,0x50(%rsp)
  411a3a:	e9 0b fc ff ff       	jmpq   41164a <fts_children+0x1c8a>
  411a3f:	48 c7 84 24 68 01 00 	movq   $0x1,0x168(%rsp)
  411a46:	00 01 00 00 00 
  411a4b:	c6 84 24 70 01 00 00 	movb   $0x0,0x170(%rsp)
  411a52:	00 
  411a53:	48 8b 84 24 68 01 00 	mov    0x168(%rsp),%rax
  411a5a:	00 
  411a5b:	48 01 84 24 60 01 00 	add    %rax,0x160(%rsp)
  411a62:	00 
  411a63:	48 8d 84 24 14 01 00 	lea    0x114(%rsp),%rax
  411a6a:	00 
  411a6b:	80 bc 24 50 01 00 00 	cmpb   $0x0,0x150(%rsp)
  411a72:	00 
  411a73:	49 8d 5d 02          	lea    0x2(%r13),%rbx
  411a77:	c6 84 24 5c 01 00 00 	movb   $0x0,0x15c(%rsp)
  411a7e:	00 
  411a7f:	4c 8d ac 24 54 01 00 	lea    0x154(%rsp),%r13
  411a86:	00 
  411a87:	4c 8d b4 24 74 01 00 	lea    0x174(%rsp),%r14
  411a8e:	00 
  411a8f:	48 89 44 24 18       	mov    %rax,0x18(%rsp)
  411a94:	0f 85 74 05 00 00    	jne    41200e <fts_children+0x264e>
  411a9a:	66 0f 1f 44 00 00    	nopw   0x0(%rax,%rax,1)
  411aa0:	48 8b 94 24 60 01 00 	mov    0x160(%rsp),%rdx
  411aa7:	00 
  411aa8:	0f b6 02             	movzbl (%rdx),%eax
  411aab:	89 c1                	mov    %eax,%ecx
  411aad:	83 e0 1f             	and    $0x1f,%eax
  411ab0:	c0 e9 05             	shr    $0x5,%cl
  411ab3:	83 e1 07             	and    $0x7,%ecx
  411ab6:	8b 0c 8d 80 57 41 00 	mov    0x415780(,%rcx,4),%ecx
  411abd:	0f a3 c1             	bt     %eax,%ecx
  411ac0:	0f 83 6a 07 00 00    	jae    412230 <fts_children+0x2870>
  411ac6:	48 c7 84 24 68 01 00 	movq   $0x1,0x168(%rsp)
  411acd:	00 01 00 00 00 
  411ad2:	0f be 02             	movsbl (%rdx),%eax
  411ad5:	c6 84 24 70 01 00 00 	movb   $0x1,0x170(%rsp)
  411adc:	01 
  411add:	89 84 24 74 01 00 00 	mov    %eax,0x174(%rsp)
  411ae4:	8b 84 24 74 01 00 00 	mov    0x174(%rsp),%eax
  411aeb:	c6 84 24 5c 01 00 00 	movb   $0x1,0x15c(%rsp)
  411af2:	01 
  411af3:	85 c0                	test   %eax,%eax
  411af5:	0f 85 89 04 00 00    	jne    411f84 <fts_children+0x25c4>
  411afb:	48 8b 84 24 e0 00 00 	mov    0xe0(%rsp),%rax
  411b02:	00 
  411b03:	0f 1f 44 00 00       	nopl   0x0(%rax,%rax,1)
  411b08:	48 8b 9c 24 98 01 00 	mov    0x198(%rsp),%rbx
  411b0f:	00 
  411b10:	64 48 33 1c 25 28 00 	xor    %fs:0x28,%rbx
  411b17:	00 00 
  411b19:	0f 85 99 0a 00 00    	jne    4125b8 <fts_children+0x2bf8>
  411b1f:	48 81 c4 a8 01 00 00 	add    $0x1a8,%rsp
  411b26:	5b                   	pop    %rbx
  411b27:	5d                   	pop    %rbp
  411b28:	41 5c                	pop    %r12
  411b2a:	41 5d                	pop    %r13
  411b2c:	41 5e                	pop    %r14
  411b2e:	41 5f                	pop    %r15
  411b30:	c3                   	retq   
  411b31:	0f 1f 80 00 00 00 00 	nopl   0x0(%rax)
  411b38:	44 0f b6 75 00       	movzbl 0x0(%rbp),%r14d
  411b3d:	4c 89 e0             	mov    %r12,%rax
  411b40:	45 84 f6             	test   %r14b,%r14b
  411b43:	74 c3                	je     411b08 <fts_children+0x2148>
  411b45:	41 0f b6 14 24       	movzbl (%r12),%edx
  411b4a:	84 d2                	test   %dl,%dl
  411b4c:	0f 84 2e 01 00 00    	je     411c80 <fts_children+0x22c0>
  411b52:	31 db                	xor    %ebx,%ebx
  411b54:	45 31 db             	xor    %r11d,%r11d
  411b57:	45 31 ff             	xor    %r15d,%r15d
  411b5a:	49 8d 04 1c          	lea    (%r12,%rbx,1),%rax
  411b5e:	48 83 c3 01          	add    $0x1,%rbx
  411b62:	44 38 f2             	cmp    %r14b,%dl
  411b65:	4d 8d 6c 24 01       	lea    0x1(%r12),%r13
  411b6a:	49 89 e9             	mov    %rbp,%r9
  411b6d:	41 ba 01 00 00 00    	mov    $0x1,%r10d
  411b73:	4c 89 5c 24 08       	mov    %r11,0x8(%rsp)
  411b78:	0f 84 a2 00 00 00    	je     411c20 <fts_children+0x2260>
  411b7e:	41 80 7d 00 00       	cmpb   $0x0,0x0(%r13)
  411b83:	0f 84 f7 00 00 00    	je     411c80 <fts_children+0x22c0>
  411b89:	49 83 c7 01          	add    $0x1,%r15
  411b8d:	48 83 fb 09          	cmp    $0x9,%rbx
  411b91:	76 73                	jbe    411c06 <fts_children+0x2246>
  411b93:	45 84 d2             	test   %r10b,%r10b
  411b96:	74 6e                	je     411c06 <fts_children+0x2246>
  411b98:	48 8d 04 9b          	lea    (%rbx,%rbx,4),%rax
  411b9c:	4c 39 f8             	cmp    %r15,%rax
  411b9f:	77 5f                	ja     411c00 <fts_children+0x2240>
  411ba1:	4d 85 c9             	test   %r9,%r9
  411ba4:	74 28                	je     411bce <fts_children+0x220e>
  411ba6:	4c 89 fe             	mov    %r15,%rsi
  411ba9:	48 2b 74 24 08       	sub    0x8(%rsp),%rsi
  411bae:	4c 89 cf             	mov    %r9,%rdi
  411bb1:	4c 89 4c 24 08       	mov    %r9,0x8(%rsp)
  411bb6:	e8 75 05 ff ff       	callq  402130 <strnlen@plt>
  411bbb:	4c 8b 4c 24 08       	mov    0x8(%rsp),%r9
  411bc0:	4c 89 7c 24 08       	mov    %r15,0x8(%rsp)
  411bc5:	49 01 c1             	add    %rax,%r9
  411bc8:	41 80 39 00          	cmpb   $0x0,(%r9)
  411bcc:	75 32                	jne    411c00 <fts_children+0x2240>
  411bce:	48 89 ef             	mov    %rbp,%rdi
  411bd1:	e8 3a 04 ff ff       	callq  402010 <strlen@plt>
  411bd6:	48 8d 4c 24 48       	lea    0x48(%rsp),%rcx
  411bdb:	48 89 c2             	mov    %rax,%rdx
  411bde:	48 89 ee             	mov    %rbp,%rsi
  411be1:	4c 89 ef             	mov    %r13,%rdi
  411be4:	e8 d7 ed ff ff       	callq  4109c0 <fts_children+0x1000>
  411be9:	84 c0                	test   %al,%al
  411beb:	0f 85 bd 09 00 00    	jne    4125ae <fts_children+0x2bee>
  411bf1:	45 31 c9             	xor    %r9d,%r9d
  411bf4:	45 31 d2             	xor    %r10d,%r10d
  411bf7:	eb 0d                	jmp    411c06 <fts_children+0x2246>
  411bf9:	0f 1f 80 00 00 00 00 	nopl   0x0(%rax)
  411c00:	41 ba 01 00 00 00    	mov    $0x1,%r10d
  411c06:	41 0f b6 55 00       	movzbl 0x0(%r13),%edx
  411c0b:	49 8d 04 1c          	lea    (%r12,%rbx,1),%rax
  411c0f:	49 83 c5 01          	add    $0x1,%r13
  411c13:	48 83 c3 01          	add    $0x1,%rbx
  411c17:	44 38 f2             	cmp    %r14b,%dl
  411c1a:	0f 85 5e ff ff ff    	jne    411b7e <fts_children+0x21be>
  411c20:	0f b6 4d 01          	movzbl 0x1(%rbp),%ecx
  411c24:	84 c9                	test   %cl,%cl
  411c26:	0f 84 dc fe ff ff    	je     411b08 <fts_children+0x2148>
  411c2c:	41 0f b6 75 00       	movzbl 0x0(%r13),%esi
  411c31:	40 84 f6             	test   %sil,%sil
  411c34:	74 4a                	je     411c80 <fts_children+0x22c0>
  411c36:	40 38 f1             	cmp    %sil,%cl
  411c39:	49 8d 57 02          	lea    0x2(%r15),%rdx
  411c3d:	0f 85 8d 07 00 00    	jne    4123d0 <fts_children+0x2a10>
  411c43:	4d 89 fb             	mov    %r15,%r11
  411c46:	49 f7 db             	neg    %r11
  411c49:	4a 8d 74 1d 00       	lea    0x0(%rbp,%r11,1),%rsi
  411c4e:	49 01 c3             	add    %rax,%r11
  411c51:	eb 1c                	jmp    411c6f <fts_children+0x22af>
  411c53:	0f 1f 44 00 00       	nopl   0x0(%rax,%rax,1)
  411c58:	45 0f b6 04 13       	movzbl (%r11,%rdx,1),%r8d
  411c5d:	45 84 c0             	test   %r8b,%r8b
  411c60:	74 1e                	je     411c80 <fts_children+0x22c0>
  411c62:	48 83 c2 01          	add    $0x1,%rdx
  411c66:	44 38 c1             	cmp    %r8b,%cl
  411c69:	0f 85 61 07 00 00    	jne    4123d0 <fts_children+0x2a10>
  411c6f:	0f b6 0c 16          	movzbl (%rsi,%rdx,1),%ecx
  411c73:	84 c9                	test   %cl,%cl
  411c75:	75 e1                	jne    411c58 <fts_children+0x2298>
  411c77:	e9 8c fe ff ff       	jmpq   411b08 <fts_children+0x2148>
  411c7c:	0f 1f 40 00          	nopl   0x0(%rax)
  411c80:	31 c0                	xor    %eax,%eax
  411c82:	e9 81 fe ff ff       	jmpq   411b08 <fts_children+0x2148>
  411c87:	66 0f 1f 84 00 00 00 	nopw   0x0(%rax,%rax,1)
  411c8e:	00 00 
  411c90:	48 8b 7c 24 30       	mov    0x30(%rsp),%rdi
  411c95:	e8 f6 07 ff ff       	callq  402490 <mbsinit@plt>
  411c9a:	85 c0                	test   %eax,%eax
  411c9c:	0f 84 f3 08 00 00    	je     412595 <fts_children+0x2bd5>
  411ca2:	c6 84 24 d0 00 00 00 	movb   $0x1,0xd0(%rsp)
  411ca9:	01 
  411caa:	e9 43 fc ff ff       	jmpq   4118f2 <fts_children+0x1f32>
  411caf:	90                   	nop
  411cb0:	48 c7 44 24 68 01 00 	movq   $0x1,0x68(%rsp)
  411cb7:	00 00 
  411cb9:	c6 44 24 70 00       	movb   $0x0,0x70(%rsp)
  411cbe:	c6 44 24 5c 01       	movb   $0x1,0x5c(%rsp)
  411cc3:	e9 96 f9 ff ff       	jmpq   41165e <fts_children+0x1c9e>
  411cc8:	0f 1f 84 00 00 00 00 	nopl   0x0(%rax,%rax,1)
  411ccf:	00 
  411cd0:	48 8b bc 24 e0 00 00 	mov    0xe0(%rsp),%rdi
  411cd7:	00 
  411cd8:	e8 33 03 ff ff       	callq  402010 <strlen@plt>
  411cdd:	c6 84 24 f0 00 00 00 	movb   $0x0,0xf0(%rsp)
  411ce4:	00 
  411ce5:	48 89 84 24 e8 00 00 	mov    %rax,0xe8(%rsp)
  411cec:	00 
  411ced:	c6 84 24 dc 00 00 00 	movb   $0x1,0xdc(%rsp)
  411cf4:	01 
  411cf5:	31 c0                	xor    %eax,%eax
  411cf7:	e9 52 fa ff ff       	jmpq   41174e <fts_children+0x1d8e>
  411cfc:	0f 1f 40 00          	nopl   0x0(%rax)
  411d00:	48 8b 7c 24 10       	mov    0x10(%rsp),%rdi
  411d05:	e8 86 07 ff ff       	callq  402490 <mbsinit@plt>
  411d0a:	85 c0                	test   %eax,%eax
  411d0c:	0f 84 83 08 00 00    	je     412595 <fts_children+0x2bd5>
  411d12:	c6 84 24 90 00 00 00 	movb   $0x1,0x90(%rsp)
  411d19:	01 
  411d1a:	e8 e1 02 ff ff       	callq  402000 <__ctype_get_mb_cur_max@plt>
  411d1f:	48 8b ac 24 a0 00 00 	mov    0xa0(%rsp),%rbp
  411d26:	00 
  411d27:	48 89 c6             	mov    %rax,%rsi
  411d2a:	48 89 ef             	mov    %rbp,%rdi
  411d2d:	e8 4e 9a ff ff       	callq  40b780 <__sprintf_chk@plt+0x9280>
  411d32:	48 8d 8c 24 94 00 00 	lea    0x94(%rsp),%rcx
  411d39:	00 
  411d3a:	48 8d bc 24 b4 00 00 	lea    0xb4(%rsp),%rdi
  411d41:	00 
  411d42:	48 89 c2             	mov    %rax,%rdx
  411d45:	48 89 ee             	mov    %rbp,%rsi
  411d48:	e8 13 03 ff ff       	callq  402060 <mbrtowc@plt>
  411d4d:	48 83 f8 ff          	cmp    $0xffffffffffffffff,%rax
  411d51:	48 89 84 24 a8 00 00 	mov    %rax,0xa8(%rsp)
  411d58:	00 
  411d59:	0f 84 c1 01 00 00    	je     411f20 <fts_children+0x2560>
  411d5f:	48 83 f8 fe          	cmp    $0xfffffffffffffffe,%rax
  411d63:	0f 84 d7 01 00 00    	je     411f40 <fts_children+0x2580>
  411d69:	48 85 c0             	test   %rax,%rax
  411d6c:	75 2e                	jne    411d9c <fts_children+0x23dc>
  411d6e:	48 8b 84 24 a0 00 00 	mov    0xa0(%rsp),%rax
  411d75:	00 
  411d76:	48 c7 84 24 a8 00 00 	movq   $0x1,0xa8(%rsp)
  411d7d:	00 01 00 00 00 
  411d82:	80 38 00             	cmpb   $0x0,(%rax)
  411d85:	0f 85 32 08 00 00    	jne    4125bd <fts_children+0x2bfd>
  411d8b:	44 8b b4 24 b4 00 00 	mov    0xb4(%rsp),%r14d
  411d92:	00 
  411d93:	45 85 f6             	test   %r14d,%r14d
  411d96:	0f 85 e5 05 00 00    	jne    412381 <fts_children+0x29c1>
  411d9c:	48 8d bc 24 94 00 00 	lea    0x94(%rsp),%rdi
  411da3:	00 
  411da4:	c6 84 24 b0 00 00 00 	movb   $0x1,0xb0(%rsp)
  411dab:	01 
  411dac:	41 89 de             	mov    %ebx,%r14d
  411daf:	e8 dc 06 ff ff       	callq  402490 <mbsinit@plt>
  411db4:	85 c0                	test   %eax,%eax
  411db6:	0f 84 58 fa ff ff    	je     411814 <fts_children+0x1e54>
  411dbc:	c6 84 24 90 00 00 00 	movb   $0x0,0x90(%rsp)
  411dc3:	00 
  411dc4:	e9 4b fa ff ff       	jmpq   411814 <fts_children+0x1e54>
  411dc9:	0f 1f 80 00 00 00 00 	nopl   0x0(%rax)
  411dd0:	48 8b 94 24 e8 00 00 	mov    0xe8(%rsp),%rdx
  411dd7:	00 
  411dd8:	31 c0                	xor    %eax,%eax
  411dda:	48 3b 54 24 68       	cmp    0x68(%rsp),%rdx
  411ddf:	0f 85 dc fa ff ff    	jne    4118c1 <fts_children+0x1f01>
  411de5:	48 8b 74 24 60       	mov    0x60(%rsp),%rsi
  411dea:	48 8b bc 24 e0 00 00 	mov    0xe0(%rsp),%rdi
  411df1:	00 
  411df2:	e8 a9 03 ff ff       	callq  4021a0 <memcmp@plt>
  411df7:	85 c0                	test   %eax,%eax
  411df9:	0f 94 c0             	sete   %al
  411dfc:	84 c0                	test   %al,%al
  411dfe:	0f 84 c5 fa ff ff    	je     4118c9 <fts_children+0x1f09>
  411e04:	48 8b 84 24 d0 00 00 	mov    0xd0(%rsp),%rax
  411e0b:	00 
  411e0c:	48 8b 94 24 f0 00 00 	mov    0xf0(%rsp),%rdx
  411e13:	00 
  411e14:	48 8d 9c 24 54 01 00 	lea    0x154(%rsp),%rbx
  411e1b:	00 
  411e1c:	c6 84 24 50 01 00 00 	movb   $0x0,0x150(%rsp)
  411e23:	00 
  411e24:	48 c7 84 24 54 01 00 	movq   $0x0,0x154(%rsp)
  411e2b:	00 00 00 00 00 
  411e30:	c6 84 24 5c 01 00 00 	movb   $0x0,0x15c(%rsp)
  411e37:	00 
  411e38:	48 89 84 24 10 01 00 	mov    %rax,0x110(%rsp)
  411e3f:	00 
  411e40:	48 8b 84 24 d8 00 00 	mov    0xd8(%rsp),%rax
  411e47:	00 
  411e48:	48 89 94 24 30 01 00 	mov    %rdx,0x130(%rsp)
  411e4f:	00 
  411e50:	48 8b 94 24 f8 00 00 	mov    0xf8(%rsp),%rdx
  411e57:	00 
  411e58:	48 89 84 24 18 01 00 	mov    %rax,0x118(%rsp)
  411e5f:	00 
  411e60:	48 8b 84 24 e0 00 00 	mov    0xe0(%rsp),%rax
  411e67:	00 
  411e68:	48 89 94 24 38 01 00 	mov    %rdx,0x138(%rsp)
  411e6f:	00 
  411e70:	48 8b 94 24 00 01 00 	mov    0x100(%rsp),%rdx
  411e77:	00 
  411e78:	c6 84 24 1c 01 00 00 	movb   $0x0,0x11c(%rsp)
  411e7f:	00 
  411e80:	48 89 84 24 20 01 00 	mov    %rax,0x120(%rsp)
  411e87:	00 
  411e88:	48 8b 84 24 e8 00 00 	mov    0xe8(%rsp),%rax
  411e8f:	00 
  411e90:	48 01 84 24 20 01 00 	add    %rax,0x120(%rsp)
  411e97:	00 
  411e98:	48 89 94 24 40 01 00 	mov    %rdx,0x140(%rsp)
  411e9f:	00 
  411ea0:	48 8b 94 24 08 01 00 	mov    0x108(%rsp),%rdx
  411ea7:	00 
  411ea8:	48 89 84 24 28 01 00 	mov    %rax,0x128(%rsp)
  411eaf:	00 
  411eb0:	48 8b 44 24 28       	mov    0x28(%rsp),%rax
  411eb5:	48 89 94 24 48 01 00 	mov    %rdx,0x148(%rsp)
  411ebc:	00 
  411ebd:	48 89 84 24 60 01 00 	mov    %rax,0x160(%rsp)
  411ec4:	00 
  411ec5:	0f be 00             	movsbl (%rax),%eax
  411ec8:	89 c1                	mov    %eax,%ecx
  411eca:	89 c2                	mov    %eax,%edx
  411ecc:	c0 e9 05             	shr    $0x5,%cl
  411ecf:	83 e2 1f             	and    $0x1f,%edx
  411ed2:	83 e1 07             	and    $0x7,%ecx
  411ed5:	8b 0c 8d 80 57 41 00 	mov    0x415780(,%rcx,4),%ecx
  411edc:	0f a3 d1             	bt     %edx,%ecx
  411edf:	0f 83 0b 04 00 00    	jae    4122f0 <fts_children+0x2930>
  411ee5:	48 c7 84 24 68 01 00 	movq   $0x1,0x168(%rsp)
  411eec:	00 01 00 00 00 
  411ef1:	89 84 24 74 01 00 00 	mov    %eax,0x174(%rsp)
  411ef8:	c6 84 24 70 01 00 00 	movb   $0x1,0x170(%rsp)
  411eff:	01 
  411f00:	8b 94 24 74 01 00 00 	mov    0x174(%rsp),%edx
  411f07:	c6 84 24 5c 01 00 00 	movb   $0x1,0x15c(%rsp)
  411f0e:	01 
  411f0f:	85 d2                	test   %edx,%edx
  411f11:	0f 85 3c fb ff ff    	jne    411a53 <fts_children+0x2093>
  411f17:	e8 e4 ff fe ff       	callq  401f00 <abort@plt>
  411f1c:	0f 1f 40 00          	nopl   0x0(%rax)
  411f20:	48 c7 84 24 a8 00 00 	movq   $0x1,0xa8(%rsp)
  411f27:	00 01 00 00 00 
  411f2c:	c6 84 24 b0 00 00 00 	movb   $0x0,0xb0(%rsp)
  411f33:	00 
  411f34:	e9 db f8 ff ff       	jmpq   411814 <fts_children+0x1e54>
  411f39:	0f 1f 80 00 00 00 00 	nopl   0x0(%rax)
  411f40:	48 8b bc 24 a0 00 00 	mov    0xa0(%rsp),%rdi
  411f47:	00 
  411f48:	e8 c3 00 ff ff       	callq  402010 <strlen@plt>
  411f4d:	c6 84 24 b0 00 00 00 	movb   $0x0,0xb0(%rsp)
  411f54:	00 
  411f55:	48 89 84 24 a8 00 00 	mov    %rax,0xa8(%rsp)
  411f5c:	00 
  411f5d:	e9 b2 f8 ff ff       	jmpq   411814 <fts_children+0x1e54>
  411f62:	66 0f 1f 44 00 00    	nopw   0x0(%rax,%rax,1)
  411f68:	48 c7 84 24 68 01 00 	movq   $0x1,0x168(%rsp)
  411f6f:	00 01 00 00 00 
  411f74:	c6 84 24 70 01 00 00 	movb   $0x0,0x170(%rsp)
  411f7b:	00 
  411f7c:	c6 84 24 5c 01 00 00 	movb   $0x1,0x15c(%rsp)
  411f83:	01 
  411f84:	0f b6 ac 24 1c 01 00 	movzbl 0x11c(%rsp),%ebp
  411f8b:	00 
  411f8c:	40 84 ed             	test   %bpl,%bpl
  411f8f:	0f 84 1b 01 00 00    	je     4120b0 <fts_children+0x26f0>
  411f95:	0f b6 ac 24 30 01 00 	movzbl 0x130(%rsp),%ebp
  411f9c:	00 
  411f9d:	40 84 ed             	test   %bpl,%bpl
  411fa0:	0f 85 6e 01 00 00    	jne    412114 <fts_children+0x2754>
  411fa6:	48 8b 94 24 28 01 00 	mov    0x128(%rsp),%rdx
  411fad:	00 
  411fae:	48 3b 94 24 68 01 00 	cmp    0x168(%rsp),%rdx
  411fb5:	00 
  411fb6:	b8 01 00 00 00       	mov    $0x1,%eax
  411fbb:	0f 84 4f 02 00 00    	je     412210 <fts_children+0x2850>
  411fc1:	84 c0                	test   %al,%al
  411fc3:	48 8d 53 01          	lea    0x1(%rbx),%rdx
  411fc7:	0f 85 fc f8 ff ff    	jne    4118c9 <fts_children+0x1f09>
  411fcd:	48 8b 84 24 28 01 00 	mov    0x128(%rsp),%rax
  411fd4:	00 
  411fd5:	48 01 84 24 20 01 00 	add    %rax,0x120(%rsp)
  411fdc:	00 
  411fdd:	48 89 d3             	mov    %rdx,%rbx
  411fe0:	48 8b 84 24 68 01 00 	mov    0x168(%rsp),%rax
  411fe7:	00 
  411fe8:	48 01 84 24 60 01 00 	add    %rax,0x160(%rsp)
  411fef:	00 
  411ff0:	80 bc 24 50 01 00 00 	cmpb   $0x0,0x150(%rsp)
  411ff7:	00 
  411ff8:	c6 84 24 1c 01 00 00 	movb   $0x0,0x11c(%rsp)
  411fff:	00 
  412000:	c6 84 24 5c 01 00 00 	movb   $0x0,0x15c(%rsp)
  412007:	00 
  412008:	0f 84 92 fa ff ff    	je     411aa0 <fts_children+0x20e0>
  41200e:	e8 ed ff fe ff       	callq  402000 <__ctype_get_mb_cur_max@plt>
  412013:	48 8b ac 24 60 01 00 	mov    0x160(%rsp),%rbp
  41201a:	00 
  41201b:	48 89 c6             	mov    %rax,%rsi
  41201e:	48 89 ef             	mov    %rbp,%rdi
  412021:	e8 5a 97 ff ff       	callq  40b780 <__sprintf_chk@plt+0x9280>
  412026:	4c 89 e9             	mov    %r13,%rcx
  412029:	48 89 c2             	mov    %rax,%rdx
  41202c:	48 89 ee             	mov    %rbp,%rsi
  41202f:	4c 89 f7             	mov    %r14,%rdi
  412032:	e8 29 00 ff ff       	callq  402060 <mbrtowc@plt>
  412037:	48 83 f8 ff          	cmp    $0xffffffffffffffff,%rax
  41203b:	48 89 84 24 68 01 00 	mov    %rax,0x168(%rsp)
  412042:	00 
  412043:	0f 84 1f ff ff ff    	je     411f68 <fts_children+0x25a8>
  412049:	48 83 f8 fe          	cmp    $0xfffffffffffffffe,%rax
  41204d:	0f 84 1d 02 00 00    	je     412270 <fts_children+0x28b0>
  412053:	48 85 c0             	test   %rax,%rax
  412056:	75 2e                	jne    412086 <fts_children+0x26c6>
  412058:	48 8b 84 24 60 01 00 	mov    0x160(%rsp),%rax
  41205f:	00 
  412060:	48 c7 84 24 68 01 00 	movq   $0x1,0x168(%rsp)
  412067:	00 01 00 00 00 
  41206c:	80 38 00             	cmpb   $0x0,(%rax)
  41206f:	0f 85 48 05 00 00    	jne    4125bd <fts_children+0x2bfd>
  412075:	44 8b 84 24 74 01 00 	mov    0x174(%rsp),%r8d
  41207c:	00 
  41207d:	45 85 c0             	test   %r8d,%r8d
  412080:	0f 85 fb 02 00 00    	jne    412381 <fts_children+0x29c1>
  412086:	4c 89 ef             	mov    %r13,%rdi
  412089:	c6 84 24 70 01 00 00 	movb   $0x1,0x170(%rsp)
  412090:	01 
  412091:	e8 fa 03 ff ff       	callq  402490 <mbsinit@plt>
  412096:	85 c0                	test   %eax,%eax
  412098:	0f 84 46 fa ff ff    	je     411ae4 <fts_children+0x2124>
  41209e:	c6 84 24 50 01 00 00 	movb   $0x0,0x150(%rsp)
  4120a5:	00 
  4120a6:	e9 39 fa ff ff       	jmpq   411ae4 <fts_children+0x2124>
  4120ab:	0f 1f 44 00 00       	nopl   0x0(%rax,%rax,1)
  4120b0:	80 bc 24 10 01 00 00 	cmpb   $0x0,0x110(%rsp)
  4120b7:	00 
  4120b8:	0f 85 9c 00 00 00    	jne    41215a <fts_children+0x279a>
  4120be:	48 8b 94 24 20 01 00 	mov    0x120(%rsp),%rdx
  4120c5:	00 
  4120c6:	0f b6 02             	movzbl (%rdx),%eax
  4120c9:	89 c1                	mov    %eax,%ecx
  4120cb:	83 e0 1f             	and    $0x1f,%eax
  4120ce:	c0 e9 05             	shr    $0x5,%cl
  4120d1:	83 e1 07             	and    $0x7,%ecx
  4120d4:	8b 0c 8d 80 57 41 00 	mov    0x415780(,%rcx,4),%ecx
  4120db:	0f a3 c1             	bt     %eax,%ecx
  4120de:	73 60                	jae    412140 <fts_children+0x2780>
  4120e0:	48 c7 84 24 28 01 00 	movq   $0x1,0x128(%rsp)
  4120e7:	00 01 00 00 00 
  4120ec:	0f be 02             	movsbl (%rdx),%eax
  4120ef:	bd 01 00 00 00       	mov    $0x1,%ebp
  4120f4:	c6 84 24 30 01 00 00 	movb   $0x1,0x130(%rsp)
  4120fb:	01 
  4120fc:	89 84 24 34 01 00 00 	mov    %eax,0x134(%rsp)
  412103:	40 84 ed             	test   %bpl,%bpl
  412106:	c6 84 24 1c 01 00 00 	movb   $0x1,0x11c(%rsp)
  41210d:	01 
  41210e:	0f 84 92 fe ff ff    	je     411fa6 <fts_children+0x25e6>
  412114:	8b 84 24 34 01 00 00 	mov    0x134(%rsp),%eax
  41211b:	85 c0                	test   %eax,%eax
  41211d:	0f 84 5d fb ff ff    	je     411c80 <fts_children+0x22c0>
  412123:	80 bc 24 70 01 00 00 	cmpb   $0x0,0x170(%rsp)
  41212a:	00 
  41212b:	0f 84 75 fe ff ff    	je     411fa6 <fts_children+0x25e6>
  412131:	3b 84 24 74 01 00 00 	cmp    0x174(%rsp),%eax
  412138:	0f 95 c0             	setne  %al
  41213b:	e9 81 fe ff ff       	jmpq   411fc1 <fts_children+0x2601>
  412140:	48 8b 7c 24 18       	mov    0x18(%rsp),%rdi
  412145:	e8 46 03 ff ff       	callq  402490 <mbsinit@plt>
  41214a:	85 c0                	test   %eax,%eax
  41214c:	0f 84 43 04 00 00    	je     412595 <fts_children+0x2bd5>
  412152:	c6 84 24 10 01 00 00 	movb   $0x1,0x110(%rsp)
  412159:	01 
  41215a:	e8 a1 fe fe ff       	callq  402000 <__ctype_get_mb_cur_max@plt>
  41215f:	4c 8b bc 24 20 01 00 	mov    0x120(%rsp),%r15
  412166:	00 
  412167:	48 89 c6             	mov    %rax,%rsi
  41216a:	4c 89 ff             	mov    %r15,%rdi
  41216d:	e8 0e 96 ff ff       	callq  40b780 <__sprintf_chk@plt+0x9280>
  412172:	48 8d 8c 24 14 01 00 	lea    0x114(%rsp),%rcx
  412179:	00 
  41217a:	48 8d bc 24 34 01 00 	lea    0x134(%rsp),%rdi
  412181:	00 
  412182:	48 89 c2             	mov    %rax,%rdx
  412185:	4c 89 fe             	mov    %r15,%rsi
  412188:	e8 d3 fe fe ff       	callq  402060 <mbrtowc@plt>
  41218d:	48 83 f8 ff          	cmp    $0xffffffffffffffff,%rax
  412191:	48 89 84 24 28 01 00 	mov    %rax,0x128(%rsp)
  412198:	00 
  412199:	0f 84 b1 00 00 00    	je     412250 <fts_children+0x2890>
  41219f:	48 83 f8 fe          	cmp    $0xfffffffffffffffe,%rax
  4121a3:	0f 84 ef 00 00 00    	je     412298 <fts_children+0x28d8>
  4121a9:	48 85 c0             	test   %rax,%rax
  4121ac:	75 2c                	jne    4121da <fts_children+0x281a>
  4121ae:	48 8b 84 24 20 01 00 	mov    0x120(%rsp),%rax
  4121b5:	00 
  4121b6:	48 c7 84 24 28 01 00 	movq   $0x1,0x128(%rsp)
  4121bd:	00 01 00 00 00 
  4121c2:	80 38 00             	cmpb   $0x0,(%rax)
  4121c5:	0f 85 f2 03 00 00    	jne    4125bd <fts_children+0x2bfd>
  4121cb:	8b bc 24 34 01 00 00 	mov    0x134(%rsp),%edi
  4121d2:	85 ff                	test   %edi,%edi
  4121d4:	0f 85 a7 01 00 00    	jne    412381 <fts_children+0x29c1>
  4121da:	48 8d bc 24 14 01 00 	lea    0x114(%rsp),%rdi
  4121e1:	00 
  4121e2:	c6 84 24 30 01 00 00 	movb   $0x1,0x130(%rsp)
  4121e9:	01 
  4121ea:	bd 01 00 00 00       	mov    $0x1,%ebp
  4121ef:	e8 9c 02 ff ff       	callq  402490 <mbsinit@plt>
  4121f4:	85 c0                	test   %eax,%eax
  4121f6:	0f 84 07 ff ff ff    	je     412103 <fts_children+0x2743>
  4121fc:	c6 84 24 10 01 00 00 	movb   $0x0,0x110(%rsp)
  412203:	00 
  412204:	e9 fa fe ff ff       	jmpq   412103 <fts_children+0x2743>
  412209:	0f 1f 80 00 00 00 00 	nopl   0x0(%rax)
  412210:	48 8b b4 24 60 01 00 	mov    0x160(%rsp),%rsi
  412217:	00 
  412218:	48 8b bc 24 20 01 00 	mov    0x120(%rsp),%rdi
  41221f:	00 
  412220:	e8 7b ff fe ff       	callq  4021a0 <memcmp@plt>
  412225:	85 c0                	test   %eax,%eax
  412227:	0f 95 c0             	setne  %al
  41222a:	e9 92 fd ff ff       	jmpq   411fc1 <fts_children+0x2601>
  41222f:	90                   	nop
  412230:	4c 89 ef             	mov    %r13,%rdi
  412233:	e8 58 02 ff ff       	callq  402490 <mbsinit@plt>
  412238:	85 c0                	test   %eax,%eax
  41223a:	0f 84 55 03 00 00    	je     412595 <fts_children+0x2bd5>
  412240:	c6 84 24 50 01 00 00 	movb   $0x1,0x150(%rsp)
  412247:	01 
  412248:	e9 c1 fd ff ff       	jmpq   41200e <fts_children+0x264e>
  41224d:	0f 1f 00             	nopl   (%rax)
  412250:	48 c7 84 24 28 01 00 	movq   $0x1,0x128(%rsp)
  412257:	00 01 00 00 00 
  41225c:	c6 84 24 30 01 00 00 	movb   $0x0,0x130(%rsp)
  412263:	00 
  412264:	e9 9a fe ff ff       	jmpq   412103 <fts_children+0x2743>
  412269:	0f 1f 80 00 00 00 00 	nopl   0x0(%rax)
  412270:	48 8b bc 24 60 01 00 	mov    0x160(%rsp),%rdi
  412277:	00 
  412278:	e8 93 fd fe ff       	callq  402010 <strlen@plt>
  41227d:	c6 84 24 70 01 00 00 	movb   $0x0,0x170(%rsp)
  412284:	00 
  412285:	48 89 84 24 68 01 00 	mov    %rax,0x168(%rsp)
  41228c:	00 
  41228d:	e9 ea fc ff ff       	jmpq   411f7c <fts_children+0x25bc>
  412292:	66 0f 1f 44 00 00    	nopw   0x0(%rax,%rax,1)
  412298:	48 8b bc 24 20 01 00 	mov    0x120(%rsp),%rdi
  41229f:	00 
  4122a0:	e8 6b fd fe ff       	callq  402010 <strlen@plt>
  4122a5:	c6 84 24 30 01 00 00 	movb   $0x0,0x130(%rsp)
  4122ac:	00 
  4122ad:	48 89 84 24 28 01 00 	mov    %rax,0x128(%rsp)
  4122b4:	00 
  4122b5:	e9 49 fe ff ff       	jmpq   412103 <fts_children+0x2743>
  4122ba:	66 0f 1f 44 00 00    	nopw   0x0(%rax,%rax,1)
  4122c0:	c6 44 24 08 01       	movb   $0x1,0x8(%rsp)
  4122c5:	e9 ce f5 ff ff       	jmpq   411898 <fts_children+0x1ed8>
  4122ca:	66 0f 1f 44 00 00    	nopw   0x0(%rax,%rax,1)
  4122d0:	0f b6 84 24 f0 00 00 	movzbl 0xf0(%rsp),%eax
  4122d7:	00 
  4122d8:	4c 89 6c 24 20       	mov    %r13,0x20(%rsp)
  4122dd:	c6 44 24 08 01       	movb   $0x1,0x8(%rsp)
  4122e2:	e9 b1 f5 ff ff       	jmpq   411898 <fts_children+0x1ed8>
  4122e7:	66 0f 1f 84 00 00 00 	nopw   0x0(%rax,%rax,1)
  4122ee:	00 00 
  4122f0:	48 89 df             	mov    %rbx,%rdi
  4122f3:	e8 98 01 ff ff       	callq  402490 <mbsinit@plt>
  4122f8:	85 c0                	test   %eax,%eax
  4122fa:	0f 84 95 02 00 00    	je     412595 <fts_children+0x2bd5>
  412300:	c6 84 24 50 01 00 00 	movb   $0x1,0x150(%rsp)
  412307:	01 
  412308:	e8 f3 fc fe ff       	callq  402000 <__ctype_get_mb_cur_max@plt>
  41230d:	4c 8b b4 24 60 01 00 	mov    0x160(%rsp),%r14
  412314:	00 
  412315:	48 89 c6             	mov    %rax,%rsi
  412318:	4c 89 f7             	mov    %r14,%rdi
  41231b:	e8 60 94 ff ff       	callq  40b780 <__sprintf_chk@plt+0x9280>
  412320:	48 8d bc 24 74 01 00 	lea    0x174(%rsp),%rdi
  412327:	00 
  412328:	48 89 d9             	mov    %rbx,%rcx
  41232b:	48 89 c2             	mov    %rax,%rdx
  41232e:	4c 89 f6             	mov    %r14,%rsi
  412331:	e8 2a fd fe ff       	callq  402060 <mbrtowc@plt>
  412336:	48 83 f8 ff          	cmp    $0xffffffffffffffff,%rax
  41233a:	48 89 84 24 68 01 00 	mov    %rax,0x168(%rsp)
  412341:	00 
  412342:	0f 84 f7 f6 ff ff    	je     411a3f <fts_children+0x207f>
  412348:	48 83 f8 fe          	cmp    $0xfffffffffffffffe,%rax
  41234c:	0f 84 06 02 00 00    	je     412558 <fts_children+0x2b98>
  412352:	48 85 c0             	test   %rax,%rax
  412355:	75 49                	jne    4123a0 <fts_children+0x29e0>
  412357:	48 8b 84 24 60 01 00 	mov    0x160(%rsp),%rax
  41235e:	00 
  41235f:	48 c7 84 24 68 01 00 	movq   $0x1,0x168(%rsp)
  412366:	00 01 00 00 00 
  41236b:	80 38 00             	cmpb   $0x0,(%rax)
  41236e:	0f 85 49 02 00 00    	jne    4125bd <fts_children+0x2bfd>
  412374:	44 8b 8c 24 74 01 00 	mov    0x174(%rsp),%r9d
  41237b:	00 
  41237c:	45 85 c9             	test   %r9d,%r9d
  41237f:	74 1f                	je     4123a0 <fts_children+0x29e0>
  412381:	b9 f0 67 41 00       	mov    $0x4167f0,%ecx
  412386:	ba b0 00 00 00       	mov    $0xb0,%edx
  41238b:	be f2 51 41 00       	mov    $0x4151f2,%esi
  412390:	bf 2e 52 41 00       	mov    $0x41522e,%edi
  412395:	e8 36 fd fe ff       	callq  4020d0 <__assert_fail@plt>
  41239a:	66 0f 1f 44 00 00    	nopw   0x0(%rax,%rax,1)
  4123a0:	48 8d bc 24 54 01 00 	lea    0x154(%rsp),%rdi
  4123a7:	00 
  4123a8:	c6 84 24 70 01 00 00 	movb   $0x1,0x170(%rsp)
  4123af:	01 
  4123b0:	e8 db 00 ff ff       	callq  402490 <mbsinit@plt>
  4123b5:	85 c0                	test   %eax,%eax
  4123b7:	0f 84 43 fb ff ff    	je     411f00 <fts_children+0x2540>
  4123bd:	c6 84 24 50 01 00 00 	movb   $0x0,0x150(%rsp)
  4123c4:	00 
  4123c5:	e9 36 fb ff ff       	jmpq   411f00 <fts_children+0x2540>
  4123ca:	66 0f 1f 44 00 00    	nopw   0x0(%rax,%rax,1)
  4123d0:	49 89 d7             	mov    %rdx,%r15
  4123d3:	e9 b5 f7 ff ff       	jmpq   411b8d <fts_children+0x21cd>
  4123d8:	0f 1f 84 00 00 00 00 	nopl   0x0(%rax,%rax,1)
  4123df:	00 
  4123e0:	80 bc 24 90 00 00 00 	cmpb   $0x0,0x90(%rsp)
  4123e7:	00 
  4123e8:	0f 85 85 00 00 00    	jne    412473 <fts_children+0x2ab3>
  4123ee:	48 8b 94 24 a0 00 00 	mov    0xa0(%rsp),%rdx
  4123f5:	00 
  4123f6:	0f b6 02             	movzbl (%rdx),%eax
  4123f9:	89 c1                	mov    %eax,%ecx
  4123fb:	83 e0 1f             	and    $0x1f,%eax
  4123fe:	c0 e9 05             	shr    $0x5,%cl
  412401:	83 e1 07             	and    $0x7,%ecx
  412404:	8b 0c 8d 80 57 41 00 	mov    0x415780(,%rcx,4),%ecx
  41240b:	0f a3 c1             	bt     %eax,%ecx
  41240e:	73 49                	jae    412459 <fts_children+0x2a99>
  412410:	48 c7 84 24 a8 00 00 	movq   $0x1,0xa8(%rsp)
  412417:	00 01 00 00 00 
  41241c:	0f be 02             	movsbl (%rdx),%eax
  41241f:	c6 84 24 b0 00 00 00 	movb   $0x1,0xb0(%rsp)
  412426:	01 
  412427:	89 84 24 b4 00 00 00 	mov    %eax,0xb4(%rsp)
  41242e:	c6 84 24 9c 00 00 00 	movb   $0x1,0x9c(%rsp)
  412435:	01 
  412436:	e9 0f f4 ff ff       	jmpq   41184a <fts_children+0x1e8a>
  41243b:	0f 1f 44 00 00       	nopl   0x0(%rax,%rax,1)
  412440:	48 c7 84 24 e8 00 00 	movq   $0x1,0xe8(%rsp)
  412447:	00 01 00 00 00 
  41244c:	c6 84 24 f0 00 00 00 	movb   $0x0,0xf0(%rsp)
  412453:	00 
  412454:	e9 94 f8 ff ff       	jmpq   411ced <fts_children+0x232d>
  412459:	48 8b 7c 24 10       	mov    0x10(%rsp),%rdi
  41245e:	e8 2d 00 ff ff       	callq  402490 <mbsinit@plt>
  412463:	85 c0                	test   %eax,%eax
  412465:	0f 84 2a 01 00 00    	je     412595 <fts_children+0x2bd5>
  41246b:	c6 84 24 90 00 00 00 	movb   $0x1,0x90(%rsp)
  412472:	01 
  412473:	e8 88 fb fe ff       	callq  402000 <__ctype_get_mb_cur_max@plt>
  412478:	4c 8b b4 24 a0 00 00 	mov    0xa0(%rsp),%r14
  41247f:	00 
  412480:	48 89 c6             	mov    %rax,%rsi
  412483:	4c 89 f7             	mov    %r14,%rdi
  412486:	e8 f5 92 ff ff       	callq  40b780 <__sprintf_chk@plt+0x9280>
  41248b:	48 8d 8c 24 94 00 00 	lea    0x94(%rsp),%rcx
  412492:	00 
  412493:	48 8d bc 24 b4 00 00 	lea    0xb4(%rsp),%rdi
  41249a:	00 
  41249b:	48 89 c2             	mov    %rax,%rdx
  41249e:	4c 89 f6             	mov    %r14,%rsi
  4124a1:	e8 ba fb fe ff       	callq  402060 <mbrtowc@plt>
  4124a6:	48 83 f8 ff          	cmp    $0xffffffffffffffff,%rax
  4124aa:	48 89 84 24 a8 00 00 	mov    %rax,0xa8(%rsp)
  4124b1:	00 
  4124b2:	0f 84 c2 00 00 00    	je     41257a <fts_children+0x2bba>
  4124b8:	48 83 f8 fe          	cmp    $0xfffffffffffffffe,%rax
  4124bc:	74 76                	je     412534 <fts_children+0x2b74>
  4124be:	48 85 c0             	test   %rax,%rax
  4124c1:	75 2e                	jne    4124f1 <fts_children+0x2b31>
  4124c3:	48 8b 84 24 a0 00 00 	mov    0xa0(%rsp),%rax
  4124ca:	00 
  4124cb:	48 c7 84 24 a8 00 00 	movq   $0x1,0xa8(%rsp)
  4124d2:	00 01 00 00 00 
  4124d7:	80 38 00             	cmpb   $0x0,(%rax)
  4124da:	0f 85 dd 00 00 00    	jne    4125bd <fts_children+0x2bfd>
  4124e0:	44 8b 9c 24 b4 00 00 	mov    0xb4(%rsp),%r11d
  4124e7:	00 
  4124e8:	45 85 db             	test   %r11d,%r11d
  4124eb:	0f 85 90 fe ff ff    	jne    412381 <fts_children+0x29c1>
  4124f1:	48 8d bc 24 94 00 00 	lea    0x94(%rsp),%rdi
  4124f8:	00 
  4124f9:	c6 84 24 b0 00 00 00 	movb   $0x1,0xb0(%rsp)
  412500:	01 
  412501:	e8 8a ff fe ff       	callq  402490 <mbsinit@plt>
  412506:	85 c0                	test   %eax,%eax
  412508:	0f 84 20 ff ff ff    	je     41242e <fts_children+0x2a6e>
  41250e:	c6 84 24 90 00 00 00 	movb   $0x0,0x90(%rsp)
  412515:	00 
  412516:	e9 13 ff ff ff       	jmpq   41242e <fts_children+0x2a6e>
  41251b:	48 8b 7c 24 60       	mov    0x60(%rsp),%rdi
  412520:	e8 eb fa fe ff       	callq  402010 <strlen@plt>
  412525:	c6 44 24 70 00       	movb   $0x0,0x70(%rsp)
  41252a:	48 89 44 24 68       	mov    %rax,0x68(%rsp)
  41252f:	e9 8a f7 ff ff       	jmpq   411cbe <fts_children+0x22fe>
  412534:	48 8b bc 24 a0 00 00 	mov    0xa0(%rsp),%rdi
  41253b:	00 
  41253c:	31 db                	xor    %ebx,%ebx
  41253e:	e8 cd fa fe ff       	callq  402010 <strlen@plt>
  412543:	c6 84 24 b0 00 00 00 	movb   $0x0,0xb0(%rsp)
  41254a:	00 
  41254b:	48 89 84 24 a8 00 00 	mov    %rax,0xa8(%rsp)
  412552:	00 
  412553:	e9 d6 fe ff ff       	jmpq   41242e <fts_children+0x2a6e>
  412558:	48 8b bc 24 60 01 00 	mov    0x160(%rsp),%rdi
  41255f:	00 
  412560:	e8 ab fa fe ff       	callq  402010 <strlen@plt>
  412565:	c6 84 24 70 01 00 00 	movb   $0x0,0x170(%rsp)
  41256c:	00 
  41256d:	48 89 84 24 68 01 00 	mov    %rax,0x168(%rsp)
  412574:	00 
  412575:	e9 d9 f4 ff ff       	jmpq   411a53 <fts_children+0x2093>
  41257a:	48 c7 84 24 a8 00 00 	movq   $0x1,0xa8(%rsp)
  412581:	00 01 00 00 00 
  412586:	c6 84 24 b0 00 00 00 	movb   $0x0,0xb0(%rsp)
  41258d:	00 
  41258e:	31 db                	xor    %ebx,%ebx
  412590:	e9 99 fe ff ff       	jmpq   41242e <fts_children+0x2a6e>
  412595:	b9 f0 67 41 00       	mov    $0x4167f0,%ecx
  41259a:	ba 93 00 00 00       	mov    $0x93,%edx
  41259f:	be f2 51 41 00       	mov    $0x4151f2,%esi
  4125a4:	bf 00 52 41 00       	mov    $0x415200,%edi
  4125a9:	e8 22 fb fe ff       	callq  4020d0 <__assert_fail@plt>
  4125ae:	48 8b 44 24 48       	mov    0x48(%rsp),%rax
  4125b3:	e9 50 f5 ff ff       	jmpq   411b08 <fts_children+0x2148>
  4125b8:	e8 83 fa fe ff       	callq  402040 <__stack_chk_fail@plt>
  4125bd:	b9 f0 67 41 00       	mov    $0x4167f0,%ecx
  4125c2:	ba af 00 00 00       	mov    $0xaf,%edx
  4125c7:	be f2 51 41 00       	mov    $0x4151f2,%esi
  4125cc:	bf 17 52 41 00       	mov    $0x415217,%edi
  4125d1:	e8 fa fa fe ff       	callq  4020d0 <__assert_fail@plt>
  4125d6:	66 2e 0f 1f 84 00 00 	nopw   %cs:0x0(%rax,%rax,1)
  4125dd:	00 00 00 
  4125e0:	48 83 ec 58          	sub    $0x58,%rsp
  4125e4:	48 89 4c 24 38       	mov    %rcx,0x38(%rsp)
  4125e9:	31 c9                	xor    %ecx,%ecx
  4125eb:	f6 c2 40             	test   $0x40,%dl
  4125ee:	75 18                	jne    412608 <fts_children+0x2c48>
  4125f0:	31 c0                	xor    %eax,%eax
  4125f2:	e8 39 fa fe ff       	callq  402030 <openat@plt>
  4125f7:	89 c7                	mov    %eax,%edi
  4125f9:	e8 62 05 00 00       	callq  412b60 <fts_children+0x31a0>
  4125fe:	48 83 c4 58          	add    $0x58,%rsp
  412602:	c3                   	retq   
  412603:	0f 1f 44 00 00       	nopl   0x0(%rax,%rax,1)
  412608:	48 8d 44 24 60       	lea    0x60(%rsp),%rax
  41260d:	c7 44 24 08 18 00 00 	movl   $0x18,0x8(%rsp)
  412614:	00 
  412615:	8b 4c 24 38          	mov    0x38(%rsp),%ecx
  412619:	48 89 44 24 10       	mov    %rax,0x10(%rsp)
  41261e:	48 8d 44 24 20       	lea    0x20(%rsp),%rax
  412623:	48 89 44 24 18       	mov    %rax,0x18(%rsp)
  412628:	eb c6                	jmp    4125f0 <fts_children+0x2c30>
  41262a:	66 0f 1f 44 00 00    	nopw   0x0(%rax,%rax,1)
  412630:	41 57                	push   %r15
  412632:	49 89 f7             	mov    %rsi,%r15
  412635:	31 f6                	xor    %esi,%esi
  412637:	41 56                	push   %r14
  412639:	41 55                	push   %r13
  41263b:	41 54                	push   %r12
  41263d:	49 89 d4             	mov    %rdx,%r12
  412640:	31 d2                	xor    %edx,%edx
  412642:	55                   	push   %rbp
  412643:	31 ed                	xor    %ebp,%ebp
  412645:	53                   	push   %rbx
  412646:	48 89 fb             	mov    %rdi,%rbx
  412649:	48 81 ec 58 10 00 00 	sub    $0x1058,%rsp
  412650:	48 89 7c 24 18       	mov    %rdi,0x18(%rsp)
  412655:	48 89 4c 24 10       	mov    %rcx,0x10(%rsp)
  41265a:	4c 89 e7             	mov    %r12,%rdi
  41265d:	4c 89 44 24 08       	mov    %r8,0x8(%rsp)
  412662:	31 c9                	xor    %ecx,%ecx
  412664:	45 31 c0             	xor    %r8d,%r8d
  412667:	64 48 8b 04 25 28 00 	mov    %fs:0x28,%rax
  41266e:	00 00 
  412670:	48 89 84 24 48 10 00 	mov    %rax,0x1048(%rsp)
  412677:	00 
  412678:	31 c0                	xor    %eax,%eax
  41267a:	e8 e1 f8 fe ff       	callq  401f60 <iconv@plt>
  41267f:	4d 85 ff             	test   %r15,%r15
  412682:	48 89 5c 24 20       	mov    %rbx,0x20(%rsp)
  412687:	4c 89 7c 24 28       	mov    %r15,0x28(%rsp)
  41268c:	48 8d 5c 24 40       	lea    0x40(%rsp),%rbx
  412691:	4c 8d 74 24 38       	lea    0x38(%rsp),%r14
  412696:	4c 8d 6c 24 30       	lea    0x30(%rsp),%r13
  41269b:	75 16                	jne    4126b3 <fts_children+0x2cf3>
  41269d:	eb 59                	jmp    4126f8 <fts_children+0x2d38>
  41269f:	90                   	nop
  4126a0:	48 8b 44 24 30       	mov    0x30(%rsp),%rax
  4126a5:	48 29 d8             	sub    %rbx,%rax
  4126a8:	48 01 c5             	add    %rax,%rbp
  4126ab:	48 83 7c 24 28 00    	cmpq   $0x0,0x28(%rsp)
  4126b1:	74 45                	je     4126f8 <fts_children+0x2d38>
  4126b3:	48 8d 54 24 28       	lea    0x28(%rsp),%rdx
  4126b8:	48 8d 74 24 20       	lea    0x20(%rsp),%rsi
  4126bd:	4d 89 f0             	mov    %r14,%r8
  4126c0:	4c 89 e9             	mov    %r13,%rcx
  4126c3:	4c 89 e7             	mov    %r12,%rdi
  4126c6:	48 89 5c 24 30       	mov    %rbx,0x30(%rsp)
  4126cb:	48 c7 44 24 38 00 10 	movq   $0x1000,0x38(%rsp)
  4126d2:	00 00 
  4126d4:	e8 87 f8 fe ff       	callq  401f60 <iconv@plt>
  4126d9:	48 83 f8 ff          	cmp    $0xffffffffffffffff,%rax
  4126dd:	75 c1                	jne    4126a0 <fts_children+0x2ce0>
  4126df:	e8 2c f8 fe ff       	callq  401f10 <__errno_location@plt>
  4126e4:	8b 00                	mov    (%rax),%eax
  4126e6:	83 f8 07             	cmp    $0x7,%eax
  4126e9:	74 b5                	je     4126a0 <fts_children+0x2ce0>
  4126eb:	83 f8 16             	cmp    $0x16,%eax
  4126ee:	0f 85 43 01 00 00    	jne    412837 <fts_children+0x2e77>
  4126f4:	0f 1f 40 00          	nopl   0x0(%rax)
  4126f8:	31 d2                	xor    %edx,%edx
  4126fa:	31 f6                	xor    %esi,%esi
  4126fc:	4d 89 f0             	mov    %r14,%r8
  4126ff:	4c 89 e9             	mov    %r13,%rcx
  412702:	4c 89 e7             	mov    %r12,%rdi
  412705:	48 89 5c 24 30       	mov    %rbx,0x30(%rsp)
  41270a:	48 c7 44 24 38 00 10 	movq   $0x1000,0x38(%rsp)
  412711:	00 00 
  412713:	e8 48 f8 fe ff       	callq  401f60 <iconv@plt>
  412718:	48 83 f8 ff          	cmp    $0xffffffffffffffff,%rax
  41271c:	0f 84 15 01 00 00    	je     412837 <fts_children+0x2e77>
  412722:	48 8b 44 24 30       	mov    0x30(%rsp),%rax
  412727:	48 29 d8             	sub    %rbx,%rax
  41272a:	48 01 c5             	add    %rax,%rbp
  41272d:	0f 84 0d 01 00 00    	je     412840 <fts_children+0x2e80>
  412733:	48 8b 44 24 10       	mov    0x10(%rsp),%rax
  412738:	48 8b 18             	mov    (%rax),%rbx
  41273b:	48 85 db             	test   %rbx,%rbx
  41273e:	0f 84 d4 00 00 00    	je     412818 <fts_children+0x2e58>
  412744:	48 8b 44 24 08       	mov    0x8(%rsp),%rax
  412749:	48 3b 28             	cmp    (%rax),%rbp
  41274c:	0f 87 c6 00 00 00    	ja     412818 <fts_children+0x2e58>
  412752:	45 31 c0             	xor    %r8d,%r8d
  412755:	31 c9                	xor    %ecx,%ecx
  412757:	31 d2                	xor    %edx,%edx
  412759:	31 f6                	xor    %esi,%esi
  41275b:	4c 89 e7             	mov    %r12,%rdi
  41275e:	e8 fd f7 fe ff       	callq  401f60 <iconv@plt>
  412763:	48 8b 44 24 18       	mov    0x18(%rsp),%rax
  412768:	4c 89 7c 24 28       	mov    %r15,0x28(%rsp)
  41276d:	48 89 5c 24 30       	mov    %rbx,0x30(%rsp)
  412772:	48 89 6c 24 38       	mov    %rbp,0x38(%rsp)
  412777:	48 89 44 24 20       	mov    %rax,0x20(%rsp)
  41277c:	eb 29                	jmp    4127a7 <fts_children+0x2de7>
  41277e:	66 90                	xchg   %ax,%ax
  412780:	48 8d 54 24 28       	lea    0x28(%rsp),%rdx
  412785:	48 8d 74 24 20       	lea    0x20(%rsp),%rsi
  41278a:	4d 89 f0             	mov    %r14,%r8
  41278d:	4c 89 e9             	mov    %r13,%rcx
  412790:	4c 89 e7             	mov    %r12,%rdi
  412793:	e8 c8 f7 fe ff       	callq  401f60 <iconv@plt>
  412798:	48 83 f8 ff          	cmp    $0xffffffffffffffff,%rax
  41279c:	0f 84 ae 00 00 00    	je     412850 <fts_children+0x2e90>
  4127a2:	4c 8b 7c 24 28       	mov    0x28(%rsp),%r15
  4127a7:	4d 85 ff             	test   %r15,%r15
  4127aa:	75 d4                	jne    412780 <fts_children+0x2dc0>
  4127ac:	31 d2                	xor    %edx,%edx
  4127ae:	31 f6                	xor    %esi,%esi
  4127b0:	4d 89 f0             	mov    %r14,%r8
  4127b3:	4c 89 e9             	mov    %r13,%rcx
  4127b6:	4c 89 e7             	mov    %r12,%rdi
  4127b9:	e8 a2 f7 fe ff       	callq  401f60 <iconv@plt>
  4127be:	48 83 f8 ff          	cmp    $0xffffffffffffffff,%rax
  4127c2:	0f 84 96 00 00 00    	je     41285e <fts_children+0x2e9e>
  4127c8:	48 83 7c 24 38 00    	cmpq   $0x0,0x38(%rsp)
  4127ce:	0f 85 b9 00 00 00    	jne    41288d <fts_children+0x2ecd>
  4127d4:	48 8b 44 24 10       	mov    0x10(%rsp),%rax
  4127d9:	48 89 18             	mov    %rbx,(%rax)
  4127dc:	48 8b 44 24 08       	mov    0x8(%rsp),%rax
  4127e1:	48 89 28             	mov    %rbp,(%rax)
  4127e4:	31 ed                	xor    %ebp,%ebp
  4127e6:	48 8b 8c 24 48 10 00 	mov    0x1048(%rsp),%rcx
  4127ed:	00 
  4127ee:	64 48 33 0c 25 28 00 	xor    %fs:0x28,%rcx
  4127f5:	00 00 
  4127f7:	89 e8                	mov    %ebp,%eax
  4127f9:	0f 85 93 00 00 00    	jne    412892 <fts_children+0x2ed2>
  4127ff:	48 81 c4 58 10 00 00 	add    $0x1058,%rsp
  412806:	5b                   	pop    %rbx
  412807:	5d                   	pop    %rbp
  412808:	41 5c                	pop    %r12
  41280a:	41 5d                	pop    %r13
  41280c:	41 5e                	pop    %r14
  41280e:	41 5f                	pop    %r15
  412810:	c3                   	retq   
  412811:	0f 1f 80 00 00 00 00 	nopl   0x0(%rax)
  412818:	48 89 ef             	mov    %rbp,%rdi
  41281b:	e8 70 fa fe ff       	callq  402290 <malloc@plt>
  412820:	48 85 c0             	test   %rax,%rax
  412823:	48 89 c3             	mov    %rax,%rbx
  412826:	0f 85 26 ff ff ff    	jne    412752 <fts_children+0x2d92>
  41282c:	e8 df f6 fe ff       	callq  401f10 <__errno_location@plt>
  412831:	c7 00 0c 00 00 00    	movl   $0xc,(%rax)
  412837:	bd ff ff ff ff       	mov    $0xffffffff,%ebp
  41283c:	eb a8                	jmp    4127e6 <fts_children+0x2e26>
  41283e:	66 90                	xchg   %ax,%ax
  412840:	48 8b 44 24 08       	mov    0x8(%rsp),%rax
  412845:	31 ed                	xor    %ebp,%ebp
  412847:	48 c7 00 00 00 00 00 	movq   $0x0,(%rax)
  41284e:	eb 96                	jmp    4127e6 <fts_children+0x2e26>
  412850:	e8 bb f6 fe ff       	callq  401f10 <__errno_location@plt>
  412855:	83 38 16             	cmpl   $0x16,(%rax)
  412858:	0f 84 4e ff ff ff    	je     4127ac <fts_children+0x2dec>
  41285e:	48 8b 44 24 10       	mov    0x10(%rsp),%rax
  412863:	bd ff ff ff ff       	mov    $0xffffffff,%ebp
  412868:	48 39 18             	cmp    %rbx,(%rax)
  41286b:	0f 84 75 ff ff ff    	je     4127e6 <fts_children+0x2e26>
  412871:	e8 9a f6 fe ff       	callq  401f10 <__errno_location@plt>
  412876:	44 8b 28             	mov    (%rax),%r13d
  412879:	49 89 c4             	mov    %rax,%r12
  41287c:	48 89 df             	mov    %rbx,%rdi
  41287f:	e8 4c f6 fe ff       	callq  401ed0 <free@plt>
  412884:	45 89 2c 24          	mov    %r13d,(%r12)
  412888:	e9 59 ff ff ff       	jmpq   4127e6 <fts_children+0x2e26>
  41288d:	e8 6e f6 fe ff       	callq  401f00 <abort@plt>
  412892:	e8 a9 f7 fe ff       	callq  402040 <__stack_chk_fail@plt>
  412897:	66 0f 1f 84 00 00 00 	nopw   0x0(%rax,%rax,1)
  41289e:	00 00 
  4128a0:	41 57                	push   %r15
  4128a2:	41 56                	push   %r14
  4128a4:	49 89 f6             	mov    %rsi,%r14
  4128a7:	41 55                	push   %r13
  4128a9:	41 54                	push   %r12
  4128ab:	55                   	push   %rbp
  4128ac:	53                   	push   %rbx
  4128ad:	48 83 ec 28          	sub    $0x28,%rsp
  4128b1:	48 89 3c 24          	mov    %rdi,(%rsp)
  4128b5:	e8 56 f7 fe ff       	callq  402010 <strlen@plt>
  4128ba:	48 89 c3             	mov    %rax,%rbx
  4128bd:	48 89 44 24 08       	mov    %rax,0x8(%rsp)
  4128c2:	48 c1 e3 04          	shl    $0x4,%rbx
  4128c6:	48 3d ff ff ff 0f    	cmp    $0xfffffff,%rax
  4128cc:	48 0f 47 d8          	cmova  %rax,%rbx
  4128d0:	4c 8d 6b 01          	lea    0x1(%rbx),%r13
  4128d4:	4c 89 ef             	mov    %r13,%rdi
  4128d7:	e8 b4 f9 fe ff       	callq  402290 <malloc@plt>
  4128dc:	48 85 c0             	test   %rax,%rax
  4128df:	49 89 c4             	mov    %rax,%r12
  4128e2:	0f 84 80 01 00 00    	je     412a68 <fts_children+0x30a8>
  4128e8:	45 31 c0             	xor    %r8d,%r8d
  4128eb:	31 c9                	xor    %ecx,%ecx
  4128ed:	31 d2                	xor    %edx,%edx
  4128ef:	31 f6                	xor    %esi,%esi
  4128f1:	4c 89 f7             	mov    %r14,%rdi
  4128f4:	e8 67 f6 fe ff       	callq  401f60 <iconv@plt>
  4128f9:	4c 89 64 24 10       	mov    %r12,0x10(%rsp)
  4128fe:	48 89 5c 24 18       	mov    %rbx,0x18(%rsp)
  412903:	eb 67                	jmp    41296c <fts_children+0x2fac>
  412905:	0f 1f 00             	nopl   (%rax)
  412908:	e8 03 f6 fe ff       	callq  401f10 <__errno_location@plt>
  41290d:	8b 18                	mov    (%rax),%ebx
  41290f:	49 89 c7             	mov    %rax,%r15
  412912:	83 fb 16             	cmp    $0x16,%ebx
  412915:	0f 84 d1 00 00 00    	je     4129ec <fts_children+0x302c>
  41291b:	83 fb 07             	cmp    $0x7,%ebx
  41291e:	0f 85 28 01 00 00    	jne    412a4c <fts_children+0x308c>
  412924:	48 8b 5c 24 10       	mov    0x10(%rsp),%rbx
  412929:	4b 8d 6c 2d 00       	lea    0x0(%r13,%r13,1),%rbp
  41292e:	4c 29 e3             	sub    %r12,%rbx
  412931:	49 39 ed             	cmp    %rbp,%r13
  412934:	0f 83 06 01 00 00    	jae    412a40 <fts_children+0x3080>
  41293a:	48 89 ee             	mov    %rbp,%rsi
  41293d:	4c 89 e7             	mov    %r12,%rdi
  412940:	e8 fb f9 fe ff       	callq  402340 <realloc@plt>
  412945:	48 85 c0             	test   %rax,%rax
  412948:	48 89 c2             	mov    %rax,%rdx
  41294b:	0f 84 ef 00 00 00    	je     412a40 <fts_children+0x3080>
  412951:	48 8d 04 18          	lea    (%rax,%rbx,1),%rax
  412955:	49 89 ed             	mov    %rbp,%r13
  412958:	49 89 d4             	mov    %rdx,%r12
  41295b:	48 89 44 24 10       	mov    %rax,0x10(%rsp)
  412960:	48 8d 45 ff          	lea    -0x1(%rbp),%rax
  412964:	48 29 d8             	sub    %rbx,%rax
  412967:	48 89 44 24 18       	mov    %rax,0x18(%rsp)
  41296c:	4c 8d 44 24 18       	lea    0x18(%rsp),%r8
  412971:	48 8d 4c 24 10       	lea    0x10(%rsp),%rcx
  412976:	48 8d 54 24 08       	lea    0x8(%rsp),%rdx
  41297b:	48 89 e6             	mov    %rsp,%rsi
  41297e:	4c 89 f7             	mov    %r14,%rdi
  412981:	e8 da f5 fe ff       	callq  401f60 <iconv@plt>
  412986:	48 83 f8 ff          	cmp    $0xffffffffffffffff,%rax
  41298a:	0f 84 78 ff ff ff    	je     412908 <fts_children+0x2f48>
  412990:	eb 5a                	jmp    4129ec <fts_children+0x302c>
  412992:	66 0f 1f 44 00 00    	nopw   0x0(%rax,%rax,1)
  412998:	e8 73 f5 fe ff       	callq  401f10 <__errno_location@plt>
  41299d:	8b 18                	mov    (%rax),%ebx
  41299f:	49 89 c7             	mov    %rax,%r15
  4129a2:	83 fb 07             	cmp    $0x7,%ebx
  4129a5:	0f 85 a1 00 00 00    	jne    412a4c <fts_children+0x308c>
  4129ab:	48 8b 5c 24 10       	mov    0x10(%rsp),%rbx
  4129b0:	4b 8d 6c 2d 00       	lea    0x0(%r13,%r13,1),%rbp
  4129b5:	4c 29 e3             	sub    %r12,%rbx
  4129b8:	49 39 ed             	cmp    %rbp,%r13
  4129bb:	0f 83 7f 00 00 00    	jae    412a40 <fts_children+0x3080>
  4129c1:	48 89 ee             	mov    %rbp,%rsi
  4129c4:	4c 89 e7             	mov    %r12,%rdi
  4129c7:	e8 74 f9 fe ff       	callq  402340 <realloc@plt>
  4129cc:	48 85 c0             	test   %rax,%rax
  4129cf:	74 6f                	je     412a40 <fts_children+0x3080>
  4129d1:	48 8d 14 18          	lea    (%rax,%rbx,1),%rdx
  4129d5:	49 89 ed             	mov    %rbp,%r13
  4129d8:	49 89 c4             	mov    %rax,%r12
  4129db:	48 89 54 24 10       	mov    %rdx,0x10(%rsp)
  4129e0:	48 8d 55 ff          	lea    -0x1(%rbp),%rdx
  4129e4:	48 29 da             	sub    %rbx,%rdx
  4129e7:	48 89 54 24 18       	mov    %rdx,0x18(%rsp)
  4129ec:	4c 8d 44 24 18       	lea    0x18(%rsp),%r8
  4129f1:	48 8d 4c 24 10       	lea    0x10(%rsp),%rcx
  4129f6:	31 d2                	xor    %edx,%edx
  4129f8:	31 f6                	xor    %esi,%esi
  4129fa:	4c 89 f7             	mov    %r14,%rdi
  4129fd:	e8 5e f5 fe ff       	callq  401f60 <iconv@plt>
  412a02:	48 83 f8 ff          	cmp    $0xffffffffffffffff,%rax
  412a06:	74 90                	je     412998 <fts_children+0x2fd8>
  412a08:	48 8b 44 24 10       	mov    0x10(%rsp),%rax
  412a0d:	48 8d 50 01          	lea    0x1(%rax),%rdx
  412a11:	48 89 54 24 10       	mov    %rdx,0x10(%rsp)
  412a16:	c6 00 00             	movb   $0x0,(%rax)
  412a19:	4c 89 e0             	mov    %r12,%rax
  412a1c:	48 8b 74 24 10       	mov    0x10(%rsp),%rsi
  412a21:	4c 29 e6             	sub    %r12,%rsi
  412a24:	4c 39 ee             	cmp    %r13,%rsi
  412a27:	73 30                	jae    412a59 <fts_children+0x3099>
  412a29:	4c 89 e7             	mov    %r12,%rdi
  412a2c:	e8 0f f9 fe ff       	callq  402340 <realloc@plt>
  412a31:	48 85 c0             	test   %rax,%rax
  412a34:	49 0f 44 c4          	cmove  %r12,%rax
  412a38:	eb 1f                	jmp    412a59 <fts_children+0x3099>
  412a3a:	66 0f 1f 44 00 00    	nopw   0x0(%rax,%rax,1)
  412a40:	41 c7 07 0c 00 00 00 	movl   $0xc,(%r15)
  412a47:	bb 0c 00 00 00       	mov    $0xc,%ebx
  412a4c:	4c 89 e7             	mov    %r12,%rdi
  412a4f:	e8 7c f4 fe ff       	callq  401ed0 <free@plt>
  412a54:	41 89 1f             	mov    %ebx,(%r15)
  412a57:	31 c0                	xor    %eax,%eax
  412a59:	48 83 c4 28          	add    $0x28,%rsp
  412a5d:	5b                   	pop    %rbx
  412a5e:	5d                   	pop    %rbp
  412a5f:	41 5c                	pop    %r12
  412a61:	41 5d                	pop    %r13
  412a63:	41 5e                	pop    %r14
  412a65:	41 5f                	pop    %r15
  412a67:	c3                   	retq   
  412a68:	e8 a3 f4 fe ff       	callq  401f10 <__errno_location@plt>
  412a6d:	c7 00 0c 00 00 00    	movl   $0xc,(%rax)
  412a73:	31 c0                	xor    %eax,%eax
  412a75:	eb e2                	jmp    412a59 <fts_children+0x3099>
  412a77:	66 0f 1f 84 00 00 00 	nopw   0x0(%rax,%rax,1)
  412a7e:	00 00 
  412a80:	41 54                	push   %r12
  412a82:	55                   	push   %rbp
  412a83:	53                   	push   %rbx
  412a84:	80 3f 00             	cmpb   $0x0,(%rdi)
  412a87:	48 89 fb             	mov    %rdi,%rbx
  412a8a:	74 15                	je     412aa1 <fts_children+0x30e1>
  412a8c:	48 89 f5             	mov    %rsi,%rbp
  412a8f:	48 89 d6             	mov    %rdx,%rsi
  412a92:	49 89 d4             	mov    %rdx,%r12
  412a95:	48 89 ef             	mov    %rbp,%rdi
  412a98:	e8 03 d8 ff ff       	callq  4102a0 <fts_children+0x8e0>
  412a9d:	85 c0                	test   %eax,%eax
  412a9f:	75 1f                	jne    412ac0 <fts_children+0x3100>
  412aa1:	48 89 df             	mov    %rbx,%rdi
  412aa4:	e8 c7 f6 fe ff       	callq  402170 <__strdup@plt>
  412aa9:	48 85 c0             	test   %rax,%rax
  412aac:	48 89 c3             	mov    %rax,%rbx
  412aaf:	74 5f                	je     412b10 <fts_children+0x3150>
  412ab1:	48 89 d8             	mov    %rbx,%rax
  412ab4:	5b                   	pop    %rbx
  412ab5:	5d                   	pop    %rbp
  412ab6:	41 5c                	pop    %r12
  412ab8:	c3                   	retq   
  412ab9:	0f 1f 80 00 00 00 00 	nopl   0x0(%rax)
  412ac0:	48 89 ee             	mov    %rbp,%rsi
  412ac3:	4c 89 e7             	mov    %r12,%rdi
  412ac6:	e8 25 fa fe ff       	callq  4024f0 <iconv_open@plt>
  412acb:	48 83 f8 ff          	cmp    $0xffffffffffffffff,%rax
  412acf:	48 89 c5             	mov    %rax,%rbp
  412ad2:	74 4f                	je     412b23 <fts_children+0x3163>
  412ad4:	48 89 df             	mov    %rbx,%rdi
  412ad7:	48 89 c6             	mov    %rax,%rsi
  412ada:	e8 c1 fd ff ff       	callq  4128a0 <fts_children+0x2ee0>
  412adf:	48 85 c0             	test   %rax,%rax
  412ae2:	48 89 c3             	mov    %rax,%rbx
  412ae5:	74 49                	je     412b30 <fts_children+0x3170>
  412ae7:	48 89 ef             	mov    %rbp,%rdi
  412aea:	e8 91 f8 fe ff       	callq  402380 <iconv_close@plt>
  412aef:	85 c0                	test   %eax,%eax
  412af1:	79 be                	jns    412ab1 <fts_children+0x30f1>
  412af3:	e8 18 f4 fe ff       	callq  401f10 <__errno_location@plt>
  412af8:	44 8b 20             	mov    (%rax),%r12d
  412afb:	48 89 c5             	mov    %rax,%rbp
  412afe:	48 89 df             	mov    %rbx,%rdi
  412b01:	e8 ca f3 fe ff       	callq  401ed0 <free@plt>
  412b06:	31 db                	xor    %ebx,%ebx
  412b08:	44 89 65 00          	mov    %r12d,0x0(%rbp)
  412b0c:	eb a3                	jmp    412ab1 <fts_children+0x30f1>
  412b0e:	66 90                	xchg   %ax,%ax
  412b10:	e8 fb f3 fe ff       	callq  401f10 <__errno_location@plt>
  412b15:	c7 00 0c 00 00 00    	movl   $0xc,(%rax)
  412b1b:	48 89 d8             	mov    %rbx,%rax
  412b1e:	5b                   	pop    %rbx
  412b1f:	5d                   	pop    %rbp
  412b20:	41 5c                	pop    %r12
  412b22:	c3                   	retq   
  412b23:	31 db                	xor    %ebx,%ebx
  412b25:	eb 8a                	jmp    412ab1 <fts_children+0x30f1>
  412b27:	66 0f 1f 84 00 00 00 	nopw   0x0(%rax,%rax,1)
  412b2e:	00 00 
  412b30:	e8 db f3 fe ff       	callq  401f10 <__errno_location@plt>
  412b35:	44 8b 20             	mov    (%rax),%r12d
  412b38:	48 89 c3             	mov    %rax,%rbx
  412b3b:	48 89 ef             	mov    %rbp,%rdi
  412b3e:	e8 3d f8 fe ff       	callq  402380 <iconv_close@plt>
  412b43:	44 89 23             	mov    %r12d,(%rbx)
  412b46:	31 db                	xor    %ebx,%ebx
  412b48:	e9 64 ff ff ff       	jmpq   412ab1 <fts_children+0x30f1>
  412b4d:	0f 1f 00             	nopl   (%rax)
  412b50:	ba 03 00 00 00       	mov    $0x3,%edx
  412b55:	31 f6                	xor    %esi,%esi
  412b57:	31 c0                	xor    %eax,%eax
  412b59:	e9 42 00 00 00       	jmpq   412ba0 <fts_children+0x31e0>
  412b5e:	66 90                	xchg   %ax,%ax
  412b60:	41 55                	push   %r13
  412b62:	41 54                	push   %r12
  412b64:	55                   	push   %rbp
  412b65:	53                   	push   %rbx
  412b66:	89 fb                	mov    %edi,%ebx
  412b68:	48 83 ec 08          	sub    $0x8,%rsp
  412b6c:	83 ff 02             	cmp    $0x2,%edi
  412b6f:	77 21                	ja     412b92 <fts_children+0x31d2>
  412b71:	e8 da ff ff ff       	callq  412b50 <fts_children+0x3190>
  412b76:	41 89 c4             	mov    %eax,%r12d
  412b79:	e8 92 f3 fe ff       	callq  401f10 <__errno_location@plt>
  412b7e:	44 8b 28             	mov    (%rax),%r13d
  412b81:	48 89 c5             	mov    %rax,%rbp
  412b84:	89 df                	mov    %ebx,%edi
  412b86:	e8 b5 f5 fe ff       	callq  402140 <close@plt>
  412b8b:	44 89 e3             	mov    %r12d,%ebx
  412b8e:	44 89 6d 00          	mov    %r13d,0x0(%rbp)
  412b92:	48 83 c4 08          	add    $0x8,%rsp
  412b96:	89 d8                	mov    %ebx,%eax
  412b98:	5b                   	pop    %rbx
  412b99:	5d                   	pop    %rbp
  412b9a:	41 5c                	pop    %r12
  412b9c:	41 5d                	pop    %r13
  412b9e:	c3                   	retq   
  412b9f:	90                   	nop
  412ba0:	41 54                	push   %r12
  412ba2:	55                   	push   %rbp
  412ba3:	89 fd                	mov    %edi,%ebp
  412ba5:	53                   	push   %rbx
  412ba6:	48 83 ec 50          	sub    $0x50,%rsp
  412baa:	81 fe 06 04 00 00    	cmp    $0x406,%esi
  412bb0:	48 8d 44 24 70       	lea    0x70(%rsp),%rax
  412bb5:	48 89 54 24 30       	mov    %rdx,0x30(%rsp)
  412bba:	48 89 4c 24 38       	mov    %rcx,0x38(%rsp)
  412bbf:	c7 44 24 08 10 00 00 	movl   $0x10,0x8(%rsp)
  412bc6:	00 
  412bc7:	48 89 44 24 10       	mov    %rax,0x10(%rsp)
  412bcc:	48 8d 44 24 20       	lea    0x20(%rsp),%rax
  412bd1:	48 89 44 24 18       	mov    %rax,0x18(%rsp)
  412bd6:	0f 85 94 00 00 00    	jne    412c70 <fts_children+0x32b0>
  412bdc:	44 8b 60 10          	mov    0x10(%rax),%r12d
  412be0:	8b 05 7a 7a 20 00    	mov    0x207a7a(%rip),%eax        # 61a660 <stderr+0x210>
  412be6:	c7 44 24 08 18 00 00 	movl   $0x18,0x8(%rsp)
  412bed:	00 
  412bee:	85 c0                	test   %eax,%eax
  412bf0:	44 89 e2             	mov    %r12d,%edx
  412bf3:	0f 88 97 00 00 00    	js     412c90 <fts_children+0x32d0>
  412bf9:	31 c0                	xor    %eax,%eax
  412bfb:	e8 a0 f3 fe ff       	callq  401fa0 <fcntl@plt>
  412c00:	85 c0                	test   %eax,%eax
  412c02:	89 c3                	mov    %eax,%ebx
  412c04:	0f 88 96 00 00 00    	js     412ca0 <fts_children+0x32e0>
  412c0a:	c7 05 4c 7a 20 00 01 	movl   $0x1,0x207a4c(%rip)        # 61a660 <stderr+0x210>
  412c11:	00 00 00 
  412c14:	85 db                	test   %ebx,%ebx
  412c16:	78 6a                	js     412c82 <fts_children+0x32c2>
  412c18:	83 3d 41 7a 20 00 ff 	cmpl   $0xffffffff,0x207a41(%rip)        # 61a660 <stderr+0x210>
  412c1f:	75 61                	jne    412c82 <fts_children+0x32c2>
  412c21:	31 c0                	xor    %eax,%eax
  412c23:	be 01 00 00 00       	mov    $0x1,%esi
  412c28:	89 df                	mov    %ebx,%edi
  412c2a:	e8 71 f3 fe ff       	callq  401fa0 <fcntl@plt>
  412c2f:	85 c0                	test   %eax,%eax
  412c31:	78 18                	js     412c4b <fts_children+0x328b>
  412c33:	83 c8 01             	or     $0x1,%eax
  412c36:	be 02 00 00 00       	mov    $0x2,%esi
  412c3b:	89 df                	mov    %ebx,%edi
  412c3d:	89 c2                	mov    %eax,%edx
  412c3f:	31 c0                	xor    %eax,%eax
  412c41:	e8 5a f3 fe ff       	callq  401fa0 <fcntl@plt>
  412c46:	83 f8 ff             	cmp    $0xffffffff,%eax
  412c49:	75 37                	jne    412c82 <fts_children+0x32c2>
  412c4b:	e8 c0 f2 fe ff       	callq  401f10 <__errno_location@plt>
  412c50:	44 8b 20             	mov    (%rax),%r12d
  412c53:	48 89 c5             	mov    %rax,%rbp
  412c56:	89 df                	mov    %ebx,%edi
  412c58:	e8 e3 f4 fe ff       	callq  402140 <close@plt>
  412c5d:	bb ff ff ff ff       	mov    $0xffffffff,%ebx
  412c62:	44 89 65 00          	mov    %r12d,0x0(%rbp)
  412c66:	eb 1a                	jmp    412c82 <fts_children+0x32c2>
  412c68:	0f 1f 84 00 00 00 00 	nopl   0x0(%rax,%rax,1)
  412c6f:	00 
  412c70:	48 8b 44 24 18       	mov    0x18(%rsp),%rax
  412c75:	48 8b 50 10          	mov    0x10(%rax),%rdx
  412c79:	31 c0                	xor    %eax,%eax
  412c7b:	e8 20 f3 fe ff       	callq  401fa0 <fcntl@plt>
  412c80:	89 c3                	mov    %eax,%ebx
  412c82:	48 83 c4 50          	add    $0x50,%rsp
  412c86:	89 d8                	mov    %ebx,%eax
  412c88:	5b                   	pop    %rbx
  412c89:	5d                   	pop    %rbp
  412c8a:	41 5c                	pop    %r12
  412c8c:	c3                   	retq   
  412c8d:	0f 1f 00             	nopl   (%rax)
  412c90:	31 f6                	xor    %esi,%esi
  412c92:	31 c0                	xor    %eax,%eax
  412c94:	e8 07 ff ff ff       	callq  412ba0 <fts_children+0x31e0>
  412c99:	89 c3                	mov    %eax,%ebx
  412c9b:	e9 74 ff ff ff       	jmpq   412c14 <fts_children+0x3254>
  412ca0:	e8 6b f2 fe ff       	callq  401f10 <__errno_location@plt>
  412ca5:	83 38 16             	cmpl   $0x16,(%rax)
  412ca8:	0f 85 5c ff ff ff    	jne    412c0a <fts_children+0x324a>
  412cae:	31 f6                	xor    %esi,%esi
  412cb0:	31 c0                	xor    %eax,%eax
  412cb2:	44 89 e2             	mov    %r12d,%edx
  412cb5:	89 ef                	mov    %ebp,%edi
  412cb7:	e8 e4 fe ff ff       	callq  412ba0 <fts_children+0x31e0>
  412cbc:	85 c0                	test   %eax,%eax
  412cbe:	89 c3                	mov    %eax,%ebx
  412cc0:	78 c0                	js     412c82 <fts_children+0x32c2>
  412cc2:	c7 05 94 79 20 00 ff 	movl   $0xffffffff,0x207994(%rip)        # 61a660 <stderr+0x210>
  412cc9:	ff ff ff 
  412ccc:	e9 50 ff ff ff       	jmpq   412c21 <fts_children+0x3261>
  412cd1:	66 2e 0f 1f 84 00 00 	nopw   %cs:0x0(%rax,%rax,1)
  412cd8:	00 00 00 
  412cdb:	0f 1f 44 00 00       	nopl   0x0(%rax,%rax,1)
  412ce0:	48 89 f8             	mov    %rdi,%rax
  412ce3:	48 8d 7f 10          	lea    0x10(%rdi),%rdi
  412ce7:	48 39 f8             	cmp    %rdi,%rax
  412cea:	77 64                	ja     412d50 <fts_children+0x3390>
  412cec:	48 83 ec 08          	sub    $0x8,%rsp
  412cf0:	e8 9b f5 fe ff       	callq  402290 <malloc@plt>
  412cf5:	48 85 c0             	test   %rax,%rax
  412cf8:	48 89 c1             	mov    %rax,%rcx
  412cfb:	74 5b                	je     412d58 <fts_children+0x3398>
  412cfd:	48 8d 70 10          	lea    0x10(%rax),%rsi
  412d01:	c7 40 0c 4a fb 15 14 	movl   $0x1415fb4a,0xc(%rax)
  412d08:	48 ba 01 ff 00 ff 00 	movabs $0xff00ff00ff00ff01,%rdx
  412d0f:	ff 00 ff 
  412d12:	48 89 f0             	mov    %rsi,%rax
  412d15:	48 f7 e2             	mul    %rdx
  412d18:	48 c1 ea 08          	shr    $0x8,%rdx
  412d1c:	48 89 d0             	mov    %rdx,%rax
  412d1f:	48 c1 e0 08          	shl    $0x8,%rax
  412d23:	48 01 c2             	add    %rax,%rdx
  412d26:	48 89 f0             	mov    %rsi,%rax
  412d29:	48 29 d0             	sub    %rdx,%rax
  412d2c:	48 89 c2             	mov    %rax,%rdx
  412d2f:	48 8b 04 c5 80 a6 61 	mov    0x61a680(,%rax,8),%rax
  412d36:	00 
  412d37:	48 89 34 d5 80 a6 61 	mov    %rsi,0x61a680(,%rdx,8)
  412d3e:	00 
  412d3f:	48 89 01             	mov    %rax,(%rcx)
  412d42:	48 89 f0             	mov    %rsi,%rax
  412d45:	48 83 c4 08          	add    $0x8,%rsp
  412d49:	c3                   	retq   
  412d4a:	66 0f 1f 44 00 00    	nopw   0x0(%rax,%rax,1)
  412d50:	31 c0                	xor    %eax,%eax
  412d52:	c3                   	retq   
  412d53:	0f 1f 44 00 00       	nopl   0x0(%rax,%rax,1)
  412d58:	31 c0                	xor    %eax,%eax
  412d5a:	eb e9                	jmp    412d45 <fts_children+0x3385>
  412d5c:	0f 1f 40 00          	nopl   0x0(%rax)
  412d60:	48 85 ff             	test   %rdi,%rdi
  412d63:	74 09                	je     412d6e <fts_children+0x33ae>
  412d65:	81 7f fc 4a fb 15 14 	cmpl   $0x1415fb4a,-0x4(%rdi)
  412d6c:	74 02                	je     412d70 <fts_children+0x33b0>
  412d6e:	f3 c3                	repz retq 
  412d70:	48 89 f8             	mov    %rdi,%rax
  412d73:	48 ba 01 ff 00 ff 00 	movabs $0xff00ff00ff00ff01,%rdx
  412d7a:	ff 00 ff 
  412d7d:	48 f7 e2             	mul    %rdx
  412d80:	48 c1 ea 08          	shr    $0x8,%rdx
  412d84:	48 89 d0             	mov    %rdx,%rax
  412d87:	48 c1 e0 08          	shl    $0x8,%rax
  412d8b:	48 01 c2             	add    %rax,%rdx
  412d8e:	48 89 f8             	mov    %rdi,%rax
  412d91:	48 29 d0             	sub    %rdx,%rax
  412d94:	48 8b 0c c5 80 a6 61 	mov    0x61a680(,%rax,8),%rcx
  412d9b:	00 
  412d9c:	48 85 c9             	test   %rcx,%rcx
  412d9f:	74 cd                	je     412d6e <fts_children+0x33ae>
  412da1:	48 39 cf             	cmp    %rcx,%rdi
  412da4:	75 12                	jne    412db8 <fts_children+0x33f8>
  412da6:	eb 34                	jmp    412ddc <fts_children+0x341c>
  412da8:	0f 1f 84 00 00 00 00 	nopl   0x0(%rax,%rax,1)
  412daf:	00 
  412db0:	48 39 d7             	cmp    %rdx,%rdi
  412db3:	74 13                	je     412dc8 <fts_children+0x3408>
  412db5:	48 89 d1             	mov    %rdx,%rcx
  412db8:	48 8b 51 f0          	mov    -0x10(%rcx),%rdx
  412dbc:	48 85 d2             	test   %rdx,%rdx
  412dbf:	75 ef                	jne    412db0 <fts_children+0x33f0>
  412dc1:	eb ab                	jmp    412d6e <fts_children+0x33ae>
  412dc3:	0f 1f 44 00 00       	nopl   0x0(%rax,%rax,1)
  412dc8:	48 83 e9 10          	sub    $0x10,%rcx
  412dcc:	48 8b 47 f0          	mov    -0x10(%rdi),%rax
  412dd0:	48 83 ef 10          	sub    $0x10,%rdi
  412dd4:	48 89 01             	mov    %rax,(%rcx)
  412dd7:	e9 f4 f0 fe ff       	jmpq   401ed0 <free@plt>
  412ddc:	48 8d 0c c5 80 a6 61 	lea    0x61a680(,%rax,8),%rcx
  412de3:	00 
  412de4:	eb e6                	jmp    412dcc <fts_children+0x340c>
  412de6:	66 2e 0f 1f 84 00 00 	nopw   %cs:0x0(%rax,%rax,1)
  412ded:	00 00 00 
  412df0:	41 54                	push   %r12
  412df2:	55                   	push   %rbp
  412df3:	53                   	push   %rbx
  412df4:	48 89 fb             	mov    %rdi,%rbx
  412df7:	48 83 ec 50          	sub    $0x50,%rsp
  412dfb:	64 48 8b 04 25 28 00 	mov    %fs:0x28,%rax
  412e02:	00 00 
  412e04:	48 89 44 24 48       	mov    %rax,0x48(%rsp)
  412e09:	31 c0                	xor    %eax,%eax
  412e0b:	e8 f0 f1 fe ff       	callq  402000 <__ctype_get_mb_cur_max@plt>
  412e10:	48 83 f8 01          	cmp    $0x1,%rax
  412e14:	0f 86 7e 01 00 00    	jbe    412f98 <fts_children+0x35d8>
  412e1a:	48 89 5c 24 10       	mov    %rbx,0x10(%rsp)
  412e1f:	c6 04 24 00          	movb   $0x0,(%rsp)
  412e23:	31 db                	xor    %ebx,%ebx
  412e25:	80 3c 24 00          	cmpb   $0x0,(%rsp)
  412e29:	48 c7 44 24 04 00 00 	movq   $0x0,0x4(%rsp)
  412e30:	00 00 
  412e32:	4c 8d 64 24 04       	lea    0x4(%rsp),%r12
  412e37:	c6 44 24 0c 00       	movb   $0x0,0xc(%rsp)
  412e3c:	0f 85 99 00 00 00    	jne    412edb <fts_children+0x351b>
  412e42:	66 0f 1f 44 00 00    	nopw   0x0(%rax,%rax,1)
  412e48:	48 8b 54 24 10       	mov    0x10(%rsp),%rdx
  412e4d:	0f b6 02             	movzbl (%rdx),%eax
  412e50:	89 c1                	mov    %eax,%ecx
  412e52:	83 e0 1f             	and    $0x1f,%eax
  412e55:	c0 e9 05             	shr    $0x5,%cl
  412e58:	83 e1 07             	and    $0x7,%ecx
  412e5b:	8b 0c 8d 80 57 41 00 	mov    0x415780(,%rcx,4),%ecx
  412e62:	0f a3 c1             	bt     %eax,%ecx
  412e65:	0f 83 f5 00 00 00    	jae    412f60 <fts_children+0x35a0>
  412e6b:	48 c7 44 24 18 01 00 	movq   $0x1,0x18(%rsp)
  412e72:	00 00 
  412e74:	0f be 02             	movsbl (%rdx),%eax
  412e77:	c6 44 24 20 01       	movb   $0x1,0x20(%rsp)
  412e7c:	89 44 24 24          	mov    %eax,0x24(%rsp)
  412e80:	8b 44 24 24          	mov    0x24(%rsp),%eax
  412e84:	c6 44 24 0c 01       	movb   $0x1,0xc(%rsp)
  412e89:	85 c0                	test   %eax,%eax
  412e8b:	75 31                	jne    412ebe <fts_children+0x34fe>
  412e8d:	48 89 d8             	mov    %rbx,%rax
  412e90:	48 8b 74 24 48       	mov    0x48(%rsp),%rsi
  412e95:	64 48 33 34 25 28 00 	xor    %fs:0x28,%rsi
  412e9c:	00 00 
  412e9e:	0f 85 4c 01 00 00    	jne    412ff0 <fts_children+0x3630>
  412ea4:	48 83 c4 50          	add    $0x50,%rsp
  412ea8:	5b                   	pop    %rbx
  412ea9:	5d                   	pop    %rbp
  412eaa:	41 5c                	pop    %r12
  412eac:	c3                   	retq   
  412ead:	0f 1f 00             	nopl   (%rax)
  412eb0:	48 c7 44 24 18 01 00 	movq   $0x1,0x18(%rsp)
  412eb7:	00 00 
  412eb9:	c6 44 24 20 00       	movb   $0x0,0x20(%rsp)
  412ebe:	48 83 c3 01          	add    $0x1,%rbx
  412ec2:	48 8b 44 24 18       	mov    0x18(%rsp),%rax
  412ec7:	48 01 44 24 10       	add    %rax,0x10(%rsp)
  412ecc:	80 3c 24 00          	cmpb   $0x0,(%rsp)
  412ed0:	c6 44 24 0c 00       	movb   $0x0,0xc(%rsp)
  412ed5:	0f 84 6d ff ff ff    	je     412e48 <fts_children+0x3488>
  412edb:	e8 20 f1 fe ff       	callq  402000 <__ctype_get_mb_cur_max@plt>
  412ee0:	48 8b 6c 24 10       	mov    0x10(%rsp),%rbp
  412ee5:	48 89 c6             	mov    %rax,%rsi
  412ee8:	48 89 ef             	mov    %rbp,%rdi
  412eeb:	e8 90 88 ff ff       	callq  40b780 <__sprintf_chk@plt+0x9280>
  412ef0:	48 8d 4c 24 04       	lea    0x4(%rsp),%rcx
  412ef5:	48 8d 7c 24 24       	lea    0x24(%rsp),%rdi
  412efa:	48 89 c2             	mov    %rax,%rdx
  412efd:	48 89 ee             	mov    %rbp,%rsi
  412f00:	e8 5b f1 fe ff       	callq  402060 <mbrtowc@plt>
  412f05:	48 83 f8 ff          	cmp    $0xffffffffffffffff,%rax
  412f09:	48 89 44 24 18       	mov    %rax,0x18(%rsp)
  412f0e:	74 a0                	je     412eb0 <fts_children+0x34f0>
  412f10:	48 83 f8 fe          	cmp    $0xfffffffffffffffe,%rax
  412f14:	74 62                	je     412f78 <fts_children+0x35b8>
  412f16:	48 85 c0             	test   %rax,%rax
  412f19:	75 23                	jne    412f3e <fts_children+0x357e>
  412f1b:	48 8b 44 24 10       	mov    0x10(%rsp),%rax
  412f20:	48 c7 44 24 18 01 00 	movq   $0x1,0x18(%rsp)
  412f27:	00 00 
  412f29:	80 38 00             	cmpb   $0x0,(%rax)
  412f2c:	0f 85 a5 00 00 00    	jne    412fd7 <fts_children+0x3617>
  412f32:	8b 54 24 24          	mov    0x24(%rsp),%edx
  412f36:	85 d2                	test   %edx,%edx
  412f38:	0f 85 80 00 00 00    	jne    412fbe <fts_children+0x35fe>
  412f3e:	48 8d 7c 24 04       	lea    0x4(%rsp),%rdi
  412f43:	c6 44 24 20 01       	movb   $0x1,0x20(%rsp)
  412f48:	e8 43 f5 fe ff       	callq  402490 <mbsinit@plt>
  412f4d:	85 c0                	test   %eax,%eax
  412f4f:	0f 84 2b ff ff ff    	je     412e80 <fts_children+0x34c0>
  412f55:	c6 04 24 00          	movb   $0x0,(%rsp)
  412f59:	e9 22 ff ff ff       	jmpq   412e80 <fts_children+0x34c0>
  412f5e:	66 90                	xchg   %ax,%ax
  412f60:	4c 89 e7             	mov    %r12,%rdi
  412f63:	e8 28 f5 fe ff       	callq  402490 <mbsinit@plt>
  412f68:	85 c0                	test   %eax,%eax
  412f6a:	74 39                	je     412fa5 <fts_children+0x35e5>
  412f6c:	c6 04 24 01          	movb   $0x1,(%rsp)
  412f70:	e9 66 ff ff ff       	jmpq   412edb <fts_children+0x351b>
  412f75:	0f 1f 00             	nopl   (%rax)
  412f78:	48 8b 7c 24 10       	mov    0x10(%rsp),%rdi
  412f7d:	e8 8e f0 fe ff       	callq  402010 <strlen@plt>
  412f82:	c6 44 24 20 00       	movb   $0x0,0x20(%rsp)
  412f87:	48 89 44 24 18       	mov    %rax,0x18(%rsp)
  412f8c:	e9 2d ff ff ff       	jmpq   412ebe <fts_children+0x34fe>
  412f91:	0f 1f 80 00 00 00 00 	nopl   0x0(%rax)
  412f98:	48 89 df             	mov    %rbx,%rdi
  412f9b:	e8 70 f0 fe ff       	callq  402010 <strlen@plt>
  412fa0:	e9 eb fe ff ff       	jmpq   412e90 <fts_children+0x34d0>
  412fa5:	b9 10 68 41 00       	mov    $0x416810,%ecx
  412faa:	ba 93 00 00 00       	mov    $0x93,%edx
  412faf:	be f2 51 41 00       	mov    $0x4151f2,%esi
  412fb4:	bf 00 52 41 00       	mov    $0x415200,%edi
  412fb9:	e8 12 f1 fe ff       	callq  4020d0 <__assert_fail@plt>
  412fbe:	b9 10 68 41 00       	mov    $0x416810,%ecx
  412fc3:	ba b0 00 00 00       	mov    $0xb0,%edx
  412fc8:	be f2 51 41 00       	mov    $0x4151f2,%esi
  412fcd:	bf 2e 52 41 00       	mov    $0x41522e,%edi
  412fd2:	e8 f9 f0 fe ff       	callq  4020d0 <__assert_fail@plt>
  412fd7:	b9 10 68 41 00       	mov    $0x416810,%ecx
  412fdc:	ba af 00 00 00       	mov    $0xaf,%edx
  412fe1:	be f2 51 41 00       	mov    $0x4151f2,%esi
  412fe6:	bf 17 52 41 00       	mov    $0x415217,%edi
  412feb:	e8 e0 f0 fe ff       	callq  4020d0 <__assert_fail@plt>
  412ff0:	e8 4b f0 fe ff       	callq  402040 <__stack_chk_fail@plt>
  412ff5:	66 2e 0f 1f 84 00 00 	nopw   %cs:0x0(%rax,%rax,1)
  412ffc:	00 00 00 
  412fff:	90                   	nop
  413000:	41 57                	push   %r15
  413002:	41 89 ff             	mov    %edi,%r15d
  413005:	41 56                	push   %r14
  413007:	49 89 f6             	mov    %rsi,%r14
  41300a:	41 55                	push   %r13
  41300c:	49 89 d5             	mov    %rdx,%r13
  41300f:	41 54                	push   %r12
  413011:	4c 8d 25 f8 6d 20 00 	lea    0x206df8(%rip),%r12        # 619e10 <fts_children+0x20a450>
  413018:	55                   	push   %rbp
  413019:	48 8d 2d f8 6d 20 00 	lea    0x206df8(%rip),%rbp        # 619e18 <fts_children+0x20a458>
  413020:	53                   	push   %rbx
  413021:	4c 29 e5             	sub    %r12,%rbp
  413024:	31 db                	xor    %ebx,%ebx
  413026:	48 c1 fd 03          	sar    $0x3,%rbp
  41302a:	48 83 ec 08          	sub    $0x8,%rsp
  41302e:	e8 35 ee fe ff       	callq  401e68 <__ctype_toupper_loc@plt-0x38>
  413033:	48 85 ed             	test   %rbp,%rbp
  413036:	74 1e                	je     413056 <fts_children+0x3696>
  413038:	0f 1f 84 00 00 00 00 	nopl   0x0(%rax,%rax,1)
  41303f:	00 
  413040:	4c 89 ea             	mov    %r13,%rdx
  413043:	4c 89 f6             	mov    %r14,%rsi
  413046:	44 89 ff             	mov    %r15d,%edi
  413049:	41 ff 14 dc          	callq  *(%r12,%rbx,8)
  41304d:	48 83 c3 01          	add    $0x1,%rbx
  413051:	48 39 eb             	cmp    %rbp,%rbx
  413054:	75 ea                	jne    413040 <fts_children+0x3680>
  413056:	48 83 c4 08          	add    $0x8,%rsp
  41305a:	5b                   	pop    %rbx
  41305b:	5d                   	pop    %rbp
  41305c:	41 5c                	pop    %r12
  41305e:	41 5d                	pop    %r13
  413060:	41 5e                	pop    %r14
  413062:	41 5f                	pop    %r15
  413064:	c3                   	retq   
  413065:	66 66 2e 0f 1f 84 00 	data32 nopw %cs:0x0(%rax,%rax,1)
  41306c:	00 00 00 00 
  413070:	f3 c3                	repz retq 
  413072:	66 2e 0f 1f 84 00 00 	nopw   %cs:0x0(%rax,%rax,1)
  413079:	00 00 00 
  41307c:	0f 1f 40 00          	nopl   0x0(%rax)
  413080:	48 8d 05 e1 72 20 00 	lea    0x2072e1(%rip),%rax        # 61a368 <fts_children+0x20a9a8>
  413087:	48 85 c0             	test   %rax,%rax
  41308a:	74 0a                	je     413096 <fts_children+0x36d6>
  41308c:	48 8b 10             	mov    (%rax),%rdx
  41308f:	31 f6                	xor    %esi,%esi
  413091:	e9 aa f3 fe ff       	jmpq   402440 <__cxa_atexit@plt>
  413096:	31 d2                	xor    %edx,%edx
  413098:	eb f5                	jmp    41308f <fts_children+0x36cf>

Disassembly of section .fini:

000000000041309c <.fini>:
  41309c:	48 83 ec 08          	sub    $0x8,%rsp
  4130a0:	48 83 c4 08          	add    $0x8,%rsp
  4130a4:	c3                   	retq   
